
RF_PHY.elf:     file format elf32-littleriscv
RF_PHY.elf
architecture: riscv:rv32, flags 0x00000112:
EXEC_P, HAS_SYMS, D_PAGED
start address 0x00000000

Program Header:
0x70000003 off    0x00016506 vaddr 0x00000000 paddr 0x00000000 align 2**0
         filesz 0x00000051 memsz 0x00000000 flags r--
    LOAD off    0x00001000 vaddr 0x00000000 paddr 0x00000000 align 2**12
         filesz 0x00000004 memsz 0x00000004 flags r-x
    LOAD off    0x00002000 vaddr 0x20000000 paddr 0x00000004 align 2**12
         filesz 0x00000e3c memsz 0x00000e3c flags r-x
    LOAD off    0x00002e40 vaddr 0x00000e40 paddr 0x00000e40 align 2**12
         filesz 0x00005148 memsz 0x00005148 flags rwx
    LOAD off    0x00008e3c vaddr 0x20000e3c paddr 0x00005f88 align 2**12
         filesz 0x00000080 memsz 0x000010c4 flags rw-

Sections:
Idx Name                 Size      VMA       LMA       File off  Algn  Flags
  0 .init                00000004  00000000  00000000  00001000  2**1  CONTENTS, ALLOC, LOAD, READONLY, CODE
  1 .highcode_initlalign 00000000  00000004  00000004  00008ebc  2**0  CONTENTS
  2 .highcodelalign      00000000  00000004  00000004  00008ebc  2**0  CONTENTS
  3 .highcode            00000e3c  20000000  00000004  00002000  2**1  CONTENTS, ALLOC, LOAD, READONLY, CODE
  4 .text                00004a38  00000e40  00000e40  00002e40  2**2  CONTENTS, ALLOC, LOAD, READONLY, CODE
  5 .vector_handler      00000002  00005878  00005878  00007878  2**0  CONTENTS, ALLOC, LOAD, READONLY, CODE
  6 .highcode_fast       000005de  0000587a  0000587a  0000787a  2**1  CONTENTS, ALLOC, LOAD, READONLY, CODE
  7 .highcode_lp         00000130  00005e58  00005e58  00007e58  2**1  CONTENTS, ALLOC, LOAD, READONLY, CODE
  8 .fini                00000000  00005f88  00005f88  00007f88  2**0  ALLOC, CODE
  9 .dlalign             00000000  00005f88  00005f88  00008ebc  2**0  CONTENTS
 10 .data                00000080  20000e3c  00005f88  00008e3c  2**2  CONTENTS, ALLOC, LOAD, DATA
 11 .bss                 00001044  20000ebc  00006008  00008ebc  2**2  ALLOC
 12 .stack               00000000  20003000  20003000  00008ebc  2**0  CONTENTS
 13 .debug_info          00004168  00000000  00000000  00008ebc  2**0  CONTENTS, READONLY, DEBUGGING, OCTETS
 14 .debug_abbrev        00001662  00000000  00000000  0000d024  2**0  CONTENTS, READONLY, DEBUGGING, OCTETS
 15 .debug_loclists      00001576  00000000  00000000  0000e686  2**0  CONTENTS, READONLY, DEBUGGING, OCTETS
 16 .debug_aranges       000002f8  00000000  00000000  0000fc00  2**3  CONTENTS, READONLY, DEBUGGING, OCTETS
 17 .debug_rnglists      00000421  00000000  00000000  0000fef8  2**0  CONTENTS, READONLY, DEBUGGING, OCTETS
 18 .debug_line          00004714  00000000  00000000  00010319  2**0  CONTENTS, READONLY, DEBUGGING, OCTETS
 19 .debug_str           0000137d  00000000  00000000  00014a2d  2**0  CONTENTS, READONLY, DEBUGGING, OCTETS
 20 .debug_line_str      000006f8  00000000  00000000  00015daa  2**0  CONTENTS, READONLY, DEBUGGING, OCTETS
 21 .comment             00000064  00000000  00000000  000164a2  2**0  CONTENTS, READONLY
 22 .riscv.attributes    00000051  00000000  00000000  00016506  2**0  CONTENTS, READONLY
 23 .debug_frame         0000069c  00000000  00000000  00016558  2**2  CONTENTS, READONLY, DEBUGGING, OCTETS
SYMBOL TABLE:
00000000 l    d  .init	00000000 .init
00000004 l    d  .highcode_initlalign	00000000 .highcode_initlalign
00000004 l    d  .highcodelalign	00000000 .highcodelalign
20000000 l    d  .highcode	00000000 .highcode
00000e40 l    d  .text	00000000 .text
00005878 l    d  .vector_handler	00000000 .vector_handler
0000587a l    d  .highcode_fast	00000000 .highcode_fast
00005e58 l    d  .highcode_lp	00000000 .highcode_lp
00005f88 l    d  .fini	00000000 .fini
00005f88 l    d  .dlalign	00000000 .dlalign
20000e3c l    d  .data	00000000 .data
20000ebc l    d  .bss	00000000 .bss
20003000 l    d  .stack	00000000 .stack
00000000 l    d  .debug_info	00000000 .debug_info
00000000 l    d  .debug_abbrev	00000000 .debug_abbrev
00000000 l    d  .debug_loclists	00000000 .debug_loclists
00000000 l    d  .debug_aranges	00000000 .debug_aranges
00000000 l    d  .debug_rnglists	00000000 .debug_rnglists
00000000 l    d  .debug_line	00000000 .debug_line
00000000 l    d  .debug_str	00000000 .debug_str
00000000 l    d  .debug_line_str	00000000 .debug_line_str
00000000 l    d  .comment	00000000 .comment
00000000 l    d  .riscv.attributes	00000000 .riscv.attributes
00000000 l    d  .debug_frame	00000000 .debug_frame
00000000 l    df *ABS*	00000000 startup_CH572.o
00005878 l       .vector_handler	00000000 ENDOCE_IRQHandler
00000000 l    df *ABS*	00000000 tmos.c
0000587a l     F .highcode_fast	00000020 tmosFindTask
20000eac l     O .data	00000004 holdrand.6121
00000000 l    df *ABS*	00000000 tmos_hw.c
20000370 l     F .highcode	00000032 clockGetHSEValue
00002162 l     F .text	00000072 clockGetTickValve
00000000 l    df *ABS*	00000000 bb.c
00000000 l    df *ABS*	00000000 ip.c
20000ed0 l     O .bss	00000004 gPaControl
20000ed4 l     O .bss	00000001 gRfTaskId
20000ed8 l     O .bss	00000004 rfStatusCBs
00000000 l    df *ABS*	00000000 lle.c
00000000 l    df *ABS*	00000000 memory.c
00000000 l    df *ABS*	00000000 CH57x_sys.c
20000ea8 l     O .data	00000004 curbrk.0
00000000 l    df *ABS*	00000000 RTC.c
20000aa2 l     F .highcode	00000018 SYS_GetClockValue
20000aba l     F .highcode	0000000e SYS_SetPendingIRQ
00000000 l    df *ABS*	00000000 RF_PHY.c
00000000 l    df *ABS*	00000000 RF_main.c
00000000 l    df *ABS*	00000000 ISP572.c
20000b6e l       .highcode	00000000 .loop52
20000b7c l       .highcode	00000000 .loop63
20000b8a l       .highcode	00000000 .loop74
20000c8a l       .highcode	00000000 .loop247
00000000 l    df *ABS*	00000000 lib_a-memcpy-asm.o
00000000 l    df *ABS*	00000000 lib_a-memset.o
00000000 l    df *ABS*	00000000 CH57x_clk.c
00000000 l    df *ABS*	00000000 CH57x_flash.c
00000000 l    df *ABS*	00000000 CH57x_gpio.c
00000000 l    df *ABS*	00000000 CH57x_uart.c
00000000 l    df *ABS*	00000000 MCU.c
00000000 l    df *ABS*	00000000 message.c
00000000 l    df *ABS*	00000000 tmos_snv.c
00000000 l    df *ABS*	00000000 rf_fh.c
0000250a l     F .text	0000005c rf_tx_basic_txProcess
00002566 l     F .text	00000100 rf_tx_auto_txProcess
00002666 l     F .text	000000a4 rf_tx_auto_rxProcess
00002c4c l     F .text	0000018a rf_rx_auto_rxProcess
00002b88 l     F .text	000000c4 rf_rx_basic_rxProcess
00002dd6 l     F .text	00000092 rf_rx_auto_txProcess
20001cfc l     O .bss	00000018 rfConfig
20001d14 l     O .bss	0000000c rfInfo
00000000 l    df *ABS*	00000000 rfend.c
20000edc l     O .bss	00000002 ftuneFlag
20000ede l     O .bss	00000001 nCO2401
20000edf l     O .bss	00000001 nCO2440
20000ee0 l     O .bss	00000001 nCO2480
20000ee1 l     O .bss	00000001 nGA2401
20000ee2 l     O .bss	00000001 nGA2440
20000ee3 l     O .bss	00000001 nGA2480
00000000 l    df *ABS*	00000000 _udivdi3.o
00000000 l    df *ABS*	00000000 lib_a-printf.o
00000000 l    df *ABS*	00000000 lib_a-putchar.o
00000000 l    df *ABS*	00000000 lib_a-putc.o
00000000 l    df *ABS*	00000000 lib_a-puts.o
00000000 l    df *ABS*	00000000 lib_a-wbuf.o
00000000 l    df *ABS*	00000000 lib_a-wsetup.o
00000000 l    df *ABS*	00000000 lib_a-fflush.o
00000000 l    df *ABS*	00000000 lib_a-findfp.o
00004786 l     F .text	00000066 std
00000000 l    df *ABS*	00000000 lib_a-fwalk.o
00000000 l    df *ABS*	00000000 lib_a-lock.o
00000000 l    df *ABS*	00000000 lib_a-makebuf.o
00000000 l    df *ABS*	00000000 lib_a-nano-freer.o
00000000 l    df *ABS*	00000000 lib_a-nano-mallocr.o
00004b58 l     F .text	00000054 sbrk_aligned
00000000 l    df *ABS*	00000000 lib_a-nano-vfprintf.o
00004cae l     F .text	00000028 __sfputc_r
00000000 l    df *ABS*	00000000 lib_a-sbrkr.o
00000000 l    df *ABS*	00000000 lib_a-stdio.o
00000000 l    df *ABS*	00000000 lib_a-writer.o
00000000 l    df *ABS*	00000000 lib_a-closer.o
00000000 l    df *ABS*	00000000 lib_a-fstatr.o
00000000 l    df *ABS*	00000000 lib_a-isattyr.o
00000000 l    df *ABS*	00000000 lib_a-lseekr.o
00000000 l    df *ABS*	00000000 lib_a-memchr.o
00000000 l    df *ABS*	00000000 lib_a-mlock.o
00000000 l    df *ABS*	00000000 lib_a-nano-vfprintf_i.o
00000000 l    df *ABS*	00000000 lib_a-readr.o
00000000 l    df *ABS*	00000000 close.o
00000000 l    df *ABS*	00000000 fstat.o
00000000 l    df *ABS*	00000000 isatty.o
00000000 l    df *ABS*	00000000 lseek.o
00000000 l    df *ABS*	00000000 read.o
00000000 l    df *ABS*	00000000 lib_a-impure.o
20000e48 l     O .data	00000060 impure_data
0000423c g     F .text	00000026 putchar
000017f6 g     F .text	00000142 RF_2G4StatusCallBack
20000432 g     F .highcode	00000024 ll_rx_wait_finish
0000510e g     F .text	00000026 _isatty_r
2000042c g     F .highcode	00000006 BB_IRQLibFunction
00004318 g     F .text	00000104 _puts_r
00005134 g     F .text	0000002a _lseek_r
20000b8a g     F .highcode	0000000e FLASH_ROM_OUT
20000198 g     F .highcode	000001d8 TMOS_SystemProcess
00005878  w      .vector_handler	00000000 CMP_IRQHandler
20000ec8 g     O .bss	00000004 lsiFrq
20001e4c g     O .bss	00000004 l2capPsm
00004202 g     F .text	0000003a printf
200016a8 g       .data	00000000 __global_pointer$
00001f80 g     F .text	00000008 TMOS_ClockRegister
20001dd8 g     O .bss	00000001 gapRole_AdvEnabled
20001dd9 g     O .bss	00000001 gapRole_AdvChanMap
00005060 g     F .text	0000002e __sseek
00004854 g     F .text	00000068 __sinit
00004424 g     F .text	000000bc __swbuf_r
20000a1e  w    F .highcode	00000084 HardFault_Handler
000047f6 g     F .text	00000046 __sfmoreglue
0000517e g     F .text	00000008 __malloc_unlock
00001452 g     F .text	00000078 HAL_ProcessEvent
20001dda g     O .bss	00000001 gapRole_AdvEventType
00005878  w      .vector_handler	00000000 GPIOA_IRQHandler
20001da8 g     O .bss	00000004 gptrBBReg
00002046 g     F .text	0000002c TMOS_ProcessEventRegister
00005878  w      .vector_handler	00000000 SysTick_Handler
00001e7e g     F .text	000000ec tmos_idle
20001dd0 g     O .bss	00000001 gTuneFilter2M
00002340 g     F .text	0000000a ip_register_task_rf
00005878  w      .vector_handler	00000000 NMI_Handler
00005878  w      .vector_handler	00000000 UART_IRQHandler
20001e50 g     O .bss	00000001 l2capTaskID
20000118 g     F .highcode	00000032 tmos_memset
0000231c g     F .text	00000024 ble_ll_set_timeout
200004d0 g     F .highcode	000000ec ll_tx_wait_finish
00005e58 g     F .highcode_lp	00000046 BB_DevInit
000050e6 g     F .text	00000028 _fstat_r
00005928 g     F .highcode_fast	00000030 tmos_strlen
20000ad8 g     F .highcode	00000022 RF_Wait_Tx_End
20000456 g     F .highcode	0000007a ble_ll_chkcrc
00005990 g     F .highcode_fast	00000042 tmos_isbufset
20000ef8 g     O .bss	00000004 errno
20000c4e g     F .highcode	00000060 FLASH_CMD_ROM_WRITE
20000ebc g       .bss	00000000 _sbss
00002ede g     F .text	0000006c RF_Shut
20000b7c g     F .highcode	0000000e FLASH_ROM_IN
00005668 g     O .text	0000001a VER_LIB
00002284 g     F .text	00000098 tmos_snv_init
000013b2 g     F .text	00000032 UART_DefInit
00002e68 g     F .text	00000076 RFFH_ProcessEvent
00000f1c g     F .text	00000050 HSECFG_Capacitance
20001d24 g     O .bss	00000020 gTmosPara
20001e54 g     O .bss	00000004 pL2capData
00000ef6 g     F .text	00000016 memcpy
000047ec g     F .text	0000000a _cleanup_r
20001ddb g     O .bss	00000001 gapRole_PHYTx
20001e58 g     O .bss	00000010 l2capChannels
0000441c g     F .text	00000008 puts
20001e40 g     O .bss	00000004 MemCtlEnd
00005878  w      .vector_handler	00000000 SWI_Handler
0000553e g     F .text	0000000c _fstat
00000004 g       .init	00000000 _einit
20001d44 g     O .bss	00000004 tasksArr
20001e44 g     O .bss	00000004 MemCtlPartition
20001ddc g     O .bss	00000006 gapRole_AdvDirectAddr
200003a2 g     F .highcode	0000008a BB_IRQLibHandler
200005bc g     F .highcode	00000138 LLE_IRQLibHandler
20001d48 g     O .bss	00000004 pfnProcessCBs
00005878  w      .vector_handler	00000000 BB_IRQHandler
00001a14 g     F .text	00000136 FLASH_EEPROM_CMD
00003dd2 g     F .text	00000010 RFEND_TXFtune
00005878  w      .vector_handler	00000000 Break_Point_Handler
0000300c g     F .text	000000a0 RFEND_RXFilter
20000c18 g     F .highcode	00000036 FLASH_START
00001422 g     F .text	00000030 Lib_Write_Flash
00004fc8 g     F .text	00000028 _sbrk_r
20001de2 g     O .bss	00000001 gapRole_PHYRx
20001dd1 g     O .bss	00000001 gTuneFilter
00005d86 g     F .highcode_fast	000000d2 tmos_memory_allocate
00005508 g     F .text	0000002a _read_r
20000b5a g     F .highcode	00000014 FLASH_ROM_BEG
00005958 g     F .highcode_fast	00000038 tmos_revmemcpy
0000589a g     F .highcode_fast	0000008e TMOS_CB_PeriodicProcessEvent
20000cae g     F .highcode	00000072 FLASH_CMD_ROM_ERASE
00005878  w      .vector_handler	00000000 Ecall_M_Mode_Handler
20001dc4 g     O .bss	00000001 tmosSign
20001de4 g     O .bss	00000010 gapRole_OldSRK
0000554a g     F .text	0000000c _isatty
20000eec g     O .bss	00000001 __lock___sinit_recursive_mutex
20000eb8 g     O .data	00000004 _global_impure_ptr
20000b98 g     F .highcode	00000048 FLASH_ROM_ADDR
00003e68 g     F .text	0000039a .hidden __udivdi3
00001356 g     F .text	0000002c _sbrk
20001df4 g     O .bss	00000002 gapRole_MinConnInterval
20000ec4 g     O .bss	00000001 halTaskID
20001d94 g     O .bss	00000014 bleClock_t
20000b1c g     F .highcode	0000000a Main_Circulation
20001d4c g     O .bss	00000004 fnGetClockCBs
00002072 g     F .text	000000f0 BLE_LibInit
00005ef2 g     F .highcode_lp	00000064 LLE_DevInit
00005b9c g     F .highcode_fast	00000070 BLE_SetPHYTxMode
20001e48 g     O .bss	00000004 MemCtlStart
20000ece g     O .bss	00000001 taskID
00005f56 g     F .highcode_lp	00000032 RFEND_WaitTune
0000270a g     F .text	0000011a RF_Config
00002824 g     F .text	00000168 RF_Tx
00005ad8 g     F .highcode_fast	00000046 tmos_set_event
20000ac8 g     F .highcode	00000010 RTC_IRQHandler
20001f00 g       .bss	00000000 _ebss
00005878  w      .vector_handler	00000000 SPI_IRQHandler
00001230 g     F .text	0000001c FLASH_ROM_READ
20000ee4 g     O .bss	00000001 __lock___malloc_recursive_mutex
00001618 g     F .text	0000002a HAL_Init
20000be0 g     F .highcode	00000038 FLASH_ROM_WAIT
000013e4 g     F .text	00000028 UART_Remap
00005cee g     F .highcode_fast	00000044 ble_ll_hw_api_shut
00004262 g     F .text	000000b6 _putc_r
20001efc g     O .bss	00000004 gptrAESReg
00002f8e g     F .text	0000007e RFEND_DevInit
20001df8 g     O .bss	00000004 gapRole_state
00005784 g     O .text	00000020 __sf_fake_stderr
20000000 g       .highcode	00000000 _vector_base
000049ce g     F .text	00000002 __retarget_lock_release_recursive
00005878  w      .vector_handler	00000000 PWMX_IRQHandler
20001d20 g     O .bss	00000004 msg_qHead
00005c0c g     F .highcode_fast	000000e2 BLE_SetPHYRxMode
00004cd6 g     F .text	00000040 __sfputs_r
0000483c g     F .text	00000006 __sfp_lock_acquire
0000515e g     F .text	00000018 memchr
00004aba g     F .text	0000009e _free_r
20001e68 g     O .bss	00000001 l2capId
00000000 g       .init	00000000 _start
00005b1e g     F .highcode_fast	0000007e tmos_update_periodic_callback_timer
20000e3c g     O .data	0000000a TX_DATA
0000298c g     F .text	000001fc RF_Rx
00005556 g     F .text	0000000c _lseek
000023b8 g     F .text	00000076 BLE_IPCoreInit
20000000 g       .highcode	00000000 _highcode_vma_start
20001d50 g     O .bss	00000004 EventsArr
20001dfc g     O .bss	00000001 gapRole_AdvDirectType
20001e69 g     O .bss	00000001 l2capNumChannels
000050c0 g     F .text	00000026 _close_r
00005878  w      .vector_handler	00000000 KEYSCAN_IRQHandler
20000e3c g       .data	00000000 _data_vma
00005e9e g     F .highcode_lp	00000054 LLE_DevSetMode
20001dd4 g     O .bss	00000004 gptrRFENDReg
200007de g     F .highcode	00000240 SetSysClock
20001e6a g     O .bss	00000001 l2capNumRecvDataPkts
00005878  w      .vector_handler	00000000 USB_IRQHandler
20001ea4 g     O .bss	00000058 gBleLlPara
000044e0 g     F .text	000000ee __swsetup_r
20000de2 g     F .highcode	0000003e FLASH_CMD_GET_UNIQUE_ID
000048bc g     F .text	000000a6 __sfp
20000d70 g     F .highcode	00000012 FLASH_CMD_ROM_PWR
0000484e g     F .text	00000006 __sinit_lock_release
20001dfe g     O .bss	00000002 gapRole_MaxConnInterval
20001e00 g     O .bss	00000010 gapRole_IRK
00004ff0 g     F .text	0000002a __sread
00005176 g     F .text	00000008 __malloc_lock
20000efc g     O .bss	00000e00 MEM_BUF
00004700 g     F .text	00000086 _fflush_r
00003de2 g     F .text	00000024 tmos_memory_getlen
000057c4 g     O .text	00000020 __sf_fake_stdin
000049cc g     F .text	00000002 __retarget_lock_acquire_recursive
2000014a g     F .highcode	0000004e tmos_memcmp
00005878  w      .vector_handler	00000000 I2C_IRQHandler
00000f0c g     F .text	00000010 memset
20001dc8 g     O .bss	00000004 gptrLLEReg
000019b8 g     F .text	0000005c main
00001c24 g     F .text	00000068 TMOS_CB_ProcessEvent
000049ca g     F .text	00000002 __retarget_lock_init_recursive
0000508e g     F .text	00000006 __sclose
00002f4a g     F .text	00000044 RF_RoleInit
00000f6c g     F .text	000000cc RTC_InitClock
00004bac g     F .text	00000102 _malloc_r
20001e10 g     O .bss	00000010 gapRole_SRK
200006fa g     F .highcode	000000e4 tmos_memory_free
0000234a g     F .text	0000006e BLE_RegInit
00001f88 g     F .text	000000be TMOS_Init
00001cd2 g     F .text	00000140 tmos_start_task
00001642 g     F .text	000000fc HAL_TimeInit
0000173e g     F .text	000000b8 RF_ProcessEvent
00000004 g       .highcodelalign	00000000 _highcode_lma
00001938 g     F .text	00000080 RF_Init
00004202 g     F .text	0000003a iprintf
00001e12 g     F .text	0000006c tmos_stop_task
00005684 g     O .text	00000100 .hidden __clz_tab
00005878  w      .vector_handler	00000000 LLE_IRQHandler
00000000 g       .init	00000000 _sinit
20000afa g     F .highcode	00000022 RF_Wait_Rx_End
00005094 g     F .text	0000002c _write_r
20000e20 g     F .highcode	0000001a FLASH_CMD_ROM_SW_RESET
00005878  w      .vector_handler	00000000 TMR_IRQHandler
20001d54 g     O .bss	00000004 taskHead
00005186 g     F .text	0000010a _printf_common
20000eb0 g     O .data	00000004 _impure_ptr
000045ce g     F .text	00000132 __sflush_r
00003e06 g     F .text	00000062 tmos_memory_init
20001e20 g     O .bss	00000001 gapRole_profileRole
20000ebc g     O .bss	00000004 Freq_LSI
000030ac g     F .text	00000036 RFEND_RXAdc
000014ca g     F .text	0000014e CH57x_BLEInit
000024f6 g     F .text	00000014 rf_stop
00005878  w      .vector_handler	00000000 WDOG_BAT_IRQHandler
00005878  w      .vector_handler	00000000 Ecall_U_Mode_Handler
20001e21 g     O .bss	00000001 gapRole_TaskID
20000ecd g     O .bss	00000001 tx_end_flag
20003000 g       .stack	00000000 _eusrstack
000059d2 g     F .highcode_fast	00000106 tmos_start_periodic_callback_task
20001e24 g     O .bss	00000010 gapRole_OldIRK
0000124c g     F .text	00000082 GPIOA_ModeCfg
20001e6c g     O .bss	00000002 l2capMtuSize
20001d58 g     O .bss	00000034 ble
20001e34 g     O .bss	00000001 gapRole_AdvFilterPolicy
000049d0 g     F .text	00000058 __swhatbuf_r
000012ce g     F .text	0000005a GetSysClock
20000b26 g     F .highcode	00000034 FLASH_ROM_BEG_FF
20000d82 g     F .highcode	00000060 FLASH_CMD_GET_ROM_INFO
00001330 g     F .text	00000026 _write
20000ebc g       .data	00000000 _edata
20001e70 g     O .bss	00000030 l2capFixedChannels
20001f00 g       .bss	00000000 _end
20001e38 g     O .bss	00000006 gapRole_bdAddr
0000242e g     F .text	0000000e TMOS_SysRegister
00001b4a g     F .text	00000052 tmos_msg_deallocate
20000e3c g       .highcode	00000000 _highcode_vma_end
20000090 g     F .highcode	0000004a tmos_rand
20001d8c g     O .bss	00000004 cbTimersHead
00005f88 g       .dlalign	00000000 _data_lma
00001c8c g     F .text	00000046 tmos_clear_event
20000ecc g     O .bss	00000001 rx_end_flag
0000501a g     F .text	00000046 __swrite
00004d16 g     F .text	000002b2 _vfiprintf_r
00004962 g     F .text	00000068 _fwalk_reent
0000140c g     F .text	00000016 Lib_Read_Flash
00005d32 g     F .highcode_fast	00000054 phy_status_clear
200000da g     F .highcode	0000003e tmos_memcpy
20001dac g     O .bss	00000018 gBleIPPara
00004842 g     F .text	00000006 __sfp_lock_release
000057a4 g     O .text	00000020 __sf_fake_stdout
00001328 g     F .text	00000008 SYS_GetSysTickCnt
00005562 g     F .text	0000000c _read
00000e40  w      .text	00000000 handle_reset
000030e2 g     F .text	00000cf0 RFEND_TXCtune
00004a28 g     F .text	00000092 __smakebuf_r
200006f4 g     F .highcode	00000006 LLE_IRQFIOFHandler
00005290 g     F .text	00000278 _printf_i
00001038 g     F .text	000001f8 RTC_InitTime
20000ef0 g     O .bss	00000004 __malloc_sbrk_start
00001382 g     F .text	00000030 UART_BaudRateCfg
20000b6e g     F .highcode	0000000e FLASH_ROM_END
00001b9c g     F .text	00000082 tmos_msg_receive
00001f6a g     F .text	00000016 TMOS_TimerRegister
20000ef4 g     O .bss	00000004 __malloc_free_list
00004d16 g     F .text	000002b2 _vfprintf_r
20001dcc g     O .bss	00000004 pfnHandle
000021d4 g     F .text	000000b0 TMOS_TimerInit
20000ec0 g     O .bss	00000004 g_LLE_IRQLibHandlerLocation
20001d90 g     O .bss	00000004 pfnTimerCBs
00001c1e g     F .text	00000006 tmos_msg_init
20000d20 g     F .highcode	00000050 FLASH_CMD_ROM_VERIFY
20001ea0 g     O .bss	00000001 l2capNumDataPkts
0000243c g     F .text	000000ba RF_DevSetChannel
20000ee8 g     O .bss	00000001 __lock___sfp_recursive_mutex
00005532 g     F .text	0000000c _close
00004848 g     F .text	00000006 __sinit_lock_acquire



Disassembly of section .init:

00000000 <_sinit>:
_start():
F:/private/nanoCH57x-private/doc/CH572EVT/EVT/EXAM/SRC/Startup/startup_CH572.S:18
	.section	.init,"ax",@progbits
	.global	_start
 	.global	_vector_base
	.align	1
_start:
	j	handle_reset
   0:	6410006f          	j	e40 <handle_reset>

Disassembly of section .highcode:

20000000 <_highcode_vma_start>:
	...
_vector_base():
20000008:	00005878          	.word	0x00005878
2000000c:	20000a1e          	.word	0x20000a1e
20000010:	f3f9bda9          	.word	0xf3f9bda9
20000014:	00005878          	.word	0x00005878
	...
20000020:	00005878          	.word	0x00005878
20000024:	00005878          	.word	0x00005878
	...
20000030:	00005878          	.word	0x00005878
20000034:	00000000          	.word	0x00000000
20000038:	00005878          	.word	0x00005878
	...
20000044:	00005878          	.word	0x00005878
20000048:	00000000          	.word	0x00000000
2000004c:	00005878          	.word	0x00005878
20000050:	00005878          	.word	0x00005878
20000054:	00005878          	.word	0x00005878
20000058:	00005878          	.word	0x00005878
2000005c:	00000000          	.word	0x00000000
20000060:	00005878          	.word	0x00005878
	...
2000006c:	00005878          	.word	0x00005878
20000070:	20000ac8          	.word	0x20000ac8
20000074:	00005878          	.word	0x00005878
20000078:	00005878          	.word	0x00005878
2000007c:	00005878          	.word	0x00005878
20000080:	00000000          	.word	0x00000000
20000084:	00005878          	.word	0x00005878
20000088:	00000000          	.word	0x00000000
2000008c:	00005878          	.word	0x00005878

20000090 <tmos_rand>:
tmos_rand():
20000090:	6b018793          	.word	0x6b018793
20000094:	1141539c          	.word	0x1141539c
20000098:	c606c422          	.word	0xc606c422
2000009c:	80418413          	.word	0x80418413
200000a0:	9782c799          	.word	0x9782c799
200000a4:	953e401c          	.word	0x953e401c
200000a8:	80a1a223          	.word	0x80a1a223
200000ac:	8793a029          	.word	0x8793a029
200000b0:	439c6a41          	.word	0x439c6a41
200000b4:	4008f7fd          	.word	0x4008f7fd
200000b8:	000347b7          	.word	0x000347b7
200000bc:	3fd78793          	.word	0x3fd78793
200000c0:	02f50533          	.word	0x02f50533
200000c4:	0026a7b7          	.word	0x0026a7b7
200000c8:	ec378793          	.word	0xec378793
200000cc:	442240b2          	.word	0x442240b2
200000d0:	a223953e          	.word	0xa223953e
200000d4:	014180a1          	.word	0x014180a1
200000d8:	           	Address 0x00000000200000d8 is out of bounds.


200000da <tmos_memcpy>:
tmos_memcpy():
200000da:	e000e7b7          	.word	0xe000e7b7
200000de:	06b74398          	.word	0x06b74398
200000e2:	a0230020          	.word	0xa0230020
200000e6:	8f7518d7          	.word	0x8f7518d7
200000ea:	0000100f          	.word	0x0000100f
200000ee:	c199c501          	.word	0xc199c501
200000f2:	e6114781          	.word	0xe6114781
200000f6:	e000e7b7          	.word	0xe000e7b7
200000fa:	10e7a023          	.word	0x10e7a023
200000fe:	86b38082          	.word	0x86b38082
20000102:	c80300f5          	.word	0xc80300f5
20000106:	06b30006          	.word	0x06b30006
2000010a:	078500f5          	.word	0x078500f5
2000010e:	01068023          	.word	0x01068023
20000112:	fef617e3          	.word	0xfef617e3
20000116:	           	Address 0x0000000020000116 is out of bounds.


20000118 <tmos_memset>:
tmos_memset():
20000118:	e000e737          	.word	0xe000e737
2000011c:	06b7431c          	.word	0x06b7431c
20000120:	20230020          	.word	0x20230020
20000124:	8ff518d7          	.word	0x8ff518d7
20000128:	0000100f          	.word	0x0000100f
2000012c:	0733c501          	.word	0x0733c501
20000130:	e61100c5          	.word	0xe61100c5
20000134:	e000e737          	.word	0xe000e737
20000138:	10f72023          	.word	0x10f72023
2000013c:	05058082          	.word	0x05058082
20000140:	feb50fa3          	.word	0xfeb50fa3
20000144:	fee51de3          	.word	0xfee51de3
20000148:	           	Address 0x0000000020000148 is out of bounds.


2000014a <tmos_memcmp>:
tmos_memcmp():
2000014a:	e000e737          	.word	0xe000e737
2000014e:	06b7431c          	.word	0x06b7431c
20000152:	20230020          	.word	0x20230020
20000156:	8ff518d7          	.word	0x8ff518d7
2000015a:	0000100f          	.word	0x0000100f
2000015e:	c199c501          	.word	0xc199c501
20000162:	ea114701          	.word	0xea114701
20000166:	e000e737          	.word	0xe000e737
2000016a:	10f72023          	.word	0x10f72023
2000016e:	80824505          	.word	0x80824505
20000172:	09e30705          	.word	0x09e30705
20000176:	0833fee6          	.word	0x0833fee6
2000017a:	86b300e5          	.word	0x86b300e5
2000017e:	480300e5          	.word	0x480300e5
20000182:	c6830008          	.word	0xc6830008
20000186:	05e30006          	.word	0x05e30006
2000018a:	e737fed8          	.word	0xe737fed8
2000018e:	2023e000          	.word	0x2023e000
20000192:	450110f7          	.word	0x450110f7
20000196:	           	Address 0x0000000020000196 is out of bounds.


20000198 <TMOS_SystemProcess>:
TMOS_SystemProcess():
20000198:	d2267179          	.word	0xd2267179
2000019c:	6a018493          	.word	0x6a018493
200001a0:	d606d422          	.word	0xd606d422
200001a4:	ce4ed04a          	.word	0xce4ed04a
200001a8:	ca56cc52          	.word	0xca56cc52
200001ac:	c65ec85a          	.word	0xc65ec85a
200001b0:	409c8426          	.word	0x409c8426
200001b4:	8793e3cd          	.word	0x8793e3cd
200001b8:	43986a81          	.word	0x43986a81
200001bc:	67d1c603          	.word	0x67d1c603
200001c0:	8a1384be          	.word	0x8a1384be
200001c4:	c78367c1          	.word	0xc78367c1
200001c8:	969367c1          	.word	0x969367c1
200001cc:	96ba0017          	.word	0x96ba0017
200001d0:	0006d683          	.word	0x0006d683
200001d4:	c783c2d9          	.word	0xc783c2d9
200001d8:	e86367c1          	.word	0xe86367c1
200001dc:	8e2308c7          	.word	0x8e2308c7
200001e0:	401c6601          	.word	0x401c6601
200001e4:	0e079163          	.word	0x0e079163
200001e8:	6a418913          	.word	0x6a418913
200001ec:	00092783          	.word	0x00092783
200001f0:	0c078b63          	.word	0x0c078b63
200001f4:	6ac18793          	.word	0x6ac18793
200001f8:	06634380          	.word	0x06634380
200001fc:	84930c04          	.word	0x84930c04
20000200:	40dc6ec1          	.word	0x40dc6ec1
20000204:	01c9c9b7          	.word	0x01c9c9b7
20000208:	a2234b01          	.word	0xa2234b01
2000020c:	899368f1          	.word	0x899368f1
20000210:	8a9337f9          	.word	0x8a9337f9
20000214:	57836b01          	.word	0x57836b01
20000218:	e7e10024          	.word	0xe7e10024
2000021c:	1f63445c          	.word	0x1f63445c
20000220:	a6230a0b          	.word	0xa6230a0b
20000224:	2b836af1          	.word	0x2b836af1
20000228:	852200c4          	.word	0x852200c4
2000022c:	845e21f9          	.word	0x845e21f9
20000230:	8793f07d          	.word	0x8793f07d
20000234:	53dc6b01          	.word	0x53dc6b01
20000238:	5422c7d9          	.word	0x5422c7d9
2000023c:	549250b2          	.word	0x549250b2
20000240:	49f25902          	.word	0x49f25902
20000244:	4ad24a62          	.word	0x4ad24a62
20000248:	4bb24b42          	.word	0x4bb24b42
2000024c:	23176145          	.word	0x23176145
20000250:	0067e000          	.word	0x0067e000
20000254:	9782c303          	.word	0x9782c303
20000258:	0785bfa9          	.word	0x0785bfa9
2000025c:	0ff7f793          	.word	0x0ff7f793
20000260:	66f18e23          	.word	0x66f18e23
20000264:	f6c7e1e3          	.word	0xf6c7e1e3
20000268:	0786b7bd          	.word	0x0786b7bd
2000026c:	5583973e          	.word	0x5583973e
20000270:	10230007          	.word	0x10230007
20000274:	91230007          	.word	0x91230007
20000278:	87936801          	.word	0x87936801
2000027c:	439c69c1          	.word	0x439c69c1
20000280:	67c1c503          	.word	0x67c1c503
20000284:	00251713          	.word	0x00251713
20000288:	439c97ba          	.word	0x439c97ba
2000028c:	c7039782          	.word	0xc7039782
20000290:	179367c1          	.word	0x179367c1
20000294:	40980017          	.word	0x40980017
20000298:	5783973e          	.word	0x5783973e
2000029c:	c793006a          	.word	0xc793006a
200002a0:	8d7dfff7          	.word	0x8d7dfff7
200002a4:	00075783          	.word	0x00075783
200002a8:	10238d5d          	.word	0x10238d5d
200002ac:	c78300a7          	.word	0xc78300a7
200002b0:	c78167c1          	.word	0xc78167c1
200002b4:	8e230785          	.word	0x8e230785
200002b8:	c70366f1          	.word	0xc70366f1
200002bc:	c78367c1          	.word	0xc78367c1
200002c0:	7ee367d1          	.word	0x7ee367d1
200002c4:	50b2f0f7          	.word	0x50b2f0f7
200002c8:	54925422          	.word	0x54925422
200002cc:	49f25902          	.word	0x49f25902
200002d0:	4ad24a62          	.word	0x4ad24a62
200002d4:	4bb24b42          	.word	0x4bb24b42
200002d8:	80826145          	.word	0x80826145
200002dc:	00fb2623          	.word	0x00fb2623
200002e0:	2783b799          	.word	0x2783b799
200002e4:	97820009          	.word	0x97820009
200002e8:	0733441c          	.word	0x0733441c
200002ec:	756340f5          	.word	0x756340f5
200002f0:	40d800f5          	.word	0x40d800f5
200002f4:	972a8f1d          	.word	0x972a8f1d
200002f8:	02e9eb63          	.word	0x02e9eb63
200002fc:	00245583          	.word	0x00245583
20000300:	00044503          	.word	0x00044503
20000304:	e0005097          	.word	0xe0005097
20000308:	7d4080e7          	.word	0x7d4080e7
2000030c:	87e3405c          	.word	0x87e3405c
20000310:	4410f007          	.word	0x4410f007
20000314:	97b240d4          	.word	0x97b240d4
20000318:	e463873e          	.word	0xe463873e
2000031c:	e46300c7          	.word	0xe46300c7
20000320:	873300d7          	.word	0x873300d7
20000324:	c41840d7          	.word	0xc41840d7
20000328:	44408b22          	.word	0x44408b22
2000032c:	a703b711          	.word	0xa703b711
20000330:	db7d024a          	.word	0xdb7d024a
20000334:	02a7eb63          	.word	0x02a7eb63
20000338:	40a78533          	.word	0x40a78533
2000033c:	00044783          	.word	0x00044783
20000340:	c703ef91          	.word	0xc703ef91
20000344:	17516c61          	.word	0x17516c61
20000348:	00a707b3          	.word	0x00a707b3
2000034c:	40d4853e          	.word	0x40d4853e
20000350:	00e7e463          	.word	0x00e7e463
20000354:	00d7e463          	.word	0x00d7e463
20000358:	40d78533          	.word	0x40d78533
2000035c:	008a2783          	.word	0x008a2783
20000360:	fcf574e3          	.word	0xfcf574e3
20000364:	68a1a223          	.word	0x68a1a223
20000368:	40d8b7c1          	.word	0x40d8b7c1
2000036c:	b7e997ba          	.word	0xb7e997ba

20000370 <clockGetHSEValue>:
clockGetHSEValue():
20000370:	4000c737          	.word	0x4000c737
20000374:	20c72683          	.word	0x20c72683
20000378:	fffc07b7          	.word	0xfffc07b7
2000037c:	8ff517fd          	.word	0x8ff517fd
20000380:	20f72623          	.word	0x20f72623
20000384:	0000100f          	.word	0x0000100f
20000388:	67c18793          	.word	0x67c18793
2000038c:	27834bc8          	.word	0x27834bc8
20000390:	26232687          	.word	0x26232687
20000394:	056a20d7          	.word	0x056a20d7
20000398:	fff7c793          	.word	0xfff7c793
2000039c:	8d5d8399          	.word	0x8d5d8399
200003a0:	           	Address 0x00000000200003a0 is out of bounds.


200003a2 <BB_IRQLibHandler>:
BB_IRQLibHandler():
200003a2:	70018713          	.word	0x70018713
200003a6:	11414314          	.word	0x11414314
200003aa:	42bcc422          	.word	0x42bcc422
200003ae:	843ac606          	.word	0x843ac606
200003b2:	8b858399          	.word	0x8b858399
200003b6:	0793c3a1          	.word	0x0793c3a1
200003ba:	c2bc0600          	.word	0xc2bc0600
200003be:	7041c783          	.word	0x7041c783
200003c2:	0407f793          	.word	0x0407f793
200003c6:	8793cf99          	.word	0x8793cf99
200003ca:	439c6ec1          	.word	0x439c6ec1
200003ce:	a8239782          	.word	0xa8239782
200003d2:	879370a1          	.word	0x879370a1
200003d6:	c7837041          	.word	0xc7837041
200003da:	f7930007          	.word	0xf7930007
200003de:	82230bf7          	.word	0x82230bf7
200003e2:	d78370f1          	.word	0xd78370f1
200003e6:	c79970c1          	.word	0xc79970c1
200003ea:	72018713          	.word	0x72018713
200003ee:	d37c4318          	.word	0xd37c4318
200003f2:	70019623          	.word	0x70019623
200003f6:	433c4018          	.word	0x433c4018
200003fa:	8b858391          	.word	0x8b858391
200003fe:	47c1cb81          	.word	0x47c1cb81
20000402:	8793c33c          	.word	0x8793c33c
20000406:	439c7201          	.word	0x439c7201
2000040a:	0607a223          	.word	0x0607a223
2000040e:	00002797          	.word	0x00002797
20000412:	aee78793          	.word	0xaee78793
20000416:	435c4398          	.word	0x435c4398
2000041a:	8b858385          	.word	0x8b858385
2000041e:	2223c399          	.word	0x2223c399
20000422:	40b20007          	.word	0x40b20007
20000426:	01414422          	.word	0x01414422
2000042a:	           	Address 0x000000002000042a is out of bounds.


2000042c <BB_IRQLibFunction>:
BB_IRQLibFunction():
2000042c:	00733f9d          	.word	0x00733f9d
20000430:	           	Address 0x0000000020000430 is out of bounds.


20000432 <ll_rx_wait_finish>:
ll_rx_wait_finish():
20000432:	700182a3          	.word	0x700182a3
20000436:	72018793          	.word	0x72018793
2000043a:	87134394          	.word	0x87134394
2000043e:	47837041          	.word	0x47837041
20000442:	8b850007          	.word	0x8b850007
20000446:	4783e799          	.word	0x4783e799
2000044a:	8b850017          	.word	0x8b850017
2000044e:	52fce399          	.word	0x52fce399
20000452:	8082f7fd          	.word	0x8082f7fd

20000456 <ble_ll_chkcrc>:
ble_ll_chkcrc():
20000456:	00154783          	.word	0x00154783
2000045a:	01079693          	.word	0x01079693
2000045e:	871382c1          	.word	0x871382c1
20000462:	cb910026          	.word	0xcb910026
20000466:	72018793          	.word	0x72018793
2000046a:	4bbc439c          	.word	0x4bbc439c
2000046e:	8b858395          	.word	0x8b858395
20000472:	8713c399          	.word	0x8713c399
20000476:	06930066          	.word	0x06930066
2000047a:	96aa0037          	.word	0x96aa0037
2000047e:	0006c603          	.word	0x0006c603
20000482:	47854805          	.word	0x47854805
20000486:	07f67613          	.word	0x07f67613
2000048a:	03061f63          	.word	0x03061f63
2000048e:	972ac591          	.word	0x972ac591
20000492:	00274783          	.word	0x00274783
20000496:	00f58023          	.word	0x00f58023
2000049a:	00154783          	.word	0x00154783
2000049e:	8793c78d          	.word	0x8793c78d
200004a2:	439c7201          	.word	0x439c7201
200004a6:	47814bb8          	.word	0x47814bb8
200004aa:	8b058315          	.word	0x8b058315
200004ae:	c703cf09          	.word	0xc703cf09
200004b2:	46850006          	.word	0x46850006
200004b6:	06f77613          	.word	0x06f77613
200004ba:	00d61963          	.word	0x00d61963
200004be:	87610762          	.word	0x87610762
200004c2:	00075363          	.word	0x00075363
200004c6:	853e47b9          	.word	0x853e47b9
200004ca:	47998082          	.word	0x47998082
200004ce:	           	Address 0x00000000200004ce is out of bounds.


200004d0 <ll_tx_wait_finish>:
ll_tx_wait_finish():
200004d0:	83231101          	.word	0x83231101
200004d4:	ca267001          	.word	0xca267001
200004d8:	700183a3          	.word	0x700183a3
200004dc:	6b018493          	.word	0x6b018493
200004e0:	c84a50dc          	.word	0xc84a50dc
200004e4:	cc22ce06          	.word	0xcc22ce06
200004e8:	892ac64e          	.word	0x892ac64e
200004ec:	85b2852e          	.word	0x85b2852e
200004f0:	e7b7c795          	.word	0xe7b7c795
200004f4:	0737e000          	.word	0x0737e000
200004f8:	a0230020          	.word	0xa0230020
200004fc:	f7b728e7          	.word	0xf7b728e7
20000500:	a703e000          	.word	0xa703e000
20000504:	9b6dd107          	.word	0x9b6dd107
20000508:	d0e7a823          	.word	0xd0e7a823
2000050c:	d107a703          	.word	0xd107a703
20000510:	03876713          	.word	0x03876713
20000514:	d0e7a823          	.word	0xd0e7a823
20000518:	10500073          	.word	0x10500073
2000051c:	89934785          	.word	0x89934785
20000520:	84137001          	.word	0x84137001
20000524:	15637201          	.word	0x15637201
20000528:	460106f9          	.word	0x460106f9
2000052c:	e0005097          	.word	0xe0005097
20000530:	6e0080e7          	.word	0x6e0080e7
20000534:	0009a783          	.word	0x0009a783
20000538:	83a1439c          	.word	0x83a1439c
2000053c:	e7a98b8d          	.word	0xe7a98b8d
20000540:	0713401c          	.word	0x0713401c
20000544:	d3f81960          	.word	0xd3f81960
20000548:	cb9950dc          	.word	0xcb9950dc
2000054c:	e000f737          	.word	0xe000f737
20000550:	d1072783          	.word	0xd1072783
20000554:	0087e793          	.word	0x0087e793
20000558:	d0f72823          	.word	0xd0f72823
2000055c:	10500073          	.word	0x10500073
20000560:	87134014          	.word	0x87134014
20000564:	47837041          	.word	0x47837041
20000568:	8b850027          	.word	0x8b850027
2000056c:	4783e799          	.word	0x4783e799
20000570:	8b850037          	.word	0x8b850037
20000574:	52fce399          	.word	0x52fce399
20000578:	40f2f7fd          	.word	0x40f2f7fd
2000057c:	44d24462          	.word	0x44d24462
20000580:	49b24942          	.word	0x49b24942
20000584:	80826105          	.word	0x80826105
20000588:	0713401c          	.word	0x0713401c
2000058c:	bf651be0          	.word	0xbf651be0
20000590:	e0005097          	.word	0xe0005097
20000594:	60c080e7          	.word	0x60c080e7
20000598:	0009a783          	.word	0x0009a783
2000059c:	010006b7          	.word	0x010006b7
200005a0:	8f554398          	.word	0x8f554398
200005a4:	5bd8c398          	.word	0x5bd8c398
200005a8:	dbd89b71          	.word	0xdbd89b71
200005ac:	f8091ee3          	.word	0xf8091ee3
200005b0:	700182a3          	.word	0x700182a3
200005b4:	4709401c          	.word	0x4709401c
200005b8:	b779c398          	.word	0xb779c398

200005bc <LLE_IRQLibHandler>:
LLE_IRQLibHandler():
200005bc:	72018793          	.word	0x72018793
200005c0:	4798439c          	.word	0x4798439c
200005c4:	8f7547d4          	.word	0x8f7547d4
200005c8:	1693c798          	.word	0x1693c798
200005cc:	da6300d7          	.word	0xda6300d7
200005d0:	56fd0006          	.word	0x56fd0006
200005d4:	8693d7b4          	.word	0x8693d7b4
200005d8:	4ad467c1          	.word	0x4ad467c1
200005dc:	a8230685          	.word	0xa8230685
200005e0:	769368d1          	.word	0x769368d1
200005e4:	ce990087          	.word	0xce990087
200005e8:	7061c683          	.word	0x7061c683
200005ec:	0016e693          	.word	0x0016e693
200005f0:	70d18323          	.word	0x70d18323
200005f4:	70018693          	.word	0x70018693
200005f8:	5a544290          	.word	0x5a544290
200005fc:	e6939af1          	.word	0xe6939af1
20000600:	da540016          	.word	0xda540016
20000604:	00177693          	.word	0x00177693
20000608:	c683ce99          	.word	0xc683ce99
2000060c:	e6937051          	.word	0xe6937051
20000610:	82a30016          	.word	0x82a30016
20000614:	869370d1          	.word	0x869370d1
20000618:	42907001          	.word	0x42907001
2000061c:	9af15a54          	.word	0x9af15a54
20000620:	0016e693          	.word	0x0016e693
20000624:	7693da54          	.word	0x7693da54
20000628:	ce9d0067          	.word	0xce9d0067
2000062c:	86938b11          	.word	0x86938b11
20000630:	85937041          	.word	0x85937041
20000634:	cf497001          	.word	0xcf497001
20000638:	43184198          	.word	0x43184198
2000063c:	8b0d8321          	.word	0x8b0d8321
20000640:	4ad8e749          	.word	0x4ad8e749
20000644:	00174703          	.word	0x00174703
20000648:	0713eb21          	.word	0x0713eb21
2000064c:	cfd80670          	.word	0xcfd80670
20000650:	0006c783          	.word	0x0006c783
20000654:	0017e793          	.word	0x0017e793
20000658:	70f18223          	.word	0x70f18223
2000065c:	5b5c4198          	.word	0x5b5c4198
20000660:	e7939bf1          	.word	0xe7939bf1
20000664:	db5c0017          	.word	0xdb5c0017
20000668:	71c1c783          	.word	0x71c1c783
2000066c:	8e23c3d9          	.word	0x8e23c3d9
20000670:	87937001          	.word	0x87937001
20000674:	439c7241          	.word	0x439c7241
20000678:	1141c3bd          	.word	0x1141c3bd
2000067c:	9782c606          	.word	0x9782c606
20000680:	71c18793          	.word	0x71c18793
20000684:	0007c783          	.word	0x0007c783
20000688:	0ff7f793          	.word	0x0ff7f793
2000068c:	a223e399          	.word	0xa223e399
20000690:	40b27201          	.word	0x40b27201
20000694:	80820141          	.word	0x80820141
20000698:	76134bb0          	.word	0x76134bb0
2000069c:	c6010206          	.word	0xc6010206
200006a0:	07500713          	.word	0x07500713
200006a4:	4605b76d          	.word	0x4605b76d
200006a8:	00c71563          	.word	0x00c71563
200006ac:	06b00713          	.word	0x06b00713
200006b0:	4609bf79          	.word	0x4609bf79
200006b4:	00c71563          	.word	0x00c71563
200006b8:	06f00713          	.word	0x06f00713
200006bc:	460dbf49          	.word	0x460dbf49
200006c0:	fec710e3          	.word	0xfec710e3
200006c4:	07300713          	.word	0x07300713
200006c8:	0713b759          	.word	0x0713b759
200006cc:	b7410760          	.word	0xb7410760
200006d0:	0036c783          	.word	0x0036c783
200006d4:	0017e793          	.word	0x0017e793
200006d8:	70f183a3          	.word	0x70f183a3
200006dc:	8793b741          	.word	0x8793b741
200006e0:	c78371c1          	.word	0xc78371c1
200006e4:	f7930007          	.word	0xf7930007
200006e8:	e7810ff7          	.word	0xe7810ff7
200006ec:	7201a223          	.word	0x7201a223
200006f0:	80828082          	.word	0x80828082

200006f4 <LLE_IRQFIOFHandler>:
LLE_IRQFIOFHandler():
200006f4:	007335e1          	.word	0x007335e1
200006f8:	           	Address 0x00000000200006f8 is out of bounds.


200006fa <tmos_memory_free>:
tmos_memory_free():
200006fa:	e000e7b7          	.word	0xe000e7b7
200006fe:	0737438c          	.word	0x0737438c
20000702:	a0230020          	.word	0xa0230020
20000706:	8df918e7          	.word	0x8df918e7
2000070a:	0000100f          	.word	0x0000100f
2000070e:	7a018793          	.word	0x7a018793
20000712:	0007a303          	.word	0x0007a303
20000716:	79818793          	.word	0x79818793
2000071a:	0007a883          	.word	0x0007a883
2000071e:	879a4681          	.word	0x879a4681
20000722:	0b17f663          	.word	0x0b17f663
20000726:	0007a803          	.word	0x0007a803
2000072a:	0af56763          	.word	0x0af56763
2000072e:	0aa86563          	.word	0x0aa86563
20000732:	00878713          	.word	0x00878713
20000736:	08e56c63          	.word	0x08e56c63
2000073a:	0067d603          	.word	0x0067d603
2000073e:	07056721          	.word	0x07056721
20000742:	00e61763          	.word	0x00e61763
20000746:	7c21c703          	.word	0x7c21c703
2000074a:	81230705          	.word	0x81230705
2000074e:	85137ce1          	.word	0x85137ce1
20000752:	d60367c1          	.word	0xd60367c1
20000756:	57030047          	.word	0x57030047
2000075a:	93230045          	.word	0x93230045
2000075e:	97320007          	.word	0x97320007
20000762:	83410742          	.word	0x83410742
20000766:	68e19023          	.word	0x68e19023
2000076a:	02678863          	.word	0x02678863
2000076e:	79c18313          	.word	0x79c18313
20000772:	00032303          	.word	0x00032303
20000776:	02f30263          	.word	0x02f30263
2000077a:	0066d303          	.word	0x0066d303
2000077e:	00031e63          	.word	0x00031e63
20000782:	0046d783          	.word	0x0046d783
20000786:	0106a023          	.word	0x0106a023
2000078a:	963e0721          	.word	0x963e0721
2000078e:	92230621          	.word	0x92230621
20000792:	902300c6          	.word	0x902300c6
20000796:	87b668e1          	.word	0x87b668e1
2000079a:	09634398          	.word	0x09634398
2000079e:	86930317          	.word	0x86930317
200007a2:	429479c1          	.word	0x429479c1
200007a6:	02d70463          	.word	0x02d70463
200007aa:	00675683          	.word	0x00675683
200007ae:	d683e285          	.word	0xd683e285
200007b2:	56030047          	.word	0x56030047
200007b6:	43180047          	.word	0x43180047
200007ba:	96b206a1          	.word	0x96b206a1
200007be:	00d79223          	.word	0x00d79223
200007c2:	5783c398          	.word	0x5783c398
200007c6:	07a10045          	.word	0x07a10045
200007ca:	68f19023          	.word	0x68f19023
200007ce:	e000e7b7          	.word	0xe000e7b7
200007d2:	10b7a023          	.word	0x10b7a023
200007d6:	86be8082          	.word	0x86be8082
200007da:	b79987c2          	.word	0xb79987c2

200007de <SetSysClock>:
SetSysClock():
F:/private/nanoCH57x-private/doc/CH572EVT/EVT/EXAM/SRC/StdPeriphDriver/CH57x_sys.c:31
{
    uint16_t clk_sys_cfg;
    uint8_t i;
    uint8_t x32M_c;

    if(sc == RB_CLK_SYS_MOD)  // LSI
200007de:	0c000793          	li	a5,192
F:/private/nanoCH57x-private/doc/CH572EVT/EVT/EXAM/SRC/StdPeriphDriver/CH57x_sys.c:26
{
200007e2:	1101                	addi	sp,sp,-32
F:/private/nanoCH57x-private/doc/CH572EVT/EVT/EXAM/SRC/StdPeriphDriver/CH57x_sys.c:31
    if(sc == RB_CLK_SYS_MOD)  // LSI
200007e4:	04f51463          	bne	a0,a5,2000082c <SetSysClock+0x4e>
__risc_v_disable_irq():
F:\private\nanoCH57x-private\doc\CH572EVT\EVT\EXAM\SRC\RVMSIS/core_riscv.h:154
 */
__attribute__((always_inline)) RV_STATIC_INLINE uint32_t __risc_v_disable_irq(void)
{
    uint32_t result;

    __asm volatile("csrrc %0, 0x800, %1" : \
200007e8:	08800793          	li	a5,136
200007ec:	8007b7f3          	csrrc	a5,0x800,a5
F:\private\nanoCH57x-private\doc\CH572EVT\EVT\EXAM\SRC\RVMSIS/core_riscv.h:156
                   "=r"(result): "r"(0x88) : "memory");
    return result & 0x88;
200007f0:	0887f793          	andi	a5,a5,136
SetSysClock():
F:/private/nanoCH57x-private/doc/CH572EVT/EVT/EXAM/SRC/StdPeriphDriver/CH57x_sys.c:33
    {
        sys_safe_access_enable();
200007f4:	c03e                	sw	a5,0(sp)
200007f6:	0000100f          	fence.i
200007fa:	400017b7          	lui	a5,0x40001
200007fe:	05700713          	li	a4,87
20000802:	04e78023          	sb	a4,64(a5) # 40001040 <_eusrstack+0x1fffe040>
20000806:	fa800713          	li	a4,-88
2000080a:	04e78023          	sb	a4,64(a5)
2000080e:	0000100f          	fence.i
F:/private/nanoCH57x-private/doc/CH572EVT/EVT/EXAM/SRC/StdPeriphDriver/CH57x_sys.c:34
        R8_CLK_SYS_CFG |= RB_CLK_SYS_MOD;
20000812:	2798                	lbu	a4,8(a5)
20000814:	0c076713          	ori	a4,a4,192
20000818:	a798                	sb	a4,8(a5)
F:/private/nanoCH57x-private/doc/CH572EVT/EVT/EXAM/SRC/StdPeriphDriver/CH57x_sys.c:35
        sys_safe_access_disable();
2000081a:	04078023          	sb	zero,64(a5)
2000081e:	4782                	lw	a5,0(sp)
__risc_v_enable_irq():
F:\private\nanoCH57x-private\doc\CH572EVT\EVT\EXAM\SRC\RVMSIS/core_riscv.h:138
    __asm volatile("csrrs %0, 0x800, %1" : \
20000820:	8007a7f3          	csrrs	a5,0x800,a5
SetSysClock():
F:/private/nanoCH57x-private/doc/CH572EVT/EVT/EXAM/SRC/StdPeriphDriver/CH57x_sys.c:86
            }
        }

        sys_safe_access_enable();
        R8_CLK_SYS_CFG = sc;
        sys_safe_access_disable();
20000824:	0000100f          	fence.i
F:/private/nanoCH57x-private/doc/CH572EVT/EVT/EXAM/SRC/StdPeriphDriver/CH57x_sys.c:88
    }
}
20000828:	6105                	addi	sp,sp,32
2000082a:	8082                	ret
F:/private/nanoCH57x-private/doc/CH572EVT/EVT/EXAM/SRC/StdPeriphDriver/CH57x_sys.c:39
        if(!(R8_HFCK_PWR_CTRL & RB_CLK_XT32M_PON))
2000082c:	400017b7          	lui	a5,0x40001
20000830:	27b8                	lbu	a4,10(a5)
20000832:	8b11                	andi	a4,a4,4
20000834:	eb69                	bnez	a4,20000906 <SetSysClock+0x128>
F:/private/nanoCH57x-private/doc/CH572EVT/EVT/EXAM/SRC/StdPeriphDriver/CH57x_sys.c:41
            x32M_c = R8_XT32M_TUNE;
20000836:	04e7c683          	lbu	a3,78(a5) # 4000104e <_eusrstack+0x1fffe04e>
__risc_v_disable_irq():
F:\private\nanoCH57x-private\doc\CH572EVT\EVT\EXAM\SRC\RVMSIS/core_riscv.h:154
    __asm volatile("csrrc %0, 0x800, %1" : \
2000083a:	08800713          	li	a4,136
SetSysClock():
F:/private/nanoCH57x-private/doc/CH572EVT/EVT/EXAM/SRC/StdPeriphDriver/CH57x_sys.c:41
2000083e:	0ff6f693          	zext.b	a3,a3
__risc_v_disable_irq():
F:\private\nanoCH57x-private\doc\CH572EVT\EVT\EXAM\SRC\RVMSIS/core_riscv.h:154
20000842:	80073673          	csrrc	a2,0x800,a4
F:\private\nanoCH57x-private\doc\CH572EVT\EVT\EXAM\SRC\RVMSIS/core_riscv.h:156
    return result & 0x88;
20000846:	08867613          	andi	a2,a2,136
SetSysClock():
F:/private/nanoCH57x-private/doc/CH572EVT/EVT/EXAM/SRC/StdPeriphDriver/CH57x_sys.c:42
            sys_safe_access_enable();
2000084a:	c232                	sw	a2,4(sp)
2000084c:	0000100f          	fence.i
20000850:	05700813          	li	a6,87
20000854:	05078023          	sb	a6,64(a5)
20000858:	fa800593          	li	a1,-88
2000085c:	04b78023          	sb	a1,64(a5)
20000860:	0000100f          	fence.i
F:/private/nanoCH57x-private/doc/CH572EVT/EVT/EXAM/SRC/StdPeriphDriver/CH57x_sys.c:43
            R8_XT32M_TUNE |= 0x03;
20000864:	04e7c603          	lbu	a2,78(a5)
20000868:	00366613          	ori	a2,a2,3
2000086c:	04c78723          	sb	a2,78(a5)
F:/private/nanoCH57x-private/doc/CH572EVT/EVT/EXAM/SRC/StdPeriphDriver/CH57x_sys.c:44
            R8_HFCK_PWR_CTRL |= RB_CLK_XT32M_PON;
20000870:	27b0                	lbu	a2,10(a5)
20000872:	00466613          	ori	a2,a2,4
20000876:	a7b0                	sb	a2,10(a5)
F:/private/nanoCH57x-private/doc/CH572EVT/EVT/EXAM/SRC/StdPeriphDriver/CH57x_sys.c:45
            sys_safe_access_disable();
20000878:	04078023          	sb	zero,64(a5)
2000087c:	4612                	lw	a2,4(sp)
__risc_v_enable_irq():
F:\private\nanoCH57x-private\doc\CH572EVT\EVT\EXAM\SRC\RVMSIS/core_riscv.h:138
    __asm volatile("csrrs %0, 0x800, %1" : \
2000087e:	80062673          	csrrs	a2,0x800,a2
SetSysClock():
F:/private/nanoCH57x-private/doc/CH572EVT/EVT/EXAM/SRC/StdPeriphDriver/CH57x_sys.c:45
20000882:	0000100f          	fence.i
F:/private/nanoCH57x-private/doc/CH572EVT/EVT/EXAM/SRC/StdPeriphDriver/CH57x_sys.c:46
            clk_sys_cfg = R8_CLK_SYS_CFG;
20000886:	2790                	lbu	a2,8(a5)
20000888:	0ff67613          	zext.b	a2,a2
__risc_v_disable_irq():
F:\private\nanoCH57x-private\doc\CH572EVT\EVT\EXAM\SRC\RVMSIS/core_riscv.h:154
    __asm volatile("csrrc %0, 0x800, %1" : \
2000088c:	80073773          	csrrc	a4,0x800,a4
F:\private\nanoCH57x-private\doc\CH572EVT\EVT\EXAM\SRC\RVMSIS/core_riscv.h:156
    return result & 0x88;
20000890:	08877713          	andi	a4,a4,136
SetSysClock():
F:/private/nanoCH57x-private/doc/CH572EVT/EVT/EXAM/SRC/StdPeriphDriver/CH57x_sys.c:47
            sys_safe_access_enable();
20000894:	c43a                	sw	a4,8(sp)
20000896:	0000100f          	fence.i
2000089a:	05078023          	sb	a6,64(a5)
2000089e:	04b78023          	sb	a1,64(a5)
200008a2:	0000100f          	fence.i
F:/private/nanoCH57x-private/doc/CH572EVT/EVT/EXAM/SRC/StdPeriphDriver/CH57x_sys.c:48
            R8_CLK_SYS_CFG |= 0xC0;
200008a6:	2798                	lbu	a4,8(a5)
200008a8:	0c076713          	ori	a4,a4,192
200008ac:	a798                	sb	a4,8(a5)
F:/private/nanoCH57x-private/doc/CH572EVT/EVT/EXAM/SRC/StdPeriphDriver/CH57x_sys.c:49
            sys_safe_access_disable();
200008ae:	04078023          	sb	zero,64(a5)
200008b2:	47a2                	lw	a5,8(sp)
__risc_v_enable_irq():
F:\private\nanoCH57x-private\doc\CH572EVT\EVT\EXAM\SRC\RVMSIS/core_riscv.h:138
    __asm volatile("csrrs %0, 0x800, %1" : \
200008b4:	8007a7f3          	csrrs	a5,0x800,a5
SetSysClock():
F:/private/nanoCH57x-private/doc/CH572EVT/EVT/EXAM/SRC/StdPeriphDriver/CH57x_sys.c:49
200008b8:	0000100f          	fence.i
200008bc:	47a5                	li	a5,9
F:/private/nanoCH57x-private/doc/CH572EVT/EVT/EXAM/SRC/StdPeriphDriver/CH57x_sys.c:52 (discriminator 3)
                __nop();
200008be:	0001                	nop
F:/private/nanoCH57x-private/doc/CH572EVT/EVT/EXAM/SRC/StdPeriphDriver/CH57x_sys.c:50 (discriminator 3)
            for(i=0; i<9; i++)
200008c0:	17fd                	addi	a5,a5,-1
200008c2:	0ff7f793          	zext.b	a5,a5
200008c6:	ffe5                	bnez	a5,200008be <SetSysClock+0xe0>
__risc_v_disable_irq():
F:\private\nanoCH57x-private\doc\CH572EVT\EVT\EXAM\SRC\RVMSIS/core_riscv.h:154
    __asm volatile("csrrc %0, 0x800, %1" : \
200008c8:	08800793          	li	a5,136
200008cc:	8007b7f3          	csrrc	a5,0x800,a5
F:\private\nanoCH57x-private\doc\CH572EVT\EVT\EXAM\SRC\RVMSIS/core_riscv.h:156
    return result & 0x88;
200008d0:	0887f793          	andi	a5,a5,136
SetSysClock():
F:/private/nanoCH57x-private/doc/CH572EVT/EVT/EXAM/SRC/StdPeriphDriver/CH57x_sys.c:54
            sys_safe_access_enable();
200008d4:	c63e                	sw	a5,12(sp)
200008d6:	0000100f          	fence.i
200008da:	400017b7          	lui	a5,0x40001
200008de:	05700713          	li	a4,87
200008e2:	04e78023          	sb	a4,64(a5) # 40001040 <_eusrstack+0x1fffe040>
200008e6:	fa800713          	li	a4,-88
200008ea:	04e78023          	sb	a4,64(a5)
200008ee:	0000100f          	fence.i
F:/private/nanoCH57x-private/doc/CH572EVT/EVT/EXAM/SRC/StdPeriphDriver/CH57x_sys.c:55
            R8_CLK_SYS_CFG = clk_sys_cfg;
200008f2:	a790                	sb	a2,8(a5)
F:/private/nanoCH57x-private/doc/CH572EVT/EVT/EXAM/SRC/StdPeriphDriver/CH57x_sys.c:56
            R8_XT32M_TUNE = x32M_c;
200008f4:	04d78723          	sb	a3,78(a5)
F:/private/nanoCH57x-private/doc/CH572EVT/EVT/EXAM/SRC/StdPeriphDriver/CH57x_sys.c:57
            sys_safe_access_disable();
200008f8:	04078023          	sb	zero,64(a5)
200008fc:	47b2                	lw	a5,12(sp)
__risc_v_enable_irq():
F:\private\nanoCH57x-private\doc\CH572EVT\EVT\EXAM\SRC\RVMSIS/core_riscv.h:138
    __asm volatile("csrrs %0, 0x800, %1" : \
200008fe:	8007a7f3          	csrrs	a5,0x800,a5
SetSysClock():
F:/private/nanoCH57x-private/doc/CH572EVT/EVT/EXAM/SRC/StdPeriphDriver/CH57x_sys.c:57
20000902:	0000100f          	fence.i
F:/private/nanoCH57x-private/doc/CH572EVT/EVT/EXAM/SRC/StdPeriphDriver/CH57x_sys.c:60
        if((sc & RB_CLK_SYS_MOD) == 0x40) // PLL div
20000906:	0c057793          	andi	a5,a0,192
2000090a:	04000713          	li	a4,64
2000090e:	08e79963          	bne	a5,a4,200009a0 <SetSysClock+0x1c2>
__risc_v_disable_irq():
F:\private\nanoCH57x-private\doc\CH572EVT\EVT\EXAM\SRC\RVMSIS/core_riscv.h:154
    __asm volatile("csrrc %0, 0x800, %1" : \
20000912:	08800793          	li	a5,136
20000916:	8007b7f3          	csrrc	a5,0x800,a5
F:\private\nanoCH57x-private\doc\CH572EVT\EVT\EXAM\SRC\RVMSIS/core_riscv.h:156
    return result & 0x88;
2000091a:	0887f793          	andi	a5,a5,136
SetSysClock():
F:/private/nanoCH57x-private/doc/CH572EVT/EVT/EXAM/SRC/StdPeriphDriver/CH57x_sys.c:62
            sys_safe_access_enable();
2000091e:	c83e                	sw	a5,16(sp)
20000920:	0000100f          	fence.i
20000924:	400017b7          	lui	a5,0x40001
20000928:	05700713          	li	a4,87
2000092c:	04e78023          	sb	a4,64(a5) # 40001040 <_eusrstack+0x1fffe040>
20000930:	fa800713          	li	a4,-88
20000934:	04e78023          	sb	a4,64(a5)
20000938:	0000100f          	fence.i
F:/private/nanoCH57x-private/doc/CH572EVT/EVT/EXAM/SRC/StdPeriphDriver/CH57x_sys.c:63
            R8_HFCK_PWR_CTRL |= RB_CLK_PLL_PON;
2000093c:	27b8                	lbu	a4,10(a5)
F:/private/nanoCH57x-private/doc/CH572EVT/EVT/EXAM/SRC/StdPeriphDriver/CH57x_sys.c:64
            R8_FLASH_CFG = 0X01;
2000093e:	4685                	li	a3,1
F:/private/nanoCH57x-private/doc/CH572EVT/EVT/EXAM/SRC/StdPeriphDriver/CH57x_sys.c:63
            R8_HFCK_PWR_CTRL |= RB_CLK_PLL_PON;
20000940:	01076713          	ori	a4,a4,16
20000944:	a7b8                	sb	a4,10(a5)
F:/private/nanoCH57x-private/doc/CH572EVT/EVT/EXAM/SRC/StdPeriphDriver/CH57x_sys.c:64
            R8_FLASH_CFG = 0X01;
20000946:	40002737          	lui	a4,0x40002
2000094a:	80d703a3          	sb	a3,-2041(a4) # 40001807 <_eusrstack+0x1fffe807>
F:/private/nanoCH57x-private/doc/CH572EVT/EVT/EXAM/SRC/StdPeriphDriver/CH57x_sys.c:65
            R8_FLASH_SCK |= 1<<4; //50M
2000094e:	80574683          	lbu	a3,-2043(a4)
20000952:	0106e693          	ori	a3,a3,16
20000956:	80d702a3          	sb	a3,-2043(a4)
F:/private/nanoCH57x-private/doc/CH572EVT/EVT/EXAM/SRC/StdPeriphDriver/CH57x_sys.c:66
            sys_safe_access_disable();
2000095a:	04078023          	sb	zero,64(a5)
2000095e:	47c2                	lw	a5,16(sp)
__risc_v_enable_irq():
F:\private\nanoCH57x-private\doc\CH572EVT\EVT\EXAM\SRC\RVMSIS/core_riscv.h:138
    __asm volatile("csrrs %0, 0x800, %1" : \
20000960:	8007a7f3          	csrrs	a5,0x800,a5
SetSysClock():
F:/private/nanoCH57x-private/doc/CH572EVT/EVT/EXAM/SRC/StdPeriphDriver/CH57x_sys.c:80
                sys_safe_access_disable();
20000964:	0000100f          	fence.i
__risc_v_disable_irq():
F:\private\nanoCH57x-private\doc\CH572EVT\EVT\EXAM\SRC\RVMSIS/core_riscv.h:154
    __asm volatile("csrrc %0, 0x800, %1" : \
20000968:	08800793          	li	a5,136
2000096c:	8007b7f3          	csrrc	a5,0x800,a5
F:\private\nanoCH57x-private\doc\CH572EVT\EVT\EXAM\SRC\RVMSIS/core_riscv.h:156
    return result & 0x88;
20000970:	0887f793          	andi	a5,a5,136
SetSysClock():
F:/private/nanoCH57x-private/doc/CH572EVT/EVT/EXAM/SRC/StdPeriphDriver/CH57x_sys.c:84
        sys_safe_access_enable();
20000974:	ce3e                	sw	a5,28(sp)
20000976:	0000100f          	fence.i
2000097a:	400017b7          	lui	a5,0x40001
2000097e:	05700713          	li	a4,87
20000982:	04e78023          	sb	a4,64(a5) # 40001040 <_eusrstack+0x1fffe040>
20000986:	fa800713          	li	a4,-88
2000098a:	04e78023          	sb	a4,64(a5)
2000098e:	0000100f          	fence.i
F:/private/nanoCH57x-private/doc/CH572EVT/EVT/EXAM/SRC/StdPeriphDriver/CH57x_sys.c:85
        R8_CLK_SYS_CFG = sc;
20000992:	0ff57513          	zext.b	a0,a0
20000996:	a788                	sb	a0,8(a5)
F:/private/nanoCH57x-private/doc/CH572EVT/EVT/EXAM/SRC/StdPeriphDriver/CH57x_sys.c:86
        sys_safe_access_disable();
20000998:	04078023          	sb	zero,64(a5)
2000099c:	47f2                	lw	a5,28(sp)
2000099e:	b549                	j	20000820 <SetSysClock+0x42>
F:/private/nanoCH57x-private/doc/CH572EVT/EVT/EXAM/SRC/StdPeriphDriver/CH57x_sys.c:70
            if((sc&0x1F) )
200009a0:	01f57793          	andi	a5,a0,31
200009a4:	cf9d                	beqz	a5,200009e2 <SetSysClock+0x204>
__risc_v_disable_irq():
F:\private\nanoCH57x-private\doc\CH572EVT\EVT\EXAM\SRC\RVMSIS/core_riscv.h:154
    __asm volatile("csrrc %0, 0x800, %1" : \
200009a6:	08800793          	li	a5,136
200009aa:	8007b7f3          	csrrc	a5,0x800,a5
F:\private\nanoCH57x-private\doc\CH572EVT\EVT\EXAM\SRC\RVMSIS/core_riscv.h:156
    return result & 0x88;
200009ae:	0887f793          	andi	a5,a5,136
SetSysClock():
F:/private/nanoCH57x-private/doc/CH572EVT/EVT/EXAM/SRC/StdPeriphDriver/CH57x_sys.c:72
                sys_safe_access_enable();
200009b2:	ca3e                	sw	a5,20(sp)
200009b4:	0000100f          	fence.i
200009b8:	400017b7          	lui	a5,0x40001
200009bc:	05700713          	li	a4,87
200009c0:	04e78023          	sb	a4,64(a5) # 40001040 <_eusrstack+0x1fffe040>
200009c4:	fa800713          	li	a4,-88
200009c8:	04e78023          	sb	a4,64(a5)
200009cc:	0000100f          	fence.i
F:/private/nanoCH57x-private/doc/CH572EVT/EVT/EXAM/SRC/StdPeriphDriver/CH57x_sys.c:73
                R8_FLASH_CFG = 0X02;
200009d0:	40002737          	lui	a4,0x40002
200009d4:	4689                	li	a3,2
200009d6:	80d703a3          	sb	a3,-2041(a4) # 40001807 <_eusrstack+0x1fffe807>
F:/private/nanoCH57x-private/doc/CH572EVT/EVT/EXAM/SRC/StdPeriphDriver/CH57x_sys.c:74
                sys_safe_access_disable();
200009da:	04078023          	sb	zero,64(a5)
200009de:	47d2                	lw	a5,20(sp)
__risc_v_enable_irq():
F:\private\nanoCH57x-private\doc\CH572EVT\EVT\EXAM\SRC\RVMSIS/core_riscv.h:138
    __asm volatile("csrrs %0, 0x800, %1" : \
200009e0:	b741                	j	20000960 <SetSysClock+0x182>
__risc_v_disable_irq():
F:\private\nanoCH57x-private\doc\CH572EVT\EVT\EXAM\SRC\RVMSIS/core_riscv.h:154
    __asm volatile("csrrc %0, 0x800, %1" : \
200009e2:	08800793          	li	a5,136
200009e6:	8007b7f3          	csrrc	a5,0x800,a5
F:\private\nanoCH57x-private\doc\CH572EVT\EVT\EXAM\SRC\RVMSIS/core_riscv.h:156
    return result & 0x88;
200009ea:	0887f793          	andi	a5,a5,136
SetSysClock():
F:/private/nanoCH57x-private/doc/CH572EVT/EVT/EXAM/SRC/StdPeriphDriver/CH57x_sys.c:78
                sys_safe_access_enable();
200009ee:	cc3e                	sw	a5,24(sp)
200009f0:	0000100f          	fence.i
200009f4:	400017b7          	lui	a5,0x40001
200009f8:	05700713          	li	a4,87
200009fc:	04e78023          	sb	a4,64(a5) # 40001040 <_eusrstack+0x1fffe040>
20000a00:	fa800713          	li	a4,-88
20000a04:	04e78023          	sb	a4,64(a5)
20000a08:	0000100f          	fence.i
F:/private/nanoCH57x-private/doc/CH572EVT/EVT/EXAM/SRC/StdPeriphDriver/CH57x_sys.c:79
                R8_FLASH_CFG = 0X07;
20000a0c:	40002737          	lui	a4,0x40002
20000a10:	469d                	li	a3,7
20000a12:	80d703a3          	sb	a3,-2041(a4) # 40001807 <_eusrstack+0x1fffe807>
F:/private/nanoCH57x-private/doc/CH572EVT/EVT/EXAM/SRC/StdPeriphDriver/CH57x_sys.c:80
                sys_safe_access_disable();
20000a16:	04078023          	sb	zero,64(a5)
20000a1a:	47e2                	lw	a5,24(sp)
20000a1c:	b791                	j	20000960 <SetSysClock+0x182>

20000a1e <HardFault_Handler>:
HardFault_Handler():
F:/private/nanoCH57x-private/doc/CH572EVT/EVT/EXAM/SRC/StdPeriphDriver/CH57x_sys.c:282
 */
__INTERRUPT
__HIGH_CODE
__attribute__((weak))
void HardFault_Handler(void)
{
20000a1e:	1141                	addi	sp,sp,-16
F:/private/nanoCH57x-private/doc/CH572EVT/EVT/EXAM/SRC/StdPeriphDriver/CH57x_sys.c:283
    FLASH_ROM_SW_RESET();
20000a20:	4681                	li	a3,0
20000a22:	4601                	li	a2,0
20000a24:	4581                	li	a1,0
20000a26:	4511                	li	a0,4
20000a28:	e0001097          	auipc	ra,0xe0001
20000a2c:	fec080e7          	jalr	-20(ra) # 1a14 <FLASH_EEPROM_CMD>
__risc_v_disable_irq():
F:\private\nanoCH57x-private\doc\CH572EVT\EVT\EXAM\SRC\RVMSIS/core_riscv.h:154
    __asm volatile("csrrc %0, 0x800, %1" : \
20000a30:	08800713          	li	a4,136
20000a34:	800737f3          	csrrc	a5,0x800,a4
F:\private\nanoCH57x-private\doc\CH572EVT\EVT\EXAM\SRC\RVMSIS/core_riscv.h:156
    return result & 0x88;
20000a38:	0887f793          	andi	a5,a5,136
HardFault_Handler():
F:/private/nanoCH57x-private/doc/CH572EVT/EVT/EXAM/SRC/StdPeriphDriver/CH57x_sys.c:284
    sys_safe_access_enable();
20000a3c:	c43e                	sw	a5,8(sp)
20000a3e:	0000100f          	fence.i
20000a42:	400017b7          	lui	a5,0x40001
20000a46:	05700613          	li	a2,87
20000a4a:	04c78023          	sb	a2,64(a5) # 40001040 <_eusrstack+0x1fffe040>
20000a4e:	fa800693          	li	a3,-88
20000a52:	04d78023          	sb	a3,64(a5)
20000a56:	0000100f          	fence.i
F:/private/nanoCH57x-private/doc/CH572EVT/EVT/EXAM/SRC/StdPeriphDriver/CH57x_sys.c:285
    R16_INT_LSI_TUNE = 0xFFFF;
20000a5a:	55fd                	li	a1,-1
20000a5c:	b7ce                	sh	a1,44(a5)
F:/private/nanoCH57x-private/doc/CH572EVT/EVT/EXAM/SRC/StdPeriphDriver/CH57x_sys.c:286
    sys_safe_access_disable();
20000a5e:	04078023          	sb	zero,64(a5)
20000a62:	45a2                	lw	a1,8(sp)
__risc_v_enable_irq():
F:\private\nanoCH57x-private\doc\CH572EVT\EVT\EXAM\SRC\RVMSIS/core_riscv.h:138
    __asm volatile("csrrs %0, 0x800, %1" : \
20000a64:	8005a5f3          	csrrs	a1,0x800,a1
HardFault_Handler():
F:/private/nanoCH57x-private/doc/CH572EVT/EVT/EXAM/SRC/StdPeriphDriver/CH57x_sys.c:286
20000a68:	0000100f          	fence.i
__risc_v_disable_irq():
F:\private\nanoCH57x-private\doc\CH572EVT\EVT\EXAM\SRC\RVMSIS/core_riscv.h:154
    __asm volatile("csrrc %0, 0x800, %1" : \
20000a6c:	80073773          	csrrc	a4,0x800,a4
F:\private\nanoCH57x-private\doc\CH572EVT\EVT\EXAM\SRC\RVMSIS/core_riscv.h:156
    return result & 0x88;
20000a70:	08877713          	andi	a4,a4,136
HardFault_Handler():
F:/private/nanoCH57x-private/doc/CH572EVT/EVT/EXAM/SRC/StdPeriphDriver/CH57x_sys.c:287
    sys_safe_access_enable();
20000a74:	c63a                	sw	a4,12(sp)
20000a76:	0000100f          	fence.i
20000a7a:	04c78023          	sb	a2,64(a5)
20000a7e:	04d78023          	sb	a3,64(a5)
20000a82:	0000100f          	fence.i
F:/private/nanoCH57x-private/doc/CH572EVT/EVT/EXAM/SRC/StdPeriphDriver/CH57x_sys.c:288
    R8_RST_WDOG_CTRL |= RB_SOFTWARE_RESET;
20000a86:	0467c703          	lbu	a4,70(a5)
20000a8a:	00176713          	ori	a4,a4,1
20000a8e:	04e78323          	sb	a4,70(a5)
F:/private/nanoCH57x-private/doc/CH572EVT/EVT/EXAM/SRC/StdPeriphDriver/CH57x_sys.c:289
    sys_safe_access_disable();
20000a92:	04078023          	sb	zero,64(a5)
20000a96:	47b2                	lw	a5,12(sp)
__risc_v_enable_irq():
F:\private\nanoCH57x-private\doc\CH572EVT\EVT\EXAM\SRC\RVMSIS/core_riscv.h:138
    __asm volatile("csrrs %0, 0x800, %1" : \
20000a98:	8007a7f3          	csrrs	a5,0x800,a5
HardFault_Handler():
F:/private/nanoCH57x-private/doc/CH572EVT/EVT/EXAM/SRC/StdPeriphDriver/CH57x_sys.c:289
20000a9c:	0000100f          	fence.i
F:/private/nanoCH57x-private/doc/CH572EVT/EVT/EXAM/SRC/StdPeriphDriver/CH57x_sys.c:290 (discriminator 1)
    while(1);
20000aa0:	a001                	j	20000aa0 <HardFault_Handler+0x82>

20000aa2 <SYS_GetClockValue>:
SYS_GetClockValue():
F:/private/nanoCH57x-private/doc/CH572EVT/EVT/EXAM/BLE/HAL/RTC.c:66
    R8_RTC_FLAG_CTRL =(RB_RTC_TMR_CLR|RB_RTC_TRIG_CLR);
}

__HIGH_CODE
static uint32_t SYS_GetClockValue(void)
{
20000aa2:	1141                	addi	sp,sp,-16
F:/private/nanoCH57x-private/doc/CH572EVT/EVT/EXAM/BLE/HAL/RTC.c:69
    uint32_t volatile rtc_count;
    do{
        rtc_count = R32_RTC_CNT_LSI;
20000aa4:	400017b7          	lui	a5,0x40001
F:/private/nanoCH57x-private/doc/CH572EVT/EVT/EXAM/BLE/HAL/RTC.c:69 (discriminator 1)
20000aa8:	5f98                	lw	a4,56(a5)
20000aaa:	c63a                	sw	a4,12(sp)
F:/private/nanoCH57x-private/doc/CH572EVT/EVT/EXAM/BLE/HAL/RTC.c:70 (discriminator 1)
    }while( rtc_count != R32_RTC_CNT_LSI);
20000aac:	5f94                	lw	a3,56(a5)
20000aae:	4732                	lw	a4,12(sp)
20000ab0:	fee69ce3          	bne	a3,a4,20000aa8 <SYS_GetClockValue+0x6>
F:/private/nanoCH57x-private/doc/CH572EVT/EVT/EXAM/BLE/HAL/RTC.c:71
    return rtc_count;
20000ab4:	4532                	lw	a0,12(sp)
F:/private/nanoCH57x-private/doc/CH572EVT/EVT/EXAM/BLE/HAL/RTC.c:72
}
20000ab6:	0141                	addi	sp,sp,16
20000ab8:	8082                	ret

20000aba <SYS_SetPendingIRQ>:
PFIC_SetPendingIRQ():
F:\private\nanoCH57x-private\doc\CH572EVT\EVT\EXAM\SRC\RVMSIS/core_riscv.h:228
 *
 * @param   IRQn    - Interrupt Numbers
 */
__attribute__((always_inline)) RV_STATIC_INLINE void PFIC_SetPendingIRQ(IRQn_Type IRQn)
{
    PFIC->IPSR[((uint32_t)(IRQn) >> 5)] = (1 << ((uint32_t)(IRQn) & 0x1F));
20000aba:	e000e7b7          	lui	a5,0xe000e
20000abe:	10000737          	lui	a4,0x10000
20000ac2:	20e7a023          	sw	a4,512(a5) # e000e200 <_eusrstack+0xc000b200>
SYS_SetPendingIRQ():
F:/private/nanoCH57x-private/doc/CH572EVT/EVT/EXAM/BLE/HAL/RTC.c:78

__HIGH_CODE
static void SYS_SetPendingIRQ(void)
{
    PFIC_SetPendingIRQ( RTC_IRQn );
}
20000ac6:	8082                	ret

20000ac8 <RTC_IRQHandler>:
RTC_IRQHandler():
F:/private/nanoCH57x-private/doc/CH572EVT/EVT/EXAM/BLE/HAL/RTC.c:61
    R8_RTC_FLAG_CTRL =(RB_RTC_TMR_CLR|RB_RTC_TRIG_CLR);
20000ac8:	400017b7          	lui	a5,0x40001
20000acc:	03000713          	li	a4,48
20000ad0:	02e78823          	sb	a4,48(a5) # 40001030 <_eusrstack+0x1fffe030>
F:/private/nanoCH57x-private/doc/CH572EVT/EVT/EXAM/BLE/HAL/RTC.c:62
}
20000ad4:	30200073          	mret

20000ad8 <RF_Wait_Tx_End>:
RF_Wait_Tx_End():
F:\private\nanoCH57x-private\doc\CH572EVT\EVT\EXAM\BLE\RF_PHY\obj/../APP/RF_PHY.c:48
    {
        i++;
        __nop();
        __nop();
        // 5ms
        if(i>(FREQ_SYS/1000))
20000ad8:	6761                	lui	a4,0x18
F:\private\nanoCH57x-private\doc\CH572EVT\EVT\EXAM\BLE\RF_PHY\obj/../APP/RF_PHY.c:41
    uint32_t i=0;
20000ada:	4781                	li	a5,0
F:\private\nanoCH57x-private\doc\CH572EVT\EVT\EXAM\BLE\RF_PHY\obj/../APP/RF_PHY.c:42
    while(!tx_end_flag)
20000adc:	82518693          	addi	a3,gp,-2011 # 20000ecd <tx_end_flag>
F:\private\nanoCH57x-private\doc\CH572EVT\EVT\EXAM\BLE\RF_PHY\obj/../APP/RF_PHY.c:48
        if(i>(FREQ_SYS/1000))
20000ae0:	6a070713          	addi	a4,a4,1696 # 186a0 <_data_lma+0x12718>
F:\private\nanoCH57x-private\doc\CH572EVT\EVT\EXAM\BLE\RF_PHY\obj/../APP/RF_PHY.c:50
        {
            tx_end_flag = TRUE;
20000ae4:	4585                	li	a1,1
F:\private\nanoCH57x-private\doc\CH572EVT\EVT\EXAM\BLE\RF_PHY\obj/../APP/RF_PHY.c:42
    while(!tx_end_flag)
20000ae6:	2290                	lbu	a2,0(a3)
20000ae8:	c211                	beqz	a2,20000aec <RF_Wait_Tx_End+0x14>
F:\private\nanoCH57x-private\doc\CH572EVT\EVT\EXAM\BLE\RF_PHY\obj/../APP/RF_PHY.c:53
        }
    }
}
20000aea:	8082                	ret
F:\private\nanoCH57x-private\doc\CH572EVT\EVT\EXAM\BLE\RF_PHY\obj/../APP/RF_PHY.c:44
        i++;
20000aec:	0785                	addi	a5,a5,1
F:\private\nanoCH57x-private\doc\CH572EVT\EVT\EXAM\BLE\RF_PHY\obj/../APP/RF_PHY.c:45
        __nop();
20000aee:	0001                	nop
F:\private\nanoCH57x-private\doc\CH572EVT\EVT\EXAM\BLE\RF_PHY\obj/../APP/RF_PHY.c:46
        __nop();
20000af0:	0001                	nop
F:\private\nanoCH57x-private\doc\CH572EVT\EVT\EXAM\BLE\RF_PHY\obj/../APP/RF_PHY.c:48
        if(i>(FREQ_SYS/1000))
20000af2:	fef77ae3          	bgeu	a4,a5,20000ae6 <RF_Wait_Tx_End+0xe>
F:\private\nanoCH57x-private\doc\CH572EVT\EVT\EXAM\BLE\RF_PHY\obj/../APP/RF_PHY.c:50
            tx_end_flag = TRUE;
20000af6:	a28c                	sb	a1,0(a3)
20000af8:	b7fd                	j	20000ae6 <RF_Wait_Tx_End+0xe>

20000afa <RF_Wait_Rx_End>:
RF_Wait_Rx_End():
F:\private\nanoCH57x-private\doc\CH572EVT\EVT\EXAM\BLE\RF_PHY\obj/../APP/RF_PHY.c:73
    {
        i++;
        __nop();
        __nop();
        // 5ms
        if(i>(FREQ_SYS/1000))
20000afa:	6761                	lui	a4,0x18
F:\private\nanoCH57x-private\doc\CH572EVT\EVT\EXAM\BLE\RF_PHY\obj/../APP/RF_PHY.c:66
    uint32_t i=0;
20000afc:	4781                	li	a5,0
F:\private\nanoCH57x-private\doc\CH572EVT\EVT\EXAM\BLE\RF_PHY\obj/../APP/RF_PHY.c:67
    while(!rx_end_flag)
20000afe:	82418693          	addi	a3,gp,-2012 # 20000ecc <rx_end_flag>
F:\private\nanoCH57x-private\doc\CH572EVT\EVT\EXAM\BLE\RF_PHY\obj/../APP/RF_PHY.c:73
        if(i>(FREQ_SYS/1000))
20000b02:	6a070713          	addi	a4,a4,1696 # 186a0 <_data_lma+0x12718>
F:\private\nanoCH57x-private\doc\CH572EVT\EVT\EXAM\BLE\RF_PHY\obj/../APP/RF_PHY.c:75
        {
            rx_end_flag = TRUE;
20000b06:	4585                	li	a1,1
F:\private\nanoCH57x-private\doc\CH572EVT\EVT\EXAM\BLE\RF_PHY\obj/../APP/RF_PHY.c:67
    while(!rx_end_flag)
20000b08:	2290                	lbu	a2,0(a3)
20000b0a:	c211                	beqz	a2,20000b0e <RF_Wait_Rx_End+0x14>
F:\private\nanoCH57x-private\doc\CH572EVT\EVT\EXAM\BLE\RF_PHY\obj/../APP/RF_PHY.c:78
        }
    }
}
20000b0c:	8082                	ret
F:\private\nanoCH57x-private\doc\CH572EVT\EVT\EXAM\BLE\RF_PHY\obj/../APP/RF_PHY.c:69
        i++;
20000b0e:	0785                	addi	a5,a5,1
F:\private\nanoCH57x-private\doc\CH572EVT\EVT\EXAM\BLE\RF_PHY\obj/../APP/RF_PHY.c:70
        __nop();
20000b10:	0001                	nop
F:\private\nanoCH57x-private\doc\CH572EVT\EVT\EXAM\BLE\RF_PHY\obj/../APP/RF_PHY.c:71
        __nop();
20000b12:	0001                	nop
F:\private\nanoCH57x-private\doc\CH572EVT\EVT\EXAM\BLE\RF_PHY\obj/../APP/RF_PHY.c:73
        if(i>(FREQ_SYS/1000))
20000b14:	fef77ae3          	bgeu	a4,a5,20000b08 <RF_Wait_Rx_End+0xe>
F:\private\nanoCH57x-private\doc\CH572EVT\EVT\EXAM\BLE\RF_PHY\obj/../APP/RF_PHY.c:75
            rx_end_flag = TRUE;
20000b18:	a28c                	sb	a1,0(a3)
20000b1a:	b7fd                	j	20000b08 <RF_Wait_Rx_End+0xe>

20000b1c <Main_Circulation>:
Main_Circulation():
F:\private\nanoCH57x-private\doc\CH572EVT\EVT\EXAM\BLE\RF_PHY\obj/../APP/RF_main.c:38
 * @return  none
 */
__HIGH_CODE
__attribute__((noinline))
void Main_Circulation()
{
20000b1c:	1141                	addi	sp,sp,-16
20000b1e:	c606                	sw	ra,12(sp)
F:\private\nanoCH57x-private\doc\CH572EVT\EVT\EXAM\BLE\RF_PHY\obj/../APP/RF_main.c:41 (discriminator 1)
    while(1)
    {
        TMOS_SystemProcess();
20000b20:	e78ff0ef          	jal	ra,20000198 <TMOS_SystemProcess>
F:\private\nanoCH57x-private\doc\CH572EVT\EVT\EXAM\BLE\RF_PHY\obj/../APP/RF_main.c:39 (discriminator 1)
    while(1)
20000b24:	bff5                	j	20000b20 <Main_Circulation+0x4>

20000b26 <FLASH_ROM_BEG_FF>:
FLASH_ROM_BEG_FF():
20000b26:	80040323          	sb	zero,-2042(s0)
20000b2a:	4715                	li	a4,5
20000b2c:	87a2                	mv	a5,s0
20000b2e:	80e40323          	sb	a4,-2042(s0)
20000b32:	0001                	nop
20000b34:	0001                	nop
20000b36:	80a40223          	sb	a0,-2044(s0)
20000b3a:	8067c703          	lbu	a4,-2042(a5)
20000b3e:	0762                	slli	a4,a4,0x18
20000b40:	8761                	srai	a4,a4,0x18
20000b42:	fe074ce3          	bltz	a4,20000b3a <FLASH_ROM_BEG_FF+0x14>
20000b46:	80a78223          	sb	a0,-2044(a5)
20000b4a:	8722                	mv	a4,s0
20000b4c:	80674783          	lbu	a5,-2042(a4)
20000b50:	07e2                	slli	a5,a5,0x18
20000b52:	87e1                	srai	a5,a5,0x18
20000b54:	fe07cce3          	bltz	a5,20000b4c <FLASH_ROM_BEG_FF+0x26>
20000b58:	8082                	ret

20000b5a <FLASH_ROM_BEG>:
FLASH_ROM_BEG():
20000b5a:	80040323          	sb	zero,-2042(s0)
20000b5e:	4715                	li	a4,5
20000b60:	80e40323          	sb	a4,-2042(s0)
20000b64:	0001                	nop
20000b66:	0001                	nop
20000b68:	80a40223          	sb	a0,-2044(s0)
20000b6c:	8082                	ret

20000b6e <FLASH_ROM_END>:
FLASH_ROM_END():
20000b6e:	80640783          	lb	a5,-2042(s0)
20000b72:	fe07cee3          	bltz	a5,20000b6e <FLASH_ROM_END>
20000b76:	80040323          	sb	zero,-2042(s0)
20000b7a:	8082                	ret

20000b7c <FLASH_ROM_IN>:
FLASH_ROM_IN():
20000b7c:	80640783          	lb	a5,-2042(s0)
20000b80:	fe07cee3          	bltz	a5,20000b7c <FLASH_ROM_IN>
20000b84:	80444503          	lbu	a0,-2044(s0)
20000b88:	8082                	ret

20000b8a <FLASH_ROM_OUT>:
FLASH_ROM_OUT():
20000b8a:	80640783          	lb	a5,-2042(s0)
20000b8e:	fe07cee3          	bltz	a5,20000b8a <FLASH_ROM_OUT>
20000b92:	80a40223          	sb	a0,-2044(s0)
20000b96:	8082                	ret

20000b98 <FLASH_ROM_ADDR>:
FLASH_ROM_ADDR():
20000b98:	1141                	addi	sp,sp,-16
20000b9a:	c426                	sw	s1,8(sp)
20000b9c:	c24a                	sw	s2,4(sp)
20000b9e:	c04e                	sw	s3,0(sp)
20000ba0:	c606                	sw	ra,12(sp)
20000ba2:	0bf57713          	andi	a4,a0,191
20000ba6:	47ad                	li	a5,11
20000ba8:	89aa                	mv	s3,a0
20000baa:	892e                	mv	s2,a1
20000bac:	4495                	li	s1,5
20000bae:	00f70663          	beq	a4,a5,20000bba <FLASH_ROM_ADDR+0x22>
20000bb2:	4519                	li	a0,6
20000bb4:	375d                	jal	20000b5a <FLASH_ROM_BEG>
20000bb6:	3f65                	jal	20000b6e <FLASH_ROM_END>
20000bb8:	448d                	li	s1,3
20000bba:	854e                	mv	a0,s3
20000bbc:	3f79                	jal	20000b5a <FLASH_ROM_BEG>
20000bbe:	59fd                	li	s3,-1
20000bc0:	14fd                	addi	s1,s1,-1
20000bc2:	01349863          	bne	s1,s3,20000bd2 <FLASH_ROM_ADDR+0x3a>
20000bc6:	40b2                	lw	ra,12(sp)
20000bc8:	44a2                	lw	s1,8(sp)
20000bca:	4912                	lw	s2,4(sp)
20000bcc:	4982                	lw	s3,0(sp)
20000bce:	0141                	addi	sp,sp,16
20000bd0:	8082                	ret
20000bd2:	01095513          	srli	a0,s2,0x10
20000bd6:	0ff57513          	zext.b	a0,a0
20000bda:	3f45                	jal	20000b8a <FLASH_ROM_OUT>
20000bdc:	0922                	slli	s2,s2,0x8
20000bde:	b7cd                	j	20000bc0 <FLASH_ROM_ADDR+0x28>

20000be0 <FLASH_ROM_WAIT>:
FLASH_ROM_WAIT():
20000be0:	1101                	addi	sp,sp,-32
20000be2:	cc26                	sw	s1,24(sp)
20000be4:	ce06                	sw	ra,28(sp)
20000be6:	000804b7          	lui	s1,0x80
20000bea:	3751                	jal	20000b6e <FLASH_ROM_END>
20000bec:	4515                	li	a0,5
20000bee:	37b5                	jal	20000b5a <FLASH_ROM_BEG>
20000bf0:	3771                	jal	20000b7c <FLASH_ROM_IN>
20000bf2:	3769                	jal	20000b7c <FLASH_ROM_IN>
20000bf4:	c62a                	sw	a0,12(sp)
20000bf6:	3fa5                	jal	20000b6e <FLASH_ROM_END>
20000bf8:	4532                	lw	a0,12(sp)
20000bfa:	00157793          	andi	a5,a0,1
20000bfe:	eb89                	bnez	a5,20000c10 <FLASH_ROM_WAIT+0x30>
20000c00:	00156513          	ori	a0,a0,1
20000c04:	0ff57513          	zext.b	a0,a0
20000c08:	40f2                	lw	ra,28(sp)
20000c0a:	44e2                	lw	s1,24(sp)
20000c0c:	6105                	addi	sp,sp,32
20000c0e:	8082                	ret
20000c10:	14fd                	addi	s1,s1,-1 # 7ffff <_data_lma+0x7a077>
20000c12:	fce9                	bnez	s1,20000bec <FLASH_ROM_WAIT+0xc>
20000c14:	4501                	li	a0,0
20000c16:	bfcd                	j	20000c08 <FLASH_ROM_WAIT+0x28>

20000c18 <FLASH_START>:
FLASH_START():
20000c18:	1141                	addi	sp,sp,-16
20000c1a:	c606                	sw	ra,12(sp)
20000c1c:	400017b7          	lui	a5,0x40001
20000c20:	05700713          	li	a4,87
20000c24:	04e78023          	sb	a4,64(a5) # 40001040 <_eusrstack+0x1fffe040>
20000c28:	fa800713          	li	a4,-88
20000c2c:	04e78023          	sb	a4,64(a5)
20000c30:	0447c703          	lbu	a4,68(a5)
20000c34:	0ff00513          	li	a0,255
20000c38:	0e076713          	ori	a4,a4,224
20000c3c:	04e78223          	sb	a4,68(a5)
20000c40:	4791                	li	a5,4
20000c42:	80f40323          	sb	a5,-2042(s0)
20000c46:	35c5                	jal	20000b26 <FLASH_ROM_BEG_FF>
20000c48:	40b2                	lw	ra,12(sp)
20000c4a:	0141                	addi	sp,sp,16
20000c4c:	b70d                	j	20000b6e <FLASH_ROM_END>

20000c4e <FLASH_CMD_ROM_WRITE>:
FLASH_CMD_ROM_WRITE():
20000c4e:	1101                	addi	sp,sp,-32
20000c50:	cc26                	sw	s1,24(sp)
20000c52:	ca4a                	sw	s2,20(sp)
20000c54:	c84e                	sw	s3,16(sp)
20000c56:	c652                	sw	s4,12(sp)
20000c58:	ce06                	sw	ra,28(sp)
20000c5a:	892a                	mv	s2,a0
20000c5c:	89ae                	mv	s3,a1
20000c5e:	84b2                	mv	s1,a2
20000c60:	4a55                	li	s4,21
20000c62:	3f5d                	jal	20000c18 <FLASH_START>
20000c64:	e891                	bnez	s1,20000c78 <FLASH_CMD_ROM_WRITE+0x2a>
20000c66:	3721                	jal	20000b6e <FLASH_ROM_END>
20000c68:	40f2                	lw	ra,28(sp)
20000c6a:	8526                	mv	a0,s1
20000c6c:	4952                	lw	s2,20(sp)
20000c6e:	44e2                	lw	s1,24(sp)
20000c70:	49c2                	lw	s3,16(sp)
20000c72:	4a32                	lw	s4,12(sp)
20000c74:	6105                	addi	sp,sp,32
20000c76:	8082                	ret
20000c78:	85ca                	mv	a1,s2
20000c7a:	4509                	li	a0,2
20000c7c:	3f31                	jal	20000b98 <FLASH_ROM_ADDR>
20000c7e:	0991                	addi	s3,s3,4
20000c80:	ffc9a703          	lw	a4,-4(s3)
20000c84:	4791                	li	a5,4
20000c86:	80e42023          	sw	a4,-2048(s0)

20000c8a <.loop247>:
20000c8a:	80640703          	lb	a4,-2042(s0)
20000c8e:	fe074ee3          	bltz	a4,20000c8a <.loop247>
20000c92:	81440323          	sb	s4,-2042(s0)
20000c96:	17fd                	addi	a5,a5,-1
20000c98:	fbed                	bnez	a5,20000c8a <.loop247>
20000c9a:	14fd                	addi	s1,s1,-1
20000c9c:	0911                	addi	s2,s2,4
20000c9e:	c481                	beqz	s1,20000ca6 <.loop247+0x1c>
20000ca0:	0ff97793          	zext.b	a5,s2
20000ca4:	ffe9                	bnez	a5,20000c7e <FLASH_CMD_ROM_WRITE+0x30>
20000ca6:	3f2d                	jal	20000be0 <FLASH_ROM_WAIT>
20000ca8:	fd55                	bnez	a0,20000c64 <FLASH_CMD_ROM_WRITE+0x16>
20000caa:	54fd                	li	s1,-1
20000cac:	bf75                	j	20000c68 <FLASH_CMD_ROM_WRITE+0x1a>

20000cae <FLASH_CMD_ROM_ERASE>:
FLASH_CMD_ROM_ERASE():
20000cae:	1101                	addi	sp,sp,-32
20000cb0:	cc26                	sw	s1,24(sp)
20000cb2:	ca4a                	sw	s2,20(sp)
20000cb4:	c84e                	sw	s3,16(sp)
20000cb6:	c652                	sw	s4,12(sp)
20000cb8:	c456                	sw	s5,8(sp)
20000cba:	c25a                	sw	s6,4(sp)
20000cbc:	ce06                	sw	ra,28(sp)
20000cbe:	892a                	mv	s2,a0
20000cc0:	8a32                	mv	s4,a2
20000cc2:	498d                	li	s3,3
20000cc4:	3f91                	jal	20000c18 <FLASH_START>
20000cc6:	64c1                	lui	s1,0x10
20000cc8:	6ac1                	lui	s5,0x10
20000cca:	6b05                	lui	s6,0x1
20000ccc:	fff48793          	addi	a5,s1,-1 # ffff <_data_lma+0xa077>
20000cd0:	0127f7b3          	and	a5,a5,s2
20000cd4:	e399                	bnez	a5,20000cda <FLASH_CMD_ROM_ERASE+0x2c>
20000cd6:	029a7163          	bgeu	s4,s1,20000cf8 <FLASH_CMD_ROM_ERASE+0x4a>
20000cda:	19fd                	addi	s3,s3,-1
20000cdc:	8091                	srli	s1,s1,0x4
20000cde:	fe0997e3          	bnez	s3,20000ccc <FLASH_CMD_ROM_ERASE+0x1e>
20000ce2:	3571                	jal	20000b6e <FLASH_ROM_END>
20000ce4:	4501                	li	a0,0
20000ce6:	40f2                	lw	ra,28(sp)
20000ce8:	44e2                	lw	s1,24(sp)
20000cea:	4952                	lw	s2,20(sp)
20000cec:	49c2                	lw	s3,16(sp)
20000cee:	4a32                	lw	s4,12(sp)
20000cf0:	4aa2                	lw	s5,8(sp)
20000cf2:	4b12                	lw	s6,4(sp)
20000cf4:	6105                	addi	sp,sp,32
20000cf6:	8082                	ret
20000cf8:	0d800513          	li	a0,216
20000cfc:	01548863          	beq	s1,s5,20000d0c <FLASH_CMD_ROM_ERASE+0x5e>
20000d00:	02000513          	li	a0,32
20000d04:	01648463          	beq	s1,s6,20000d0c <FLASH_CMD_ROM_ERASE+0x5e>
20000d08:	08100513          	li	a0,129
20000d0c:	85ca                	mv	a1,s2
20000d0e:	3569                	jal	20000b98 <FLASH_ROM_ADDR>
20000d10:	3dc1                	jal	20000be0 <FLASH_ROM_WAIT>
20000d12:	c509                	beqz	a0,20000d1c <FLASH_CMD_ROM_ERASE+0x6e>
20000d14:	9926                	add	s2,s2,s1
20000d16:	409a0a33          	sub	s4,s4,s1
20000d1a:	bf75                	j	20000cd6 <FLASH_CMD_ROM_ERASE+0x28>
20000d1c:	557d                	li	a0,-1
20000d1e:	b7e1                	j	20000ce6 <FLASH_CMD_ROM_ERASE+0x38>

20000d20 <FLASH_CMD_ROM_VERIFY>:
FLASH_CMD_ROM_VERIFY():
20000d20:	1101                	addi	sp,sp,-32
20000d22:	ce06                	sw	ra,28(sp)
20000d24:	cc26                	sw	s1,24(sp)
20000d26:	ca4a                	sw	s2,20(sp)
20000d28:	84b2                	mv	s1,a2
20000d2a:	c84e                	sw	s3,16(sp)
20000d2c:	c62a                	sw	a0,12(sp)
20000d2e:	892e                	mv	s2,a1
20000d30:	35e5                	jal	20000c18 <FLASH_START>
20000d32:	4532                	lw	a0,12(sp)
20000d34:	14fd                	addi	s1,s1,-1
20000d36:	59fd                	li	s3,-1
20000d38:	85aa                	mv	a1,a0
20000d3a:	452d                	li	a0,11
20000d3c:	3db1                	jal	20000b98 <FLASH_ROM_ADDR>
20000d3e:	01349a63          	bne	s1,s3,20000d52 <FLASH_CMD_ROM_VERIFY+0x32>
20000d42:	3535                	jal	20000b6e <FLASH_ROM_END>
20000d44:	40f2                	lw	ra,28(sp)
20000d46:	8526                	mv	a0,s1
20000d48:	4952                	lw	s2,20(sp)
20000d4a:	44e2                	lw	s1,24(sp)
20000d4c:	49c2                	lw	s3,16(sp)
20000d4e:	6105                	addi	sp,sp,32
20000d50:	8082                	ret
20000d52:	352d                	jal	20000b7c <FLASH_ROM_IN>
20000d54:	0034f793          	andi	a5,s1,3
20000d58:	eb91                	bnez	a5,20000d6c <FLASH_CMD_ROM_VERIFY+0x4c>
20000d5a:	80042683          	lw	a3,-2048(s0)
20000d5e:	00092703          	lw	a4,0(s2)
20000d62:	00490793          	addi	a5,s2,4
20000d66:	fce69ee3          	bne	a3,a4,20000d42 <FLASH_CMD_ROM_VERIFY+0x22>
20000d6a:	893e                	mv	s2,a5
20000d6c:	14fd                	addi	s1,s1,-1
20000d6e:	bfc1                	j	20000d3e <FLASH_CMD_ROM_VERIFY+0x1e>

20000d70 <FLASH_CMD_ROM_PWR>:
FLASH_CMD_ROM_PWR():
20000d70:	1101                	addi	sp,sp,-32
20000d72:	ce06                	sw	ra,28(sp)
20000d74:	c62a                	sw	a0,12(sp)
20000d76:	354d                	jal	20000c18 <FLASH_START>
20000d78:	4532                	lw	a0,12(sp)
20000d7a:	33c5                	jal	20000b5a <FLASH_ROM_BEG>
20000d7c:	40f2                	lw	ra,28(sp)
20000d7e:	6105                	addi	sp,sp,32
20000d80:	b3fd                	j	20000b6e <FLASH_ROM_END>

20000d82 <FLASH_CMD_GET_ROM_INFO>:
FLASH_CMD_GET_ROM_INFO():
20000d82:	1101                	addi	sp,sp,-32
20000d84:	ce06                	sw	ra,28(sp)
20000d86:	cc26                	sw	s1,24(sp)
20000d88:	ca4a                	sw	s2,20(sp)
20000d8a:	c84e                	sw	s3,16(sp)
20000d8c:	c652                	sw	s4,12(sp)
20000d8e:	89aa                	mv	s3,a0
20000d90:	c456                	sw	s5,8(sp)
20000d92:	892e                	mv	s2,a1
20000d94:	3551                	jal	20000c18 <FLASH_START>
20000d96:	000405b7          	lui	a1,0x40
20000d9a:	00b9e5b3          	or	a1,s3,a1
20000d9e:	452d                	li	a0,11
20000da0:	3be5                	jal	20000b98 <FLASH_ROM_ADDR>
20000da2:	4481                	li	s1,0
20000da4:	4a8d                	li	s5,3
20000da6:	4a21                	li	s4,8
20000da8:	3bd1                	jal	20000b7c <FLASH_ROM_IN>
20000daa:	01549663          	bne	s1,s5,20000db6 <FLASH_CMD_GET_ROM_INFO+0x34>
20000dae:	80042783          	lw	a5,-2048(s0)
20000db2:	00f92023          	sw	a5,0(s2)
20000db6:	0485                	addi	s1,s1,1
20000db8:	ff4498e3          	bne	s1,s4,20000da8 <FLASH_CMD_GET_ROM_INFO+0x26>
20000dbc:	80042783          	lw	a5,-2048(s0)
20000dc0:	01299713          	slli	a4,s3,0x12
20000dc4:	00075c63          	bgez	a4,20000ddc <FLASH_CMD_GET_ROM_INFO+0x5a>
20000dc8:	00f91223          	sh	a5,4(s2)
20000dcc:	40f2                	lw	ra,28(sp)
20000dce:	44e2                	lw	s1,24(sp)
20000dd0:	4952                	lw	s2,20(sp)
20000dd2:	49c2                	lw	s3,16(sp)
20000dd4:	4a32                	lw	s4,12(sp)
20000dd6:	4aa2                	lw	s5,8(sp)
20000dd8:	6105                	addi	sp,sp,32
20000dda:	bb51                	j	20000b6e <FLASH_ROM_END>
20000ddc:	00f92223          	sw	a5,4(s2)
20000de0:	b7f5                	j	20000dcc <FLASH_CMD_GET_ROM_INFO+0x4a>

20000de2 <FLASH_CMD_GET_UNIQUE_ID>:
FLASH_CMD_GET_UNIQUE_ID():
20000de2:	1141                	addi	sp,sp,-16
20000de4:	c606                	sw	ra,12(sp)
20000de6:	c426                	sw	s1,8(sp)
20000de8:	c24a                	sw	s2,4(sp)
20000dea:	c04e                	sw	s3,0(sp)
20000dec:	89ae                	mv	s3,a1
20000dee:	352d                	jal	20000c18 <FLASH_START>
20000df0:	4581                	li	a1,0
20000df2:	04b00513          	li	a0,75
20000df6:	334d                	jal	20000b98 <FLASH_ROM_ADDR>
20000df8:	44bd                	li	s1,15
20000dfa:	597d                	li	s2,-1
20000dfc:	3341                	jal	20000b7c <FLASH_ROM_IN>
20000dfe:	0074f793          	andi	a5,s1,7
20000e02:	97ce                	add	a5,a5,s3
20000e04:	0007c703          	lbu	a4,0(a5)
20000e08:	14fd                	addi	s1,s1,-1
20000e0a:	8d39                	xor	a0,a0,a4
20000e0c:	00a78023          	sb	a0,0(a5)
20000e10:	ff2496e3          	bne	s1,s2,20000dfc <FLASH_CMD_GET_UNIQUE_ID+0x1a>
20000e14:	40b2                	lw	ra,12(sp)
20000e16:	44a2                	lw	s1,8(sp)
20000e18:	4912                	lw	s2,4(sp)
20000e1a:	4982                	lw	s3,0(sp)
20000e1c:	0141                	addi	sp,sp,16
20000e1e:	bb81                	j	20000b6e <FLASH_ROM_END>

20000e20 <FLASH_CMD_ROM_SW_RESET>:
FLASH_CMD_ROM_SW_RESET():
20000e20:	1141                	addi	sp,sp,-16
20000e22:	c606                	sw	ra,12(sp)
20000e24:	3bd5                	jal	20000c18 <FLASH_START>
20000e26:	06600513          	li	a0,102
20000e2a:	3b05                	jal	20000b5a <FLASH_ROM_BEG>
20000e2c:	3389                	jal	20000b6e <FLASH_ROM_END>
20000e2e:	09900513          	li	a0,153
20000e32:	3325                	jal	20000b5a <FLASH_ROM_BEG>
20000e34:	40b2                	lw	ra,12(sp)
20000e36:	0141                	addi	sp,sp,16
20000e38:	bb1d                	j	20000b6e <FLASH_ROM_END>
	...

Disassembly of section .text:

00000e40 <handle_reset>:
handle_reset():
F:/private/nanoCH57x-private/doc/CH572EVT/EVT/EXAM/SRC/Startup/startup_CH572.S:119
	.weak	handle_reset
	.align	1
handle_reset:
.option push 
.option	norelax 
	la gp, __global_pointer$
     e40:	20001197          	auipc	gp,0x20001
     e44:	86818193          	addi	gp,gp,-1944 # 200016a8 <__global_pointer$>
F:/private/nanoCH57x-private/doc/CH572EVT/EVT/EXAM/SRC/Startup/startup_CH572.S:121
1:
	la sp, _eusrstack 
     e48:	20002117          	auipc	sp,0x20002
     e4c:	1b810113          	addi	sp,sp,440 # 20003000 <_eusrstack>
F:/private/nanoCH57x-private/doc/CH572EVT/EVT/EXAM/SRC/Startup/startup_CH572.S:126
.option	pop

/* Load highcode code  section from flash to RAM */
2:
    la a0, _highcode_lma
     e50:	00400513          	li	a0,4
F:/private/nanoCH57x-private/doc/CH572EVT/EVT/EXAM/SRC/Startup/startup_CH572.S:127
    la a1, _highcode_vma_start
     e54:	1ffff597          	auipc	a1,0x1ffff
     e58:	1ac58593          	addi	a1,a1,428 # 20000000 <_highcode_vma_start>
F:/private/nanoCH57x-private/doc/CH572EVT/EVT/EXAM/SRC/Startup/startup_CH572.S:128
    la a2, _highcode_vma_end
     e5c:	20000617          	auipc	a2,0x20000
     e60:	fe060613          	addi	a2,a2,-32 # 20000e3c <TX_DATA>
F:/private/nanoCH57x-private/doc/CH572EVT/EVT/EXAM/SRC/Startup/startup_CH572.S:129
    bgeu a1, a2, 2f
     e64:	00c5fa63          	bgeu	a1,a2,e78 <handle_reset+0x38>
F:/private/nanoCH57x-private/doc/CH572EVT/EVT/EXAM/SRC/Startup/startup_CH572.S:131
1:
    lw t0, (a0)
     e68:	00052283          	lw	t0,0(a0)
F:/private/nanoCH57x-private/doc/CH572EVT/EVT/EXAM/SRC/Startup/startup_CH572.S:132
    sw t0, (a1)
     e6c:	0055a023          	sw	t0,0(a1)
F:/private/nanoCH57x-private/doc/CH572EVT/EVT/EXAM/SRC/Startup/startup_CH572.S:133
    addi a0, a0, 4
     e70:	0511                	addi	a0,a0,4
F:/private/nanoCH57x-private/doc/CH572EVT/EVT/EXAM/SRC/Startup/startup_CH572.S:134
    addi a1, a1, 4
     e72:	0591                	addi	a1,a1,4
F:/private/nanoCH57x-private/doc/CH572EVT/EVT/EXAM/SRC/Startup/startup_CH572.S:135
    bltu a1, a2, 1b
     e74:	fec5eae3          	bltu	a1,a2,e68 <handle_reset+0x28>
F:/private/nanoCH57x-private/doc/CH572EVT/EVT/EXAM/SRC/Startup/startup_CH572.S:139

/* Load data section from flash to RAM */
2:
	la a0, _data_lma
     e78:	00005517          	auipc	a0,0x5
     e7c:	11050513          	addi	a0,a0,272 # 5f88 <_data_lma>
F:/private/nanoCH57x-private/doc/CH572EVT/EVT/EXAM/SRC/Startup/startup_CH572.S:140
	la a1, _data_vma
     e80:	20000597          	auipc	a1,0x20000
     e84:	fbc58593          	addi	a1,a1,-68 # 20000e3c <TX_DATA>
F:/private/nanoCH57x-private/doc/CH572EVT/EVT/EXAM/SRC/Startup/startup_CH572.S:141
	la a2, _edata
     e88:	81418613          	addi	a2,gp,-2028 # 20000ebc <Freq_LSI>
F:/private/nanoCH57x-private/doc/CH572EVT/EVT/EXAM/SRC/Startup/startup_CH572.S:142
	bgeu a1, a2, 2f
     e8c:	00c5fa63          	bgeu	a1,a2,ea0 <handle_reset+0x60>
F:/private/nanoCH57x-private/doc/CH572EVT/EVT/EXAM/SRC/Startup/startup_CH572.S:144
1:
	lw t0, (a0)
     e90:	00052283          	lw	t0,0(a0)
F:/private/nanoCH57x-private/doc/CH572EVT/EVT/EXAM/SRC/Startup/startup_CH572.S:145
	sw t0, (a1)
     e94:	0055a023          	sw	t0,0(a1)
F:/private/nanoCH57x-private/doc/CH572EVT/EVT/EXAM/SRC/Startup/startup_CH572.S:146
	addi a0, a0, 4
     e98:	0511                	addi	a0,a0,4
F:/private/nanoCH57x-private/doc/CH572EVT/EVT/EXAM/SRC/Startup/startup_CH572.S:147
	addi a1, a1, 4
     e9a:	0591                	addi	a1,a1,4
F:/private/nanoCH57x-private/doc/CH572EVT/EVT/EXAM/SRC/Startup/startup_CH572.S:148
	bltu a1, a2, 1b
     e9c:	fec5eae3          	bltu	a1,a2,e90 <handle_reset+0x50>
F:/private/nanoCH57x-private/doc/CH572EVT/EVT/EXAM/SRC/Startup/startup_CH572.S:151
2:
	/* clear bss section */
	la a0, _sbss
     ea0:	81418513          	addi	a0,gp,-2028 # 20000ebc <Freq_LSI>
F:/private/nanoCH57x-private/doc/CH572EVT/EVT/EXAM/SRC/Startup/startup_CH572.S:152
	la a1, _ebss
     ea4:	20001597          	auipc	a1,0x20001
     ea8:	05c58593          	addi	a1,a1,92 # 20001f00 <_ebss>
F:/private/nanoCH57x-private/doc/CH572EVT/EVT/EXAM/SRC/Startup/startup_CH572.S:153
	bgeu a0, a1, 2f
     eac:	00b57763          	bgeu	a0,a1,eba <handle_reset+0x7a>
F:/private/nanoCH57x-private/doc/CH572EVT/EVT/EXAM/SRC/Startup/startup_CH572.S:155
1:
	sw zero, (a0)
     eb0:	00052023          	sw	zero,0(a0)
F:/private/nanoCH57x-private/doc/CH572EVT/EVT/EXAM/SRC/Startup/startup_CH572.S:156
	addi a0, a0, 4
     eb4:	0511                	addi	a0,a0,4
F:/private/nanoCH57x-private/doc/CH572EVT/EVT/EXAM/SRC/Startup/startup_CH572.S:157
	bltu a0, a1, 1b
     eb6:	feb56de3          	bltu	a0,a1,eb0 <handle_reset+0x70>
F:/private/nanoCH57x-private/doc/CH572EVT/EVT/EXAM/SRC/Startup/startup_CH572.S:161
2:
	/*  */
	/**/
	li t0, 0x25
     eba:	02500293          	li	t0,37
F:/private/nanoCH57x-private/doc/CH572EVT/EVT/EXAM/SRC/Startup/startup_CH572.S:162
	csrw 0xbc0, t0
     ebe:	bc029073          	csrw	0xbc0,t0
F:/private/nanoCH57x-private/doc/CH572EVT/EVT/EXAM/SRC/Startup/startup_CH572.S:164
	/*  */
	li t0, 0x3
     ec2:	428d                	li	t0,3
F:/private/nanoCH57x-private/doc/CH572EVT/EVT/EXAM/SRC/Startup/startup_CH572.S:165
	csrw 0x804, t0
     ec4:	80429073          	csrw	0x804,t0
F:/private/nanoCH57x-private/doc/CH572EVT/EVT/EXAM/SRC/Startup/startup_CH572.S:166
	li t0, 0x1
     ec8:	4285                	li	t0,1
F:/private/nanoCH57x-private/doc/CH572EVT/EVT/EXAM/SRC/Startup/startup_CH572.S:167
	csrw 0xbc1, t0
     eca:	bc129073          	csrw	0xbc1,t0
F:/private/nanoCH57x-private/doc/CH572EVT/EVT/EXAM/SRC/Startup/startup_CH572.S:169
	
    li t0, 0x88
     ece:	08800293          	li	t0,136
F:/private/nanoCH57x-private/doc/CH572EVT/EVT/EXAM/SRC/Startup/startup_CH572.S:170
    csrw mstatus, t0
     ed2:	30029073          	csrw	mstatus,t0
F:/private/nanoCH57x-private/doc/CH572EVT/EVT/EXAM/SRC/Startup/startup_CH572.S:171
	la t0, _vector_base
     ed6:	1ffff297          	auipc	t0,0x1ffff
     eda:	12a28293          	addi	t0,t0,298 # 20000000 <_highcode_vma_start>
F:/private/nanoCH57x-private/doc/CH572EVT/EVT/EXAM/SRC/Startup/startup_CH572.S:174

	/*  */
    ori t0, t0, 3
     ede:	0032e293          	ori	t0,t0,3
F:/private/nanoCH57x-private/doc/CH572EVT/EVT/EXAM/SRC/Startup/startup_CH572.S:175
	csrw mtvec, t0
     ee2:	30529073          	csrw	mtvec,t0
F:/private/nanoCH57x-private/doc/CH572EVT/EVT/EXAM/SRC/Startup/startup_CH572.S:177

	la t0, main
     ee6:	00001297          	auipc	t0,0x1
     eea:	ad228293          	addi	t0,t0,-1326 # 19b8 <main>
F:/private/nanoCH57x-private/doc/CH572EVT/EVT/EXAM/SRC/Startup/startup_CH572.S:178
	csrw mepc, t0
     eee:	34129073          	csrw	mepc,t0
F:/private/nanoCH57x-private/doc/CH572EVT/EVT/EXAM/SRC/Startup/startup_CH572.S:180
	
	mret
     ef2:	30200073          	mret

00000ef6 <memcpy>:
memcpy():
     ef6:	832a                	mv	t1,a0
     ef8:	ca09                	beqz	a2,f0a <memcpy+0x14>
     efa:	00058383          	lb	t2,0(a1)
     efe:	00730023          	sb	t2,0(t1)
     f02:	167d                	addi	a2,a2,-1
     f04:	0305                	addi	t1,t1,1
     f06:	0585                	addi	a1,a1,1
     f08:	fa6d                	bnez	a2,efa <memcpy+0x4>
     f0a:	8082                	ret

00000f0c <memset>:
memset():
     f0c:	832a                	mv	t1,a0
     f0e:	c611                	beqz	a2,f1a <memset+0xe>
     f10:	00b30023          	sb	a1,0(t1)
     f14:	167d                	addi	a2,a2,-1
     f16:	0305                	addi	t1,t1,1
     f18:	fe65                	bnez	a2,f10 <memset+0x4>
     f1a:	8082                	ret

00000f1c <HSECFG_Capacitance>:
HSECFG_Capacitance():
F:/private/nanoCH57x-private/doc/CH572EVT/EVT/EXAM/SRC/StdPeriphDriver/CH57x_clk.c:81
 */
void HSECFG_Capacitance(HSECapTypeDef c)
{
    uint8_t x32M_c;

    x32M_c = R8_XT32M_TUNE;
     f1c:	40001737          	lui	a4,0x40001
     f20:	04e74783          	lbu	a5,78(a4) # 4000104e <_eusrstack+0x1fffe04e>
F:/private/nanoCH57x-private/doc/CH572EVT/EVT/EXAM/SRC/StdPeriphDriver/CH57x_clk.c:82
    x32M_c = (x32M_c & 0x0f) | (c << 4);
     f24:	0512                	slli	a0,a0,0x4
F:/private/nanoCH57x-private/doc/CH572EVT/EVT/EXAM/SRC/StdPeriphDriver/CH57x_clk.c:78
{
     f26:	1141                	addi	sp,sp,-16
F:/private/nanoCH57x-private/doc/CH572EVT/EVT/EXAM/SRC/StdPeriphDriver/CH57x_clk.c:82
    x32M_c = (x32M_c & 0x0f) | (c << 4);
     f28:	8bbd                	andi	a5,a5,15
     f2a:	8fc9                	or	a5,a5,a0
     f2c:	0ff7f793          	zext.b	a5,a5
__risc_v_disable_irq():
F:\private\nanoCH57x-private\doc\CH572EVT\EVT\EXAM\SRC\RVMSIS/core_riscv.h:154
    __asm volatile("csrrc %0, 0x800, %1" : \
     f30:	08800693          	li	a3,136
     f34:	8006b6f3          	csrrc	a3,0x800,a3
F:\private\nanoCH57x-private\doc\CH572EVT\EVT\EXAM\SRC\RVMSIS/core_riscv.h:156
    return result & 0x88;
     f38:	0886f693          	andi	a3,a3,136
HSECFG_Capacitance():
F:/private/nanoCH57x-private/doc/CH572EVT/EVT/EXAM/SRC/StdPeriphDriver/CH57x_clk.c:84

    sys_safe_access_enable();
     f3c:	c636                	sw	a3,12(sp)
     f3e:	0000100f          	fence.i
     f42:	05700693          	li	a3,87
     f46:	04d70023          	sb	a3,64(a4)
     f4a:	fa800693          	li	a3,-88
     f4e:	04d70023          	sb	a3,64(a4)
     f52:	0000100f          	fence.i
F:/private/nanoCH57x-private/doc/CH572EVT/EVT/EXAM/SRC/StdPeriphDriver/CH57x_clk.c:85
    R8_XT32M_TUNE = x32M_c;
     f56:	04f70723          	sb	a5,78(a4)
F:/private/nanoCH57x-private/doc/CH572EVT/EVT/EXAM/SRC/StdPeriphDriver/CH57x_clk.c:86
    sys_safe_access_disable();
     f5a:	04070023          	sb	zero,64(a4)
     f5e:	47b2                	lw	a5,12(sp)
__risc_v_enable_irq():
F:\private\nanoCH57x-private\doc\CH572EVT\EVT\EXAM\SRC\RVMSIS/core_riscv.h:138
    __asm volatile("csrrs %0, 0x800, %1" : \
     f60:	8007a7f3          	csrrs	a5,0x800,a5
HSECFG_Capacitance():
F:/private/nanoCH57x-private/doc/CH572EVT/EVT/EXAM/SRC/StdPeriphDriver/CH57x_clk.c:86
     f64:	0000100f          	fence.i
F:/private/nanoCH57x-private/doc/CH572EVT/EVT/EXAM/SRC/StdPeriphDriver/CH57x_clk.c:87
}
     f68:	0141                	addi	sp,sp,16
     f6a:	8082                	ret

00000f6c <RTC_InitClock>:
RTC_InitClock():
F:/private/nanoCH57x-private/doc/CH572EVT/EVT/EXAM/SRC/StdPeriphDriver/CH57x_clk.c:99
 * @param   cnt     - the total number of cycles captured by the oscillator
 *
 * @return  RTC, 24~42KHz
 */
uint32_t RTC_InitClock(RTC_OSCCntTypeDef cnt)
{
     f6c:	1101                	addi	sp,sp,-32
     f6e:	ca26                	sw	s1,20(sp)
     f70:	ce06                	sw	ra,28(sp)
     f72:	cc22                	sw	s0,24(sp)
F:/private/nanoCH57x-private/doc/CH572EVT/EVT/EXAM/SRC/StdPeriphDriver/CH57x_clk.c:102
    uint32_t count;
    uint32_t cyc;
    if(cnt<Count_32)
     f74:	4789                	li	a5,2
F:/private/nanoCH57x-private/doc/CH572EVT/EVT/EXAM/SRC/StdPeriphDriver/CH57x_clk.c:104
    {
        cyc = 1<<cnt;
     f76:	28a014b3          	bset	s1,zero,a0
F:/private/nanoCH57x-private/doc/CH572EVT/EVT/EXAM/SRC/StdPeriphDriver/CH57x_clk.c:102
    if(cnt<Count_32)
     f7a:	00a7f963          	bgeu	a5,a0,f8c <RTC_InitClock+0x20>
F:/private/nanoCH57x-private/doc/CH572EVT/EVT/EXAM/SRC/StdPeriphDriver/CH57x_clk.c:106
    }
    else if(cnt<Count_1024)
     f7e:	4795                	li	a5,5
     f80:	0aa7e463          	bltu	a5,a0,1028 <RTC_InitClock+0xbc>
F:/private/nanoCH57x-private/doc/CH572EVT/EVT/EXAM/SRC/StdPeriphDriver/CH57x_clk.c:108
    {
        cyc = 1<<(cnt+2);
     f84:	00250493          	addi	s1,a0,2
     f88:	289014b3          	bset	s1,zero,s1
F:/private/nanoCH57x-private/doc/CH572EVT/EVT/EXAM/SRC/StdPeriphDriver/CH57x_clk.c:118
    }
    else
    {
        cyc = 2047;
    }
    R16_OSC_CAL_CNT |= RB_OSC_CAL_OV_CLR | RB_OSC_CAL_IF;
     f8c:	400017b7          	lui	a5,0x40001
     f90:	0507d703          	lhu	a4,80(a5) # 40001050 <_eusrstack+0x1fffe050>
     f94:	66b1                	lui	a3,0xc
     f96:	8f55                	or	a4,a4,a3
     f98:	04e79823          	sh	a4,80(a5)
__risc_v_disable_irq():
F:\private\nanoCH57x-private\doc\CH572EVT\EVT\EXAM\SRC\RVMSIS/core_riscv.h:154
    __asm volatile("csrrc %0, 0x800, %1" : \
     f9c:	08800713          	li	a4,136
     fa0:	80073773          	csrrc	a4,0x800,a4
F:\private\nanoCH57x-private\doc\CH572EVT\EVT\EXAM\SRC\RVMSIS/core_riscv.h:156
    return result & 0x88;
     fa4:	08877713          	andi	a4,a4,136
RTC_InitClock():
F:/private/nanoCH57x-private/doc/CH572EVT/EVT/EXAM/SRC/StdPeriphDriver/CH57x_clk.c:119
    sys_safe_access_enable();
     fa8:	c63a                	sw	a4,12(sp)
     faa:	0000100f          	fence.i
     fae:	05700713          	li	a4,87
     fb2:	04e78023          	sb	a4,64(a5)
     fb6:	fa800713          	li	a4,-88
     fba:	04e78023          	sb	a4,64(a5)
     fbe:	0000100f          	fence.i
F:/private/nanoCH57x-private/doc/CH572EVT/EVT/EXAM/SRC/StdPeriphDriver/CH57x_clk.c:120
    R8_OSC_CAL_CTRL |= RB_CNT_CLR;
     fc2:	0537c703          	lbu	a4,83(a5)
F:/private/nanoCH57x-private/doc/CH572EVT/EVT/EXAM/SRC/StdPeriphDriver/CH57x_clk.c:121
    R8_OSC_CAL_CTRL = cnt;
     fc6:	0ff57513          	zext.b	a0,a0
F:/private/nanoCH57x-private/doc/CH572EVT/EVT/EXAM/SRC/StdPeriphDriver/CH57x_clk.c:120
    R8_OSC_CAL_CTRL |= RB_CNT_CLR;
     fca:	08076713          	ori	a4,a4,128
     fce:	04e789a3          	sb	a4,83(a5)
F:/private/nanoCH57x-private/doc/CH572EVT/EVT/EXAM/SRC/StdPeriphDriver/CH57x_clk.c:121
    R8_OSC_CAL_CTRL = cnt;
     fd2:	04a789a3          	sb	a0,83(a5)
F:/private/nanoCH57x-private/doc/CH572EVT/EVT/EXAM/SRC/StdPeriphDriver/CH57x_clk.c:122
    R8_OSC_CAL_CTRL |= RB_OSC_CNT_EN;
     fd6:	0537c703          	lbu	a4,83(a5)
     fda:	02076713          	ori	a4,a4,32
     fde:	04e789a3          	sb	a4,83(a5)
F:/private/nanoCH57x-private/doc/CH572EVT/EVT/EXAM/SRC/StdPeriphDriver/CH57x_clk.c:123
    sys_safe_access_disable();
     fe2:	04078023          	sb	zero,64(a5)
     fe6:	47b2                	lw	a5,12(sp)
__risc_v_enable_irq():
F:\private\nanoCH57x-private\doc\CH572EVT\EVT\EXAM\SRC\RVMSIS/core_riscv.h:138
    __asm volatile("csrrs %0, 0x800, %1" : \
     fe8:	8007a7f3          	csrrs	a5,0x800,a5
RTC_InitClock():
F:/private/nanoCH57x-private/doc/CH572EVT/EVT/EXAM/SRC/StdPeriphDriver/CH57x_clk.c:123
     fec:	0000100f          	fence.i
F:/private/nanoCH57x-private/doc/CH572EVT/EVT/EXAM/SRC/StdPeriphDriver/CH57x_clk.c:124
    while(!(R16_OSC_CAL_CNT&RB_OSC_CAL_IF));
     ff0:	400017b7          	lui	a5,0x40001
F:/private/nanoCH57x-private/doc/CH572EVT/EVT/EXAM/SRC/StdPeriphDriver/CH57x_clk.c:124 (discriminator 1)
     ff4:	0507d703          	lhu	a4,80(a5) # 40001050 <_eusrstack+0x1fffe050>
     ff8:	60571713          	sext.h	a4,a4
     ffc:	fe075ce3          	bgez	a4,ff4 <RTC_InitClock+0x88>
F:/private/nanoCH57x-private/doc/CH572EVT/EVT/EXAM/SRC/StdPeriphDriver/CH57x_clk.c:125
    count = ((uint32_t)R16_OSC_CAL_CNT&RB_OSC_CAL_CNT) + (uint32_t)R8_OSC_CAL_OV_CNT*16384;
    1000:	0507d403          	lhu	s0,80(a5)
    1004:	0527c783          	lbu	a5,82(a5)
    1008:	044a                	slli	s0,s0,0x12
    100a:	07ba                	slli	a5,a5,0xe
    100c:	8049                	srli	s0,s0,0x12
    100e:	943e                	add	s0,s0,a5
F:/private/nanoCH57x-private/doc/CH572EVT/EVT/EXAM/SRC/StdPeriphDriver/CH57x_clk.c:126
    Freq_LSI = GetSysClock()/(count/cyc);
    1010:	2c7d                	jal	12ce <GetSysClock>
    1012:	02945433          	divu	s0,s0,s1
F:/private/nanoCH57x-private/doc/CH572EVT/EVT/EXAM/SRC/StdPeriphDriver/CH57x_clk.c:128
    return Freq_LSI;
}
    1016:	40f2                	lw	ra,28(sp)
    1018:	44d2                	lw	s1,20(sp)
F:/private/nanoCH57x-private/doc/CH572EVT/EVT/EXAM/SRC/StdPeriphDriver/CH57x_clk.c:126
    Freq_LSI = GetSysClock()/(count/cyc);
    101a:	02855533          	divu	a0,a0,s0
F:/private/nanoCH57x-private/doc/CH572EVT/EVT/EXAM/SRC/StdPeriphDriver/CH57x_clk.c:128
}
    101e:	4462                	lw	s0,24(sp)
F:/private/nanoCH57x-private/doc/CH572EVT/EVT/EXAM/SRC/StdPeriphDriver/CH57x_clk.c:126
    Freq_LSI = GetSysClock()/(count/cyc);
    1020:	80a1aa23          	sw	a0,-2028(gp) # 20000ebc <Freq_LSI>
F:/private/nanoCH57x-private/doc/CH572EVT/EVT/EXAM/SRC/StdPeriphDriver/CH57x_clk.c:128
}
    1024:	6105                	addi	sp,sp,32
    1026:	8082                	ret
F:/private/nanoCH57x-private/doc/CH572EVT/EVT/EXAM/SRC/StdPeriphDriver/CH57x_clk.c:110
    else if(cnt<Count_2047)
    1028:	4799                	li	a5,6
F:/private/nanoCH57x-private/doc/CH572EVT/EVT/EXAM/SRC/StdPeriphDriver/CH57x_clk.c:112
        cyc = 1024;
    102a:	40000493          	li	s1,1024
F:/private/nanoCH57x-private/doc/CH572EVT/EVT/EXAM/SRC/StdPeriphDriver/CH57x_clk.c:110
    else if(cnt<Count_2047)
    102e:	f4f50fe3          	beq	a0,a5,f8c <RTC_InitClock+0x20>
F:/private/nanoCH57x-private/doc/CH572EVT/EVT/EXAM/SRC/StdPeriphDriver/CH57x_clk.c:116
        cyc = 2047;
    1032:	7ff00493          	li	s1,2047
    1036:	bf99                	j	f8c <RTC_InitClock+0x20>

00001038 <RTC_InitTime>:
RTC_InitTime():
F:/private/nanoCH57x-private/doc/CH572EVT/EVT/EXAM/SRC/StdPeriphDriver/CH57x_clk.c:145
 * @param   s       - MAX_S = 59
 *
 * @return  none
 */
void RTC_InitTime(uint16_t y, uint16_t mon, uint16_t d, uint16_t h, uint16_t m, uint16_t s)
{
    1038:	1141                	addi	sp,sp,-16
    103a:	8e3a                	mv	t3,a4
F:/private/nanoCH57x-private/doc/CH572EVT/EVT/EXAM/SRC/StdPeriphDriver/CH57x_clk.c:153
    uint32_t         t32k;
    volatile uint8_t clk_pin;
    uint32_t temp,temp1,temp2,temp3;
    uint32_t tmp,tmp1,tmp2;

    year = y;
    103c:	832a                	mv	t1,a0
F:/private/nanoCH57x-private/doc/CH572EVT/EVT/EXAM/SRC/StdPeriphDriver/CH57x_clk.c:155
    month = mon;
    day = 0;
    103e:	4881                	li	a7,0
F:/private/nanoCH57x-private/doc/CH572EVT/EVT/EXAM/SRC/StdPeriphDriver/CH57x_clk.c:156
    while(year > BEGYEAR)
    1040:	7e400e93          	li	t4,2020
F:/private/nanoCH57x-private/doc/CH572EVT/EVT/EXAM/SRC/StdPeriphDriver/CH57x_clk.c:158
    {
        day += YearLength(year - 1);
    1044:	19000f13          	li	t5,400
    1048:	06400f93          	li	t6,100
F:/private/nanoCH57x-private/doc/CH572EVT/EVT/EXAM/SRC/StdPeriphDriver/CH57x_clk.c:156
    while(year > BEGYEAR)
    104c:	146eef63          	bltu	t4,t1,11aa <RTC_InitTime+0x172>
F:/private/nanoCH57x-private/doc/CH572EVT/EVT/EXAM/SRC/StdPeriphDriver/CH57x_clk.c:163
        year--;
    }
    while(month > 1)
    {
        day += monthLength(IsLeapYear(y), month - 2);
    1050:	19000713          	li	a4,400
    1054:	02e57733          	remu	a4,a0,a4
F:/private/nanoCH57x-private/doc/CH572EVT/EVT/EXAM/SRC/StdPeriphDriver/CH57x_clk.c:161
    while(month > 1)
    1058:	4e85                	li	t4,1
F:/private/nanoCH57x-private/doc/CH572EVT/EVT/EXAM/SRC/StdPeriphDriver/CH57x_clk.c:163
        day += monthLength(IsLeapYear(y), month - 2);
    105a:	4f0d                	li	t5,3
    105c:	4f99                	li	t6,6
    105e:	42fd                	li	t0,31
F:/private/nanoCH57x-private/doc/CH572EVT/EVT/EXAM/SRC/StdPeriphDriver/CH57x_clk.c:161
    while(month > 1)
    1060:	18bee163          	bltu	t4,a1,11e2 <RTC_InitTime+0x1aa>
F:/private/nanoCH57x-private/doc/CH572EVT/EVT/EXAM/SRC/StdPeriphDriver/CH57x_clk.c:168
        month--;
    }

    day += d - 1;
    sec2 = (h % 24) * 1800 + m * 30 + s / 2;
    1064:	4761                	li	a4,24
F:/private/nanoCH57x-private/doc/CH572EVT/EVT/EXAM/SRC/StdPeriphDriver/CH57x_clk.c:167
    day += d - 1;
    1066:	167d                	addi	a2,a2,-1
F:/private/nanoCH57x-private/doc/CH572EVT/EVT/EXAM/SRC/StdPeriphDriver/CH57x_clk.c:169
    t32k = (s & 1) ? (Freq_LSI) : (0);
    1068:	8141a503          	lw	a0,-2028(gp) # 20000ebc <Freq_LSI>
F:/private/nanoCH57x-private/doc/CH572EVT/EVT/EXAM/SRC/StdPeriphDriver/CH57x_clk.c:167
    day += d - 1;
    106c:	9646                	add	a2,a2,a7
F:/private/nanoCH57x-private/doc/CH572EVT/EVT/EXAM/SRC/StdPeriphDriver/CH57x_clk.c:169
    t32k = (s & 1) ? (Freq_LSI) : (0);
    106e:	85aa                	mv	a1,a0
F:/private/nanoCH57x-private/doc/CH572EVT/EVT/EXAM/SRC/StdPeriphDriver/CH57x_clk.c:168
    sec2 = (h % 24) * 1800 + m * 30 + s / 2;
    1070:	02e6f6b3          	remu	a3,a3,a4
    1074:	70800713          	li	a4,1800
    1078:	02e68733          	mul	a4,a3,a4
    107c:	46f9                	li	a3,30
    107e:	02de0e33          	mul	t3,t3,a3
    1082:	0017d693          	srli	a3,a5,0x1
F:/private/nanoCH57x-private/doc/CH572EVT/EVT/EXAM/SRC/StdPeriphDriver/CH57x_clk.c:169
    t32k = (s & 1) ? (Freq_LSI) : (0);
    1086:	8b85                	andi	a5,a5,1
F:/private/nanoCH57x-private/doc/CH572EVT/EVT/EXAM/SRC/StdPeriphDriver/CH57x_clk.c:168
    sec2 = (h % 24) * 1800 + m * 30 + s / 2;
    1088:	9772                	add	a4,a4,t3
    108a:	9736                	add	a4,a4,a3
F:/private/nanoCH57x-private/doc/CH572EVT/EVT/EXAM/SRC/StdPeriphDriver/CH57x_clk.c:169
    t32k = (s & 1) ? (Freq_LSI) : (0);
    108c:	e391                	bnez	a5,1090 <RTC_InitTime+0x58>
    108e:	4581                	li	a1,0
F:/private/nanoCH57x-private/doc/CH572EVT/EVT/EXAM/SRC/StdPeriphDriver/CH57x_clk.c:173 (discriminator 4)
    t = sec2;
    t = t << 16 | t32k;

    temp = day * Freq_LSI;
    1090:	02a607b3          	mul	a5,a2,a0
F:/private/nanoCH57x-private/doc/CH572EVT/EVT/EXAM/SRC/StdPeriphDriver/CH57x_clk.c:174 (discriminator 4)
    temp1 = temp % 32768; // 
    1094:	66a1                	lui	a3,0x8
    1096:	16fd                	addi	a3,a3,-1 # 7fff <_data_lma+0x2077>
F:/private/nanoCH57x-private/doc/CH572EVT/EVT/EXAM/SRC/StdPeriphDriver/CH57x_clk.c:177 (discriminator 4)
    temp = temp / 32768; // 

    temp2 = temp1 * 675; // temp1 / 32768 * 2831155200 / 65536
    1098:	2a300613          	li	a2,675
F:/private/nanoCH57x-private/doc/CH572EVT/EVT/EXAM/SRC/StdPeriphDriver/CH57x_clk.c:175 (discriminator 4)
    temp = temp / 32768; // 
    109c:	00f7d813          	srli	a6,a5,0xf
F:/private/nanoCH57x-private/doc/CH572EVT/EVT/EXAM/SRC/StdPeriphDriver/CH57x_clk.c:174 (discriminator 4)
    temp1 = temp % 32768; // 
    10a0:	8ff5                	and	a5,a5,a3
F:/private/nanoCH57x-private/doc/CH572EVT/EVT/EXAM/SRC/StdPeriphDriver/CH57x_clk.c:177 (discriminator 4)
    temp2 = temp1 * 675; // temp1 / 32768 * 2831155200 / 65536
    10a2:	02c787b3          	mul	a5,a5,a2
F:/private/nanoCH57x-private/doc/CH572EVT/EVT/EXAM/SRC/StdPeriphDriver/CH57x_clk.c:189 (discriminator 4)
    tmp1 = tmp % 32768; // 2s
    tmp = tmp / 32768; // 2s

    tmp2 = tmp1 * 2 ; //  2s    // tmp1 / 32768 * 65536

    t32k = (t32k * Freq_LSI + 16384) / 32768; // 
    10a6:	6611                	lui	a2,0x4
    10a8:	02a585b3          	mul	a1,a1,a0
F:/private/nanoCH57x-private/doc/CH572EVT/EVT/EXAM/SRC/StdPeriphDriver/CH57x_clk.c:183 (discriminator 4)
    tmp = sec2 * Freq_LSI;
    10ac:	02a70733          	mul	a4,a4,a0
F:/private/nanoCH57x-private/doc/CH572EVT/EVT/EXAM/SRC/StdPeriphDriver/CH57x_clk.c:189 (discriminator 4)
    t32k = (t32k * Freq_LSI + 16384) / 32768; // 
    10b0:	95b2                	add	a1,a1,a2
F:/private/nanoCH57x-private/doc/CH572EVT/EVT/EXAM/SRC/StdPeriphDriver/CH57x_clk.c:178 (discriminator 4)
    temp3 = temp2 % 512;   //  2s
    10b2:	1ff7f613          	andi	a2,a5,511
F:/private/nanoCH57x-private/doc/CH572EVT/EVT/EXAM/SRC/StdPeriphDriver/CH57x_clk.c:181 (discriminator 4)
    temp1 = temp3 * 128; // 2s    temp3 / 512 * 65536
    10b6:	061e                	slli	a2,a2,0x7
F:/private/nanoCH57x-private/doc/CH572EVT/EVT/EXAM/SRC/StdPeriphDriver/CH57x_clk.c:189 (discriminator 4)
    t32k = (t32k * Freq_LSI + 16384) / 32768; // 
    10b8:	81bd                	srli	a1,a1,0xf
F:/private/nanoCH57x-private/doc/CH572EVT/EVT/EXAM/SRC/StdPeriphDriver/CH57x_clk.c:179 (discriminator 4)
    temp2 = temp2 / 512;   //  2s
    10ba:	83a5                	srli	a5,a5,0x9
F:/private/nanoCH57x-private/doc/CH572EVT/EVT/EXAM/SRC/StdPeriphDriver/CH57x_clk.c:184 (discriminator 4)
    tmp1 = tmp % 32768; // 2s
    10bc:	8ef9                	and	a3,a3,a4
F:/private/nanoCH57x-private/doc/CH572EVT/EVT/EXAM/SRC/StdPeriphDriver/CH57x_clk.c:191 (discriminator 4)

    t32k += tmp2 + temp1; // 
    10be:	20c6a6b3          	sh1add	a3,a3,a2
F:/private/nanoCH57x-private/doc/CH572EVT/EVT/EXAM/SRC/StdPeriphDriver/CH57x_clk.c:185 (discriminator 4)
    tmp = tmp / 32768; // 2s
    10c2:	833d                	srli	a4,a4,0xf
F:/private/nanoCH57x-private/doc/CH572EVT/EVT/EXAM/SRC/StdPeriphDriver/CH57x_clk.c:191 (discriminator 4)
    t32k += tmp2 + temp1; // 
    10c4:	96ae                	add	a3,a3,a1
F:/private/nanoCH57x-private/doc/CH572EVT/EVT/EXAM/SRC/StdPeriphDriver/CH57x_clk.c:192 (discriminator 4)
    tmp += (t32k/65536) + temp2; // 2s
    10c6:	97ba                	add	a5,a5,a4
    10c8:	0106d713          	srli	a4,a3,0x10
    10cc:	97ba                	add	a5,a5,a4
F:/private/nanoCH57x-private/doc/CH572EVT/EVT/EXAM/SRC/StdPeriphDriver/CH57x_clk.c:193 (discriminator 4)
    temp += (tmp/43200);    // 
    10ce:	672d                	lui	a4,0xb
    10d0:	8c070713          	addi	a4,a4,-1856 # a8c0 <_data_lma+0x4938>
    10d4:	02e7d633          	divu	a2,a5,a4
F:/private/nanoCH57x-private/doc/CH572EVT/EVT/EXAM/SRC/StdPeriphDriver/CH57x_clk.c:195 (discriminator 4)

    t32k %= 65536;  // 
    10d8:	0806c6b3          	zext.h	a3,a3
F:/private/nanoCH57x-private/doc/CH572EVT/EVT/EXAM/SRC/StdPeriphDriver/CH57x_clk.c:196 (discriminator 4)
    tmp %= 43200;   // 2s
    10dc:	02e7f733          	remu	a4,a5,a4
F:/private/nanoCH57x-private/doc/CH572EVT/EVT/EXAM/SRC/StdPeriphDriver/CH57x_clk.c:193 (discriminator 4)
    temp += (tmp/43200);    // 
    10e0:	9642                	add	a2,a2,a6
F:/private/nanoCH57x-private/doc/CH572EVT/EVT/EXAM/SRC/StdPeriphDriver/CH57x_clk.c:199 (discriminator 4)

    t = tmp;     // 64000
    t = t << 16 | t32k; // 1
    10e2:	0742                	slli	a4,a4,0x10
    10e4:	8f55                	or	a4,a4,a3
F:/private/nanoCH57x-private/doc/CH572EVT/EVT/EXAM/SRC/StdPeriphDriver/CH57x_clk.c:204 (discriminator 4)


    do
    {
        clk_pin = (R8_LSI_CONFIG & RB_LSI_CLK_PIN);
    10e6:	400016b7          	lui	a3,0x40001
F:/private/nanoCH57x-private/doc/CH572EVT/EVT/EXAM/SRC/StdPeriphDriver/CH57x_clk.c:204 (discriminator 1)
    10ea:	02f6c783          	lbu	a5,47(a3) # 4000102f <_eusrstack+0x1fffe02f>
    10ee:	0807f793          	andi	a5,a5,128
    10f2:	83dc                	sb	a5,7(sp)
F:/private/nanoCH57x-private/doc/CH572EVT/EVT/EXAM/SRC/StdPeriphDriver/CH57x_clk.c:205 (discriminator 1)
    } while(clk_pin != (R8_LSI_CONFIG & RB_LSI_CLK_PIN));
    10f4:	838c                	lbu	a1,7(sp)
    10f6:	02f6c783          	lbu	a5,47(a3)
    10fa:	0807f793          	andi	a5,a5,128
    10fe:	fef596e3          	bne	a1,a5,10ea <RTC_InitTime+0xb2>
F:/private/nanoCH57x-private/doc/CH572EVT/EVT/EXAM/SRC/StdPeriphDriver/CH57x_clk.c:206
    if(!clk_pin)
    1102:	839c                	lbu	a5,7(sp)
F:/private/nanoCH57x-private/doc/CH572EVT/EVT/EXAM/SRC/StdPeriphDriver/CH57x_clk.c:212
    {
        while(!clk_pin)
        {
            do
            {
                clk_pin = (R8_LSI_CONFIG & RB_LSI_CLK_PIN);
    1104:	400016b7          	lui	a3,0x40001
F:/private/nanoCH57x-private/doc/CH572EVT/EVT/EXAM/SRC/StdPeriphDriver/CH57x_clk.c:206
    if(!clk_pin)
    1108:	12078163          	beqz	a5,122a <RTC_InitTime+0x1f2>
__risc_v_disable_irq():
F:\private\nanoCH57x-private\doc\CH572EVT\EVT\EXAM\SRC\RVMSIS/core_riscv.h:154
    __asm volatile("csrrc %0, 0x800, %1" : \
    110c:	08800793          	li	a5,136
    1110:	8007b7f3          	csrrc	a5,0x800,a5
F:\private\nanoCH57x-private\doc\CH572EVT\EVT\EXAM\SRC\RVMSIS/core_riscv.h:156
    return result & 0x88;
    1114:	0887f793          	andi	a5,a5,136
RTC_InitTime():
F:/private/nanoCH57x-private/doc/CH572EVT/EVT/EXAM/SRC/StdPeriphDriver/CH57x_clk.c:217
            } while(clk_pin != (R8_LSI_CONFIG & RB_LSI_CLK_PIN));
        }
    }

    sys_safe_access_enable();
    1118:	c43e                	sw	a5,8(sp)
    111a:	0000100f          	fence.i
    111e:	400017b7          	lui	a5,0x40001
    1122:	05700693          	li	a3,87
    1126:	04d78023          	sb	a3,64(a5) # 40001040 <_eusrstack+0x1fffe040>
    112a:	fa800693          	li	a3,-88
    112e:	04d78023          	sb	a3,64(a5)
    1132:	0000100f          	fence.i
F:/private/nanoCH57x-private/doc/CH572EVT/EVT/EXAM/SRC/StdPeriphDriver/CH57x_clk.c:218
    R32_RTC_TRIG = temp;
    1136:	dbd0                	sw	a2,52(a5)
F:/private/nanoCH57x-private/doc/CH572EVT/EVT/EXAM/SRC/StdPeriphDriver/CH57x_clk.c:219
    R8_RTC_MODE_CTRL |= RB_RTC_LOAD_HI;
    1138:	0317c683          	lbu	a3,49(a5)
    113c:	0806e693          	ori	a3,a3,128
    1140:	02d788a3          	sb	a3,49(a5)
F:/private/nanoCH57x-private/doc/CH572EVT/EVT/EXAM/SRC/StdPeriphDriver/CH57x_clk.c:220
    sys_safe_access_disable();
    1144:	04078023          	sb	zero,64(a5)
    1148:	47a2                	lw	a5,8(sp)
__risc_v_enable_irq():
F:\private\nanoCH57x-private\doc\CH572EVT\EVT\EXAM\SRC\RVMSIS/core_riscv.h:138
    __asm volatile("csrrs %0, 0x800, %1" : \
    114a:	8007a7f3          	csrrs	a5,0x800,a5
RTC_InitTime():
F:/private/nanoCH57x-private/doc/CH572EVT/EVT/EXAM/SRC/StdPeriphDriver/CH57x_clk.c:220
    114e:	0000100f          	fence.i
F:/private/nanoCH57x-private/doc/CH572EVT/EVT/EXAM/SRC/StdPeriphDriver/CH57x_clk.c:221
    while((R32_RTC_TRIG & 0x3FFF) != (R32_RTC_CNT_DIV2 & 0x3FFF));
    1152:	6611                	lui	a2,0x4
    1154:	400017b7          	lui	a5,0x40001
    1158:	167d                	addi	a2,a2,-1 # 3fff <__udivdi3+0x197>
F:/private/nanoCH57x-private/doc/CH572EVT/EVT/EXAM/SRC/StdPeriphDriver/CH57x_clk.c:221 (discriminator 1)
    115a:	5bd4                	lw	a3,52(a5)
    115c:	5fcc                	lw	a1,60(a5)
    115e:	8ead                	xor	a3,a3,a1
    1160:	8ef1                	and	a3,a3,a2
    1162:	fee5                	bnez	a3,115a <RTC_InitTime+0x122>
__risc_v_disable_irq():
F:\private\nanoCH57x-private\doc\CH572EVT\EVT\EXAM\SRC\RVMSIS/core_riscv.h:154
    __asm volatile("csrrc %0, 0x800, %1" : \
    1164:	08800693          	li	a3,136
    1168:	8006b6f3          	csrrc	a3,0x800,a3
F:\private\nanoCH57x-private\doc\CH572EVT\EVT\EXAM\SRC\RVMSIS/core_riscv.h:156
    return result & 0x88;
    116c:	0886f693          	andi	a3,a3,136
RTC_InitTime():
F:/private/nanoCH57x-private/doc/CH572EVT/EVT/EXAM/SRC/StdPeriphDriver/CH57x_clk.c:222
    sys_safe_access_enable();
    1170:	c636                	sw	a3,12(sp)
    1172:	0000100f          	fence.i
    1176:	05700693          	li	a3,87
    117a:	04d78023          	sb	a3,64(a5) # 40001040 <_eusrstack+0x1fffe040>
    117e:	fa800693          	li	a3,-88
    1182:	04d78023          	sb	a3,64(a5)
    1186:	0000100f          	fence.i
F:/private/nanoCH57x-private/doc/CH572EVT/EVT/EXAM/SRC/StdPeriphDriver/CH57x_clk.c:223
    R32_RTC_TRIG = t;
    118a:	dbd8                	sw	a4,52(a5)
F:/private/nanoCH57x-private/doc/CH572EVT/EVT/EXAM/SRC/StdPeriphDriver/CH57x_clk.c:224
    R8_RTC_MODE_CTRL |= RB_RTC_LOAD_LO;
    118c:	0317c703          	lbu	a4,49(a5)
    1190:	04076713          	ori	a4,a4,64
    1194:	02e788a3          	sb	a4,49(a5)
F:/private/nanoCH57x-private/doc/CH572EVT/EVT/EXAM/SRC/StdPeriphDriver/CH57x_clk.c:225
    sys_safe_access_disable();
    1198:	04078023          	sb	zero,64(a5)
    119c:	47b2                	lw	a5,12(sp)
__risc_v_enable_irq():
F:\private\nanoCH57x-private\doc\CH572EVT\EVT\EXAM\SRC\RVMSIS/core_riscv.h:138
    __asm volatile("csrrs %0, 0x800, %1" : \
    119e:	8007a7f3          	csrrs	a5,0x800,a5
RTC_InitTime():
F:/private/nanoCH57x-private/doc/CH572EVT/EVT/EXAM/SRC/StdPeriphDriver/CH57x_clk.c:225
    11a2:	0000100f          	fence.i
F:/private/nanoCH57x-private/doc/CH572EVT/EVT/EXAM/SRC/StdPeriphDriver/CH57x_clk.c:226
}
    11a6:	0141                	addi	sp,sp,16
    11a8:	8082                	ret
F:/private/nanoCH57x-private/doc/CH572EVT/EVT/EXAM/SRC/StdPeriphDriver/CH57x_clk.c:158
        day += YearLength(year - 1);
    11aa:	137d                	addi	t1,t1,-1
    11ac:	03e37733          	remu	a4,t1,t5
    11b0:	16e00813          	li	a6,366
    11b4:	cf01                	beqz	a4,11cc <RTC_InitTime+0x194>
    11b6:	03f37733          	remu	a4,t1,t6
F:/private/nanoCH57x-private/doc/CH572EVT/EVT/EXAM/SRC/StdPeriphDriver/CH57x_clk.c:158 (discriminator 2)
    11ba:	16d00813          	li	a6,365
    11be:	c719                	beqz	a4,11cc <RTC_InitTime+0x194>
F:/private/nanoCH57x-private/doc/CH572EVT/EVT/EXAM/SRC/StdPeriphDriver/CH57x_clk.c:158 (discriminator 3)
    11c0:	00337813          	andi	a6,t1,3
    11c4:	00183813          	seqz	a6,a6
    11c8:	16d80813          	addi	a6,a6,365
F:/private/nanoCH57x-private/doc/CH572EVT/EVT/EXAM/SRC/StdPeriphDriver/CH57x_clk.c:158 (discriminator 8)
    11cc:	98c2                	add	a7,a7,a6
F:/private/nanoCH57x-private/doc/CH572EVT/EVT/EXAM/SRC/StdPeriphDriver/CH57x_clk.c:159 (discriminator 8)
        year--;
    11ce:	bdbd                	j	104c <RTC_InitTime+0x14>
F:/private/nanoCH57x-private/doc/CH572EVT/EVT/EXAM/SRC/StdPeriphDriver/CH57x_clk.c:163 (discriminator 2)
        day += monthLength(IsLeapYear(y), month - 2);
    11d0:	0015f813          	andi	a6,a1,1
    11d4:	15f9                	addi	a1,a1,-2
    11d6:	02bffb63          	bgeu	t6,a1,120c <RTC_InitTime+0x1d4>
F:/private/nanoCH57x-private/doc/CH572EVT/EVT/EXAM/SRC/StdPeriphDriver/CH57x_clk.c:163
    11da:	01e80593          	addi	a1,a6,30
    11de:	98ae                	add	a7,a7,a1
F:/private/nanoCH57x-private/doc/CH572EVT/EVT/EXAM/SRC/StdPeriphDriver/CH57x_clk.c:164
        month--;
    11e0:	859a                	mv	a1,t1
F:/private/nanoCH57x-private/doc/CH572EVT/EVT/EXAM/SRC/StdPeriphDriver/CH57x_clk.c:163
        day += monthLength(IsLeapYear(y), month - 2);
    11e2:	fff58313          	addi	t1,a1,-1
    11e6:	ffe595e3          	bne	a1,t5,11d0 <RTC_InitTime+0x198>
F:/private/nanoCH57x-private/doc/CH572EVT/EVT/EXAM/SRC/StdPeriphDriver/CH57x_clk.c:163 (discriminator 1)
    11ea:	4585                	li	a1,1
    11ec:	cf01                	beqz	a4,1204 <RTC_InitTime+0x1cc>
F:/private/nanoCH57x-private/doc/CH572EVT/EVT/EXAM/SRC/StdPeriphDriver/CH57x_clk.c:163 (discriminator 4)
    11ee:	06400813          	li	a6,100
    11f2:	03057833          	remu	a6,a0,a6
    11f6:	4581                	li	a1,0
    11f8:	00080663          	beqz	a6,1204 <RTC_InitTime+0x1cc>
F:/private/nanoCH57x-private/doc/CH572EVT/EVT/EXAM/SRC/StdPeriphDriver/CH57x_clk.c:163 (discriminator 5)
    11fc:	00357593          	andi	a1,a0,3
    1200:	0015b593          	seqz	a1,a1
F:/private/nanoCH57x-private/doc/CH572EVT/EVT/EXAM/SRC/StdPeriphDriver/CH57x_clk.c:163 (discriminator 10)
    1204:	05f1                	addi	a1,a1,28
F:/private/nanoCH57x-private/doc/CH572EVT/EVT/EXAM/SRC/StdPeriphDriver/CH57x_clk.c:163 (discriminator 24)
    1206:	98ae                	add	a7,a7,a1
F:/private/nanoCH57x-private/doc/CH572EVT/EVT/EXAM/SRC/StdPeriphDriver/CH57x_clk.c:164 (discriminator 24)
        month--;
    1208:	859a                	mv	a1,t1
    120a:	bd99                	j	1060 <RTC_InitTime+0x28>
    120c:	410285b3          	sub	a1,t0,a6
    1210:	bfdd                	j	1206 <RTC_InitTime+0x1ce>
F:/private/nanoCH57x-private/doc/CH572EVT/EVT/EXAM/SRC/StdPeriphDriver/CH57x_clk.c:212 (discriminator 1)
                clk_pin = (R8_LSI_CONFIG & RB_LSI_CLK_PIN);
    1212:	02f6c783          	lbu	a5,47(a3) # 4000102f <_eusrstack+0x1fffe02f>
    1216:	0807f793          	andi	a5,a5,128
    121a:	83dc                	sb	a5,7(sp)
F:/private/nanoCH57x-private/doc/CH572EVT/EVT/EXAM/SRC/StdPeriphDriver/CH57x_clk.c:213 (discriminator 1)
            } while(clk_pin != (R8_LSI_CONFIG & RB_LSI_CLK_PIN));
    121c:	838c                	lbu	a1,7(sp)
    121e:	02f6c783          	lbu	a5,47(a3)
    1222:	0807f793          	andi	a5,a5,128
    1226:	fef596e3          	bne	a1,a5,1212 <RTC_InitTime+0x1da>
F:/private/nanoCH57x-private/doc/CH572EVT/EVT/EXAM/SRC/StdPeriphDriver/CH57x_clk.c:208
        while(!clk_pin)
    122a:	839c                	lbu	a5,7(sp)
    122c:	d3fd                	beqz	a5,1212 <RTC_InitTime+0x1da>
    122e:	bdf9                	j	110c <RTC_InitTime+0xd4>

00001230 <FLASH_ROM_READ>:
FLASH_ROM_READ():
F:/private/nanoCH57x-private/doc/CH572EVT/EVT/EXAM/SRC/StdPeriphDriver/CH57x_flash.c:43
 *
 * @return  none
 */
void FLASH_ROM_READ(uint32_t StartAddr, void *Buffer, uint32_t len)
{
    uint32_t  i, Length = (len + 3) >> 2;
    1230:	060d                	addi	a2,a2,3
    1232:	9a71                	andi	a2,a2,-4
F:/private/nanoCH57x-private/doc/CH572EVT/EVT/EXAM/SRC/StdPeriphDriver/CH57x_flash.c:47
    uint32_t *pCode = (uint32_t *)StartAddr;
    uint32_t *pBuf = (uint32_t *)Buffer;

    for(i = 0; i < Length; i++)
    1234:	4781                	li	a5,0
    1236:	00f50733          	add	a4,a0,a5
F:/private/nanoCH57x-private/doc/CH572EVT/EVT/EXAM/SRC/StdPeriphDriver/CH57x_flash.c:47 (discriminator 1)
    123a:	00c79363          	bne	a5,a2,1240 <FLASH_ROM_READ+0x10>
F:/private/nanoCH57x-private/doc/CH572EVT/EVT/EXAM/SRC/StdPeriphDriver/CH57x_flash.c:51
    {
        *pBuf++ = *pCode++;
    }
}
    123e:	8082                	ret
F:/private/nanoCH57x-private/doc/CH572EVT/EVT/EXAM/SRC/StdPeriphDriver/CH57x_flash.c:49 (discriminator 3)
        *pBuf++ = *pCode++;
    1240:	4314                	lw	a3,0(a4)
    1242:	00f58733          	add	a4,a1,a5
    1246:	0791                	addi	a5,a5,4
    1248:	c314                	sw	a3,0(a4)
F:/private/nanoCH57x-private/doc/CH572EVT/EVT/EXAM/SRC/StdPeriphDriver/CH57x_flash.c:47 (discriminator 3)
    for(i = 0; i < Length; i++)
    124a:	b7f5                	j	1236 <FLASH_ROM_READ+0x6>

0000124c <GPIOA_ModeCfg>:
GPIOA_ModeCfg():
F:/private/nanoCH57x-private/doc/CH572EVT/EVT/EXAM/SRC/StdPeriphDriver/CH57x_gpio.c:27
 *
 * @return  none
 */
void GPIOA_ModeCfg(uint32_t pin, GPIOModeTypeDef mode)
{
    switch(mode)
    124c:	4791                	li	a5,4
    124e:	04b7ec63          	bltu	a5,a1,12a6 <GPIOA_ModeCfg+0x5a>
    1252:	00004797          	auipc	a5,0x4
    1256:	31e78793          	addi	a5,a5,798 # 5570 <_read+0xe>
    125a:	20f5c5b3          	sh2add	a1,a1,a5
    125e:	4198                	lw	a4,0(a1)
    1260:	973e                	add	a4,a4,a5
    1262:	400017b7          	lui	a5,0x40001
    1266:	0b478793          	addi	a5,a5,180 # 400010b4 <_eusrstack+0x1fffe0b4>
    126a:	8702                	jr	a4
F:/private/nanoCH57x-private/doc/CH572EVT/EVT/EXAM/SRC/StdPeriphDriver/CH57x_gpio.c:30
    {
        case GPIO_ModeIN_Floating:
            R32_PA_PD_DRV &= ~pin;
    126c:	4394                	lw	a3,0(a5)
    126e:	40001737          	lui	a4,0x40001
    1272:	40a6f6b3          	andn	a3,a3,a0
F:/private/nanoCH57x-private/doc/CH572EVT/EVT/EXAM/SRC/StdPeriphDriver/CH57x_gpio.c:42
            R32_PA_PU |= pin;
            R32_PA_DIR &= ~pin;
            break;

        case GPIO_ModeIN_PD:
            R32_PA_PD_DRV |= pin;
    1276:	c394                	sw	a3,0(a5)
F:/private/nanoCH57x-private/doc/CH572EVT/EVT/EXAM/SRC/StdPeriphDriver/CH57x_gpio.c:43
            R32_PA_PU &= ~pin;
    1278:	0b070693          	addi	a3,a4,176 # 400010b0 <_eusrstack+0x1fffe0b0>
    127c:	429c                	lw	a5,0(a3)
    127e:	40a7f7b3          	andn	a5,a5,a0
    1282:	a819                	j	1298 <GPIOA_ModeCfg+0x4c>
F:/private/nanoCH57x-private/doc/CH572EVT/EVT/EXAM/SRC/StdPeriphDriver/CH57x_gpio.c:36
            R32_PA_PD_DRV &= ~pin;
    1284:	4394                	lw	a3,0(a5)
    1286:	40001737          	lui	a4,0x40001
    128a:	40a6f6b3          	andn	a3,a3,a0
    128e:	c394                	sw	a3,0(a5)
F:/private/nanoCH57x-private/doc/CH572EVT/EVT/EXAM/SRC/StdPeriphDriver/CH57x_gpio.c:37
            R32_PA_PU |= pin;
    1290:	0b070693          	addi	a3,a4,176 # 400010b0 <_eusrstack+0x1fffe0b0>
    1294:	429c                	lw	a5,0(a3)
    1296:	8fc9                	or	a5,a5,a0
F:/private/nanoCH57x-private/doc/CH572EVT/EVT/EXAM/SRC/StdPeriphDriver/CH57x_gpio.c:43
            R32_PA_PU &= ~pin;
    1298:	c29c                	sw	a5,0(a3)
F:/private/nanoCH57x-private/doc/CH572EVT/EVT/EXAM/SRC/StdPeriphDriver/CH57x_gpio.c:44
            R32_PA_DIR &= ~pin;
    129a:	0a070793          	addi	a5,a4,160
    129e:	4398                	lw	a4,0(a5)
    12a0:	40a77733          	andn	a4,a4,a0
F:/private/nanoCH57x-private/doc/CH572EVT/EVT/EXAM/SRC/StdPeriphDriver/CH57x_gpio.c:54
            R32_PA_DIR |= pin;
            break;

        case GPIO_ModeOut_PP_20mA:
            R32_PA_PD_DRV |= pin;
            R32_PA_DIR |= pin;
    12a4:	c398                	sw	a4,0(a5)
F:/private/nanoCH57x-private/doc/CH572EVT/EVT/EXAM/SRC/StdPeriphDriver/CH57x_gpio.c:60
            break;

        default:
            break;
    }
}
    12a6:	8082                	ret
F:/private/nanoCH57x-private/doc/CH572EVT/EVT/EXAM/SRC/StdPeriphDriver/CH57x_gpio.c:42
            R32_PA_PD_DRV |= pin;
    12a8:	4394                	lw	a3,0(a5)
    12aa:	40001737          	lui	a4,0x40001
    12ae:	8ec9                	or	a3,a3,a0
    12b0:	b7d9                	j	1276 <GPIOA_ModeCfg+0x2a>
F:/private/nanoCH57x-private/doc/CH572EVT/EVT/EXAM/SRC/StdPeriphDriver/CH57x_gpio.c:48
            R32_PA_PD_DRV &= ~pin;
    12b2:	4398                	lw	a4,0(a5)
    12b4:	40a77733          	andn	a4,a4,a0
F:/private/nanoCH57x-private/doc/CH572EVT/EVT/EXAM/SRC/StdPeriphDriver/CH57x_gpio.c:53
            R32_PA_PD_DRV |= pin;
    12b8:	c398                	sw	a4,0(a5)
F:/private/nanoCH57x-private/doc/CH572EVT/EVT/EXAM/SRC/StdPeriphDriver/CH57x_gpio.c:54
            R32_PA_DIR |= pin;
    12ba:	400017b7          	lui	a5,0x40001
    12be:	0a078793          	addi	a5,a5,160 # 400010a0 <_eusrstack+0x1fffe0a0>
    12c2:	4398                	lw	a4,0(a5)
    12c4:	8f49                	or	a4,a4,a0
    12c6:	bff9                	j	12a4 <GPIOA_ModeCfg+0x58>
F:/private/nanoCH57x-private/doc/CH572EVT/EVT/EXAM/SRC/StdPeriphDriver/CH57x_gpio.c:53
            R32_PA_PD_DRV |= pin;
    12c8:	4398                	lw	a4,0(a5)
    12ca:	8f49                	or	a4,a4,a0
    12cc:	b7f5                	j	12b8 <GPIOA_ModeCfg+0x6c>

000012ce <GetSysClock>:
GetSysClock():
F:/private/nanoCH57x-private/doc/CH572EVT/EVT/EXAM/SRC/StdPeriphDriver/CH57x_sys.c:101
    if((R8_CLK_SYS_CFG & RB_CLK_SYS_MOD) == RB_CLK_SYS_MOD)
    12ce:	400017b7          	lui	a5,0x40001
    12d2:	2798                	lbu	a4,8(a5)
    12d4:	0c000693          	li	a3,192
    12d8:	0c077713          	andi	a4,a4,192
    12dc:	00d71563          	bne	a4,a3,12e6 <GetSysClock+0x18>
F:/private/nanoCH57x-private/doc/CH572EVT/EVT/EXAM/SRC/StdPeriphDriver/CH57x_sys.c:103
        return (Freq_LSI);
    12e0:	8141a503          	lw	a0,-2028(gp) # 20000ebc <Freq_LSI>
    12e4:	8082                	ret
F:/private/nanoCH57x-private/doc/CH572EVT/EVT/EXAM/SRC/StdPeriphDriver/CH57x_sys.c:105
    else if((R8_CLK_SYS_CFG & RB_CLK_SYS_MOD) == 0x40)
    12e6:	2798                	lbu	a4,8(a5)
    12e8:	04000693          	li	a3,64
    12ec:	0c077713          	andi	a4,a4,192
    12f0:	02d71063          	bne	a4,a3,1310 <GetSysClock+0x42>
F:/private/nanoCH57x-private/doc/CH572EVT/EVT/EXAM/SRC/StdPeriphDriver/CH57x_sys.c:107
        return (600000000 / ((R8_CLK_SYS_CFG & 0x1f)?(R8_CLK_SYS_CFG & 0x1f):32));
    12f4:	2794                	lbu	a3,8(a5)
    12f6:	02000713          	li	a4,32
    12fa:	8afd                	andi	a3,a3,31
    12fc:	c299                	beqz	a3,1302 <GetSysClock+0x34>
F:/private/nanoCH57x-private/doc/CH572EVT/EVT/EXAM/SRC/StdPeriphDriver/CH57x_sys.c:107 (discriminator 1)
    12fe:	2798                	lbu	a4,8(a5)
    1300:	8b7d                	andi	a4,a4,31
F:/private/nanoCH57x-private/doc/CH572EVT/EVT/EXAM/SRC/StdPeriphDriver/CH57x_sys.c:107 (discriminator 4)
    1302:	23c34537          	lui	a0,0x23c34
    1306:	60050513          	addi	a0,a0,1536 # 23c34600 <_eusrstack+0x3c31600>
F:/private/nanoCH57x-private/doc/CH572EVT/EVT/EXAM/SRC/StdPeriphDriver/CH57x_sys.c:111 (discriminator 4)
        return (32000000 / ((R8_CLK_SYS_CFG & 0x1f)?(R8_CLK_SYS_CFG & 0x1f):32));
    130a:	02e54533          	div	a0,a0,a4
F:/private/nanoCH57x-private/doc/CH572EVT/EVT/EXAM/SRC/StdPeriphDriver/CH57x_sys.c:113 (discriminator 4)
}
    130e:	8082                	ret
F:/private/nanoCH57x-private/doc/CH572EVT/EVT/EXAM/SRC/StdPeriphDriver/CH57x_sys.c:111
        return (32000000 / ((R8_CLK_SYS_CFG & 0x1f)?(R8_CLK_SYS_CFG & 0x1f):32));
    1310:	2794                	lbu	a3,8(a5)
    1312:	02000713          	li	a4,32
    1316:	8afd                	andi	a3,a3,31
    1318:	c299                	beqz	a3,131e <GetSysClock+0x50>
F:/private/nanoCH57x-private/doc/CH572EVT/EVT/EXAM/SRC/StdPeriphDriver/CH57x_sys.c:111 (discriminator 1)
    131a:	2798                	lbu	a4,8(a5)
    131c:	8b7d                	andi	a4,a4,31
F:/private/nanoCH57x-private/doc/CH572EVT/EVT/EXAM/SRC/StdPeriphDriver/CH57x_sys.c:111 (discriminator 4)
    131e:	01e85537          	lui	a0,0x1e85
    1322:	80050513          	addi	a0,a0,-2048 # 1e84800 <_data_lma+0x1e7e878>
    1326:	b7d5                	j	130a <GetSysClock+0x3c>

00001328 <SYS_GetSysTickCnt>:
SYS_GetSysTickCnt():
F:/private/nanoCH57x-private/doc/CH572EVT/EVT/EXAM/SRC/StdPeriphDriver/CH57x_sys.c:196
    return SysTick->CNTL;
    1328:	e000f7b7          	lui	a5,0xe000f
    132c:	4788                	lw	a0,8(a5)
F:/private/nanoCH57x-private/doc/CH572EVT/EVT/EXAM/SRC/StdPeriphDriver/CH57x_sys.c:197
}
    132e:	8082                	ret

00001330 <_write>:
_write():
F:/private/nanoCH57x-private/doc/CH572EVT/EVT/EXAM/SRC/StdPeriphDriver/CH57x_sys.c:375
    }while(--t);
}

#ifdef DEBUG
int _write(int fd, char *buf, int size)
{
    1330:	8532                	mv	a0,a2
F:/private/nanoCH57x-private/doc/CH572EVT/EVT/EXAM/SRC/StdPeriphDriver/CH57x_sys.c:377
    int i;
    for(i = 0; i < size; i++)
    1332:	4781                	li	a5,0
F:/private/nanoCH57x-private/doc/CH572EVT/EVT/EXAM/SRC/StdPeriphDriver/CH57x_sys.c:379
    {
        while(R8_UART_TFC == UART_FIFO_SIZE);                  /*  */
    1334:	40003737          	lui	a4,0x40003
    1338:	46a1                	li	a3,8
F:/private/nanoCH57x-private/doc/CH572EVT/EVT/EXAM/SRC/StdPeriphDriver/CH57x_sys.c:377 (discriminator 1)
    for(i = 0; i < size; i++)
    133a:	00a7c363          	blt	a5,a0,1340 <_write+0x10>
F:/private/nanoCH57x-private/doc/CH572EVT/EVT/EXAM/SRC/StdPeriphDriver/CH57x_sys.c:383
            R8_UART_THR = *buf++; /*  */
    }
    return size;
}
    133e:	8082                	ret
F:/private/nanoCH57x-private/doc/CH572EVT/EVT/EXAM/SRC/StdPeriphDriver/CH57x_sys.c:379 (discriminator 1)
        while(R8_UART_TFC == UART_FIFO_SIZE);                  /*  */
    1340:	40b74603          	lbu	a2,1035(a4) # 4000340b <_eusrstack+0x2000040b>
    1344:	fed60ee3          	beq	a2,a3,1340 <_write+0x10>
F:/private/nanoCH57x-private/doc/CH572EVT/EVT/EXAM/SRC/StdPeriphDriver/CH57x_sys.c:380 (discriminator 2)
            R8_UART_THR = *buf++; /*  */
    1348:	00f58633          	add	a2,a1,a5
    134c:	2210                	lbu	a2,0(a2)
F:/private/nanoCH57x-private/doc/CH572EVT/EVT/EXAM/SRC/StdPeriphDriver/CH57x_sys.c:377 (discriminator 2)
    for(i = 0; i < size; i++)
    134e:	0785                	addi	a5,a5,1 # e000f001 <_eusrstack+0xc000c001>
F:/private/nanoCH57x-private/doc/CH572EVT/EVT/EXAM/SRC/StdPeriphDriver/CH57x_sys.c:380 (discriminator 2)
            R8_UART_THR = *buf++; /*  */
    1350:	40c70423          	sb	a2,1032(a4)
F:/private/nanoCH57x-private/doc/CH572EVT/EVT/EXAM/SRC/StdPeriphDriver/CH57x_sys.c:377 (discriminator 2)
    for(i = 0; i < size; i++)
    1354:	b7dd                	j	133a <_write+0xa>

00001356 <_sbrk>:
_sbrk():
F:/private/nanoCH57x-private/doc/CH572EVT/EVT/EXAM/SRC/StdPeriphDriver/CH57x_sys.c:400
void *_sbrk(ptrdiff_t incr)
{
    extern char _end[];
    static char *curbrk = _end;

    if ((curbrk + incr < _end) || ((uint32_t)curbrk + incr > (__get_SP() - 64)))
    1356:	20000697          	auipc	a3,0x20000
    135a:	b5268693          	addi	a3,a3,-1198 # 20000ea8 <curbrk.0>
F:/private/nanoCH57x-private/doc/CH572EVT/EVT/EXAM/SRC/StdPeriphDriver/CH57x_sys.c:396
{
    135e:	87aa                	mv	a5,a0
F:/private/nanoCH57x-private/doc/CH572EVT/EVT/EXAM/SRC/StdPeriphDriver/CH57x_sys.c:400
    if ((curbrk + incr < _end) || ((uint32_t)curbrk + incr > (__get_SP() - 64)))
    1360:	4288                	lw	a0,0(a3)
    1362:	20001717          	auipc	a4,0x20001
    1366:	b9e70713          	addi	a4,a4,-1122 # 20001f00 <_ebss>
    136a:	97aa                	add	a5,a5,a0
    136c:	00e7e963          	bltu	a5,a4,137e <_sbrk+0x28>
__get_SP():
F:\private\nanoCH57x-private\doc\CH572EVT\EVT\EXAM\SRC\RVMSIS/core_riscv.h:630 (discriminator 1)
 */
__attribute__((always_inline)) RV_STATIC_INLINE uint32_t __get_SP(void)
{
    uint32_t result;

    __ASM volatile("mv %0," "sp" : "=r"(result) :);
    1370:	870a                	mv	a4,sp
_sbrk():
F:/private/nanoCH57x-private/doc/CH572EVT/EVT/EXAM/SRC/StdPeriphDriver/CH57x_sys.c:400 (discriminator 1)
    1372:	fc070713          	addi	a4,a4,-64
    1376:	00f76463          	bltu	a4,a5,137e <_sbrk+0x28>
F:/private/nanoCH57x-private/doc/CH572EVT/EVT/EXAM/SRC/StdPeriphDriver/CH57x_sys.c:403
    return NULL - 1;

    curbrk += incr;
    137a:	c29c                	sw	a5,0(a3)
F:/private/nanoCH57x-private/doc/CH572EVT/EVT/EXAM/SRC/StdPeriphDriver/CH57x_sys.c:404
    return curbrk - incr;
    137c:	8082                	ret
F:/private/nanoCH57x-private/doc/CH572EVT/EVT/EXAM/SRC/StdPeriphDriver/CH57x_sys.c:401
    return NULL - 1;
    137e:	557d                	li	a0,-1
F:/private/nanoCH57x-private/doc/CH572EVT/EVT/EXAM/SRC/StdPeriphDriver/CH57x_sys.c:405
}
    1380:	8082                	ret

00001382 <UART_BaudRateCfg>:
UART_BaudRateCfg():
F:/private/nanoCH57x-private/doc/CH572EVT/EVT/EXAM/SRC/StdPeriphDriver/CH57x_uart.c:43
 * @param   baudrate    - 
 *
 * @return  none
 */
void UART_BaudRateCfg(uint32_t baudrate)
{
    1382:	1141                	addi	sp,sp,-16
    1384:	c422                	sw	s0,8(sp)
    1386:	c606                	sw	ra,12(sp)
    1388:	842a                	mv	s0,a0
F:/private/nanoCH57x-private/doc/CH572EVT/EVT/EXAM/SRC/StdPeriphDriver/CH57x_uart.c:46
    uint32_t x;

    x = 10 * GetSysClock() / 8 / baudrate;
    138a:	3791                	jal	12ce <GetSysClock>
    138c:	4729                	li	a4,10
    138e:	02e507b3          	mul	a5,a0,a4
F:/private/nanoCH57x-private/doc/CH572EVT/EVT/EXAM/SRC/StdPeriphDriver/CH57x_uart.c:49
    x = (x + 5) / 10;
    R16_UART_DL = (uint16_t)x;
}
    1392:	40b2                	lw	ra,12(sp)
F:/private/nanoCH57x-private/doc/CH572EVT/EVT/EXAM/SRC/StdPeriphDriver/CH57x_uart.c:46
    x = 10 * GetSysClock() / 8 / baudrate;
    1394:	838d                	srli	a5,a5,0x3
    1396:	0287d7b3          	divu	a5,a5,s0
F:/private/nanoCH57x-private/doc/CH572EVT/EVT/EXAM/SRC/StdPeriphDriver/CH57x_uart.c:49
}
    139a:	4422                	lw	s0,8(sp)
F:/private/nanoCH57x-private/doc/CH572EVT/EVT/EXAM/SRC/StdPeriphDriver/CH57x_uart.c:47
    x = (x + 5) / 10;
    139c:	0795                	addi	a5,a5,5
    139e:	02e7d7b3          	divu	a5,a5,a4
F:/private/nanoCH57x-private/doc/CH572EVT/EVT/EXAM/SRC/StdPeriphDriver/CH57x_uart.c:48
    R16_UART_DL = (uint16_t)x;
    13a2:	40003737          	lui	a4,0x40003
    13a6:	0807c7b3          	zext.h	a5,a5
    13aa:	40f71623          	sh	a5,1036(a4) # 4000340c <_eusrstack+0x2000040c>
F:/private/nanoCH57x-private/doc/CH572EVT/EVT/EXAM/SRC/StdPeriphDriver/CH57x_uart.c:49
}
    13ae:	0141                	addi	sp,sp,16
    13b0:	8082                	ret

000013b2 <UART_DefInit>:
UART_DefInit():
F:/private/nanoCH57x-private/doc/CH572EVT/EVT/EXAM/SRC/StdPeriphDriver/CH57x_uart.c:26
    UART_BaudRateCfg(115200);
    13b2:	6571                	lui	a0,0x1c
F:/private/nanoCH57x-private/doc/CH572EVT/EVT/EXAM/SRC/StdPeriphDriver/CH57x_uart.c:25
{
    13b4:	1141                	addi	sp,sp,-16
F:/private/nanoCH57x-private/doc/CH572EVT/EVT/EXAM/SRC/StdPeriphDriver/CH57x_uart.c:26
    UART_BaudRateCfg(115200);
    13b6:	20050513          	addi	a0,a0,512 # 1c200 <_data_lma+0x16278>
F:/private/nanoCH57x-private/doc/CH572EVT/EVT/EXAM/SRC/StdPeriphDriver/CH57x_uart.c:25
{
    13ba:	c606                	sw	ra,12(sp)
F:/private/nanoCH57x-private/doc/CH572EVT/EVT/EXAM/SRC/StdPeriphDriver/CH57x_uart.c:26
    UART_BaudRateCfg(115200);
    13bc:	37d9                	jal	1382 <UART_BaudRateCfg>
F:/private/nanoCH57x-private/doc/CH572EVT/EVT/EXAM/SRC/StdPeriphDriver/CH57x_uart.c:27
    R8_UART_FCR = (2 << 6) | RB_FCR_FIFO_EN; // FIFO4
    13be:	400037b7          	lui	a5,0x40003
    13c2:	f8100713          	li	a4,-127
    13c6:	40e78123          	sb	a4,1026(a5) # 40003402 <_eusrstack+0x20000402>
F:/private/nanoCH57x-private/doc/CH572EVT/EVT/EXAM/SRC/StdPeriphDriver/CH57x_uart.c:28
    R8_UART_LCR = RB_LCR_WORD_SZ;
    13ca:	470d                	li	a4,3
    13cc:	40e781a3          	sb	a4,1027(a5)
F:/private/nanoCH57x-private/doc/CH572EVT/EVT/EXAM/SRC/StdPeriphDriver/CH57x_uart.c:29
    R8_UART_IER = RB_IER_TXD_EN;
    13d0:	04000713          	li	a4,64
    13d4:	40e780a3          	sb	a4,1025(a5)
F:/private/nanoCH57x-private/doc/CH572EVT/EVT/EXAM/SRC/StdPeriphDriver/CH57x_uart.c:30
    R8_UART_DIV = 1;
    13d8:	4705                	li	a4,1
    13da:	40e78723          	sb	a4,1038(a5)
F:/private/nanoCH57x-private/doc/CH572EVT/EVT/EXAM/SRC/StdPeriphDriver/CH57x_uart.c:31
}
    13de:	40b2                	lw	ra,12(sp)
    13e0:	0141                	addi	sp,sp,16
    13e2:	8082                	ret

000013e4 <UART_Remap>:
UART_Remap():
F:/private/nanoCH57x-private/doc/CH572EVT/EVT/EXAM/SRC/StdPeriphDriver/CH57x_uart.c:153
 */
void UART_Remap(FunctionalState s, UARTTxPinRemapDef u_tx, UARTRxPinRemapDef u_rx)
{
    if(s)
    {
        R16_PIN_ALTERNATE_H &= ~(RB_UART_TXD | RB_UART_RXD); // ShutDown0
    13e4:	40001737          	lui	a4,0x40001
    13e8:	2f3e                	lhu	a5,26(a4)
    13ea:	0807c7b3          	zext.h	a5,a5
    13ee:	fc07f793          	andi	a5,a5,-64
    13f2:	0807c7b3          	zext.h	a5,a5
    13f6:	af3e                	sh	a5,26(a4)
F:/private/nanoCH57x-private/doc/CH572EVT/EVT/EXAM/SRC/StdPeriphDriver/CH57x_uart.c:151
    if(s)
    13f8:	c909                	beqz	a0,140a <UART_Remap+0x26>
F:/private/nanoCH57x-private/doc/CH572EVT/EVT/EXAM/SRC/StdPeriphDriver/CH57x_uart.c:154
        R16_PIN_ALTERNATE_H |= (u_tx << 3) | u_rx;
    13fa:	2f3e                	lhu	a5,26(a4)
    13fc:	058e                	slli	a1,a1,0x3
    13fe:	8e5d                	or	a2,a2,a5
    1400:	8dd1                	or	a1,a1,a2
    1402:	0805c5b3          	zext.h	a1,a1
    1406:	af2e                	sh	a1,26(a4)
    1408:	8082                	ret
F:/private/nanoCH57x-private/doc/CH572EVT/EVT/EXAM/SRC/StdPeriphDriver/CH57x_uart.c:160
    }
    else
    {
        R16_PIN_ALTERNATE_H &= ~(RB_UART_TXD | RB_UART_RXD);
    }
}
    140a:	8082                	ret

0000140c <Lib_Read_Flash>:
Lib_Read_Flash():
F:/private/nanoCH57x-private/doc/CH572EVT/EVT/EXAM/BLE/HAL/MCU.c:33
 * @param   pBuf - Buffer to store read data
 *
 * @return  None.
 */
uint32_t Lib_Read_Flash(uint32_t addr, uint32_t num, uint32_t *pBuf)
{
    140c:	87b2                	mv	a5,a2
    140e:	1141                	addi	sp,sp,-16
F:/private/nanoCH57x-private/doc/CH572EVT/EVT/EXAM/BLE/HAL/MCU.c:34
    FLASH_ROM_READ(addr, pBuf, num * 4);
    1410:	00259613          	slli	a2,a1,0x2
    1414:	85be                	mv	a1,a5
F:/private/nanoCH57x-private/doc/CH572EVT/EVT/EXAM/BLE/HAL/MCU.c:33
{
    1416:	c606                	sw	ra,12(sp)
F:/private/nanoCH57x-private/doc/CH572EVT/EVT/EXAM/BLE/HAL/MCU.c:34
    FLASH_ROM_READ(addr, pBuf, num * 4);
    1418:	3d21                	jal	1230 <FLASH_ROM_READ>
F:/private/nanoCH57x-private/doc/CH572EVT/EVT/EXAM/BLE/HAL/MCU.c:36
    return 0;
}
    141a:	40b2                	lw	ra,12(sp)
    141c:	4501                	li	a0,0
    141e:	0141                	addi	sp,sp,16
    1420:	8082                	ret

00001422 <Lib_Write_Flash>:
Lib_Write_Flash():
F:/private/nanoCH57x-private/doc/CH572EVT/EVT/EXAM/BLE/HAL/MCU.c:50
 * @param   pBuf - Buffer with data to be written
 *
 * @return  None.
 */
uint32_t Lib_Write_Flash(uint32_t addr, uint32_t num, uint32_t *pBuf)
{
    1422:	1101                	addi	sp,sp,-32
    1424:	cc22                	sw	s0,24(sp)
    1426:	ca26                	sw	s1,20(sp)
F:/private/nanoCH57x-private/doc/CH572EVT/EVT/EXAM/BLE/HAL/MCU.c:51
    FLASH_ROM_ERASE(addr, num * 4);
    1428:	00259693          	slli	a3,a1,0x2
F:/private/nanoCH57x-private/doc/CH572EVT/EVT/EXAM/BLE/HAL/MCU.c:50
{
    142c:	842a                	mv	s0,a0
    142e:	84b2                	mv	s1,a2
F:/private/nanoCH57x-private/doc/CH572EVT/EVT/EXAM/BLE/HAL/MCU.c:51
    FLASH_ROM_ERASE(addr, num * 4);
    1430:	85aa                	mv	a1,a0
    1432:	4601                	li	a2,0
    1434:	4505                	li	a0,1
F:/private/nanoCH57x-private/doc/CH572EVT/EVT/EXAM/BLE/HAL/MCU.c:50
{
    1436:	ce06                	sw	ra,28(sp)
F:/private/nanoCH57x-private/doc/CH572EVT/EVT/EXAM/BLE/HAL/MCU.c:51
    FLASH_ROM_ERASE(addr, num * 4);
    1438:	c636                	sw	a3,12(sp)
    143a:	2be9                	jal	1a14 <FLASH_EEPROM_CMD>
F:/private/nanoCH57x-private/doc/CH572EVT/EVT/EXAM/BLE/HAL/MCU.c:52
    FLASH_ROM_WRITE(addr, pBuf, num * 4);
    143c:	46b2                	lw	a3,12(sp)
    143e:	8626                	mv	a2,s1
    1440:	85a2                	mv	a1,s0
    1442:	4509                	li	a0,2
    1444:	2bc1                	jal	1a14 <FLASH_EEPROM_CMD>
F:/private/nanoCH57x-private/doc/CH572EVT/EVT/EXAM/BLE/HAL/MCU.c:54
    return 0;
}
    1446:	40f2                	lw	ra,28(sp)
    1448:	4462                	lw	s0,24(sp)
    144a:	44d2                	lw	s1,20(sp)
    144c:	4501                	li	a0,0
    144e:	6105                	addi	sp,sp,32
    1450:	8082                	ret

00001452 <HAL_ProcessEvent>:
HAL_ProcessEvent():
F:/private/nanoCH57x-private/doc/CH572EVT/EVT/EXAM/BLE/HAL/MCU.c:147
 *                      contain more than one event.
 *
 * @return  events.
 */
tmosEvents HAL_ProcessEvent(tmosTaskID task_id, tmosEvents events)
{
    1452:	1141                	addi	sp,sp,-16
    1454:	c422                	sw	s0,8(sp)
    1456:	c606                	sw	ra,12(sp)
    1458:	842e                	mv	s0,a1
F:/private/nanoCH57x-private/doc/CH572EVT/EVT/EXAM/BLE/HAL/MCU.c:150
    uint8_t *msgPtr;

    if(events & SYS_EVENT_MSG)
    145a:	60559793          	sext.h	a5,a1
    145e:	0007dd63          	bgez	a5,1478 <HAL_ProcessEvent+0x26>
F:/private/nanoCH57x-private/doc/CH572EVT/EVT/EXAM/BLE/HAL/MCU.c:152
    { // HALtmos_msg_receive
        msgPtr = tmos_msg_receive(task_id);
    1462:	73a000ef          	jal	ra,1b9c <tmos_msg_receive>
F:/private/nanoCH57x-private/doc/CH572EVT/EVT/EXAM/BLE/HAL/MCU.c:153
        if(msgPtr)
    1466:	c119                	beqz	a0,146c <HAL_ProcessEvent+0x1a>
F:/private/nanoCH57x-private/doc/CH572EVT/EVT/EXAM/BLE/HAL/MCU.c:156
        {
            /* De-allocate */
            tmos_msg_deallocate(msgPtr);
    1468:	6e2000ef          	jal	ra,1b4a <tmos_msg_deallocate>
F:/private/nanoCH57x-private/doc/CH572EVT/EVT/EXAM/BLE/HAL/MCU.c:158
        }
        return events ^ SYS_EVENT_MSG;
    146c:	68f41513          	binvi	a0,s0,0xf
F:/private/nanoCH57x-private/doc/CH572EVT/EVT/EXAM/BLE/HAL/MCU.c:190
        PRINT("* \n");
        tmos_start_task(halTaskID, HAL_TEST_EVENT, MS1_TO_SYSTEM_TIME(1000));
        return events ^ HAL_TEST_EVENT;
    }
    return 0;
}
    1470:	40b2                	lw	ra,12(sp)
    1472:	4422                	lw	s0,8(sp)
    1474:	0141                	addi	sp,sp,16
    1476:	8082                	ret
F:/private/nanoCH57x-private/doc/CH572EVT/EVT/EXAM/BLE/HAL/MCU.c:160
    if(events & LED_BLINK_EVENT)
    1478:	0015f793          	andi	a5,a1,1
F:/private/nanoCH57x-private/doc/CH572EVT/EVT/EXAM/BLE/HAL/MCU.c:165
        return events ^ LED_BLINK_EVENT;
    147c:	0015c513          	xori	a0,a1,1
F:/private/nanoCH57x-private/doc/CH572EVT/EVT/EXAM/BLE/HAL/MCU.c:160
    if(events & LED_BLINK_EVENT)
    1480:	fbe5                	bnez	a5,1470 <HAL_ProcessEvent+0x1e>
F:/private/nanoCH57x-private/doc/CH572EVT/EVT/EXAM/BLE/HAL/MCU.c:175
    if(events & HAL_REG_INIT_EVENT)
    1482:	6789                	lui	a5,0x2
    1484:	8fed                	and	a5,a5,a1
    1486:	cf99                	beqz	a5,14a4 <HAL_ProcessEvent+0x52>
F:/private/nanoCH57x-private/doc/CH572EVT/EVT/EXAM/BLE/HAL/MCU.c:178
        BLE_RegInit();                                                  // RFRFRFRF
    1488:	6c3000ef          	jal	ra,234a <BLE_RegInit>
F:/private/nanoCH57x-private/doc/CH572EVT/EVT/EXAM/BLE/HAL/MCU.c:179
        tmos_start_task(halTaskID, HAL_REG_INIT_EVENT, MS1_TO_SYSTEM_TIME(BLE_CALIBRATION_PERIOD));
    148c:	0002f637          	lui	a2,0x2f
    1490:	e0060613          	addi	a2,a2,-512 # 2ee00 <_data_lma+0x28e78>
    1494:	6589                	lui	a1,0x2
    1496:	81c1c503          	lbu	a0,-2020(gp) # 20000ec4 <halTaskID>
    149a:	039000ef          	jal	ra,1cd2 <tmos_start_task>
F:/private/nanoCH57x-private/doc/CH572EVT/EVT/EXAM/BLE/HAL/MCU.c:180
        return events ^ HAL_REG_INIT_EVENT;
    149e:	68d41513          	binvi	a0,s0,0xd
    14a2:	b7f9                	j	1470 <HAL_ProcessEvent+0x1e>
F:/private/nanoCH57x-private/doc/CH572EVT/EVT/EXAM/BLE/HAL/MCU.c:183
    if(events & HAL_TEST_EVENT)
    14a4:	6511                	lui	a0,0x4
    14a6:	8d6d                	and	a0,a0,a1
    14a8:	d561                	beqz	a0,1470 <HAL_ProcessEvent+0x1e>
F:/private/nanoCH57x-private/doc/CH572EVT/EVT/EXAM/BLE/HAL/MCU.c:185
        PRINT("* \n");
    14aa:	00004517          	auipc	a0,0x4
    14ae:	0da50513          	addi	a0,a0,218 # 5584 <_read+0x22>
    14b2:	76b020ef          	jal	ra,441c <puts>
F:/private/nanoCH57x-private/doc/CH572EVT/EVT/EXAM/BLE/HAL/MCU.c:186
        tmos_start_task(halTaskID, HAL_TEST_EVENT, MS1_TO_SYSTEM_TIME(1000));
    14b6:	64000613          	li	a2,1600
    14ba:	6591                	lui	a1,0x4
    14bc:	81c1c503          	lbu	a0,-2020(gp) # 20000ec4 <halTaskID>
    14c0:	013000ef          	jal	ra,1cd2 <tmos_start_task>
F:/private/nanoCH57x-private/doc/CH572EVT/EVT/EXAM/BLE/HAL/MCU.c:187
        return events ^ HAL_TEST_EVENT;
    14c4:	68e41513          	binvi	a0,s0,0xe
    14c8:	b765                	j	1470 <HAL_ProcessEvent+0x1e>

000014ca <CH57x_BLEInit>:
CH57x_BLEInit():
F:/private/nanoCH57x-private/doc/CH572EVT/EVT/EXAM/BLE/HAL/MCU.c:67
{
    14ca:	715d                	addi	sp,sp,-80
F:/private/nanoCH57x-private/doc/CH572EVT/EVT/EXAM/BLE/HAL/MCU.c:70
    if(tmos_memcmp(VER_LIB, VER_FILE, strlen(VER_FILE)) == FALSE)
    14cc:	465d                	li	a2,23
    14ce:	00004597          	auipc	a1,0x4
    14d2:	0ba58593          	addi	a1,a1,186 # 5588 <_read+0x26>
    14d6:	00004517          	auipc	a0,0x4
    14da:	19250513          	addi	a0,a0,402 # 5668 <VER_LIB>
F:/private/nanoCH57x-private/doc/CH572EVT/EVT/EXAM/BLE/HAL/MCU.c:67
{
    14de:	c686                	sw	ra,76(sp)
    14e0:	c4a2                	sw	s0,72(sp)
F:/private/nanoCH57x-private/doc/CH572EVT/EVT/EXAM/BLE/HAL/MCU.c:70
    if(tmos_memcmp(VER_LIB, VER_FILE, strlen(VER_FILE)) == FALSE)
    14e2:	1ffff097          	auipc	ra,0x1ffff
    14e6:	c68080e7          	jalr	-920(ra) # 2000014a <tmos_memcmp>
    14ea:	e901                	bnez	a0,14fa <CH57x_BLEInit+0x30>
F:/private/nanoCH57x-private/doc/CH572EVT/EVT/EXAM/BLE/HAL/MCU.c:72
        PRINT("head file error...\n");
    14ec:	00004517          	auipc	a0,0x4
    14f0:	0b450513          	addi	a0,a0,180 # 55a0 <_read+0x3e>
    14f4:	729020ef          	jal	ra,441c <puts>
F:/private/nanoCH57x-private/doc/CH572EVT/EVT/EXAM/BLE/HAL/MCU.c:73 (discriminator 1)
        while(1);
    14f8:	a001                	j	14f8 <CH57x_BLEInit+0x2e>
__SysTick_Config():
F:\private\nanoCH57x-private\doc\CH572EVT\EVT\EXAM\SRC\RVMSIS/core_riscv.h:680
RV_STATIC_INLINE uint32_t __SysTick_Config(uint32_t ticks)
{
    if ((ticks - 1) > SysTick_LOAD_RELOAD_Msk)
        return (1); /* Reload value impossible */

    SysTick->CNTL = 0;
    14fa:	e000f7b7          	lui	a5,0xe000f
    14fe:	0007a423          	sw	zero,8(a5) # e000f008 <_eusrstack+0xc000c008>
F:\private\nanoCH57x-private\doc\CH572EVT\EVT\EXAM\SRC\RVMSIS/core_riscv.h:681
    SysTick->CMP = ticks - 1;   /* set reload register */
    1502:	5779                	li	a4,-2
    1504:	cb98                	sw	a4,16(a5)
F:\private\nanoCH57x-private\doc\CH572EVT\EVT\EXAM\SRC\RVMSIS/core_riscv.h:682
    SysTick->CTLR = SysTick_CTLR_STRE   |
    1506:	473d                	li	a4,15
    1508:	c398                	sw	a4,0(a5)
__risc_v_disable_irq():
F:\private\nanoCH57x-private\doc\CH572EVT\EVT\EXAM\SRC\RVMSIS/core_riscv.h:154
    __asm volatile("csrrc %0, 0x800, %1" : \
    150a:	08800793          	li	a5,136
    150e:	8007b7f3          	csrrc	a5,0x800,a5
F:\private\nanoCH57x-private\doc\CH572EVT\EVT\EXAM\SRC\RVMSIS/core_riscv.h:156
    return result & 0x88;
    1512:	0887f793          	andi	a5,a5,136
CH57x_BLEInit():
F:/private/nanoCH57x-private/doc/CH572EVT/EVT/EXAM/BLE/HAL/MCU.c:78
    sys_safe_access_enable( );
    1516:	c03e                	sw	a5,0(sp)
    1518:	0000100f          	fence.i
    151c:	400017b7          	lui	a5,0x40001
    1520:	05700713          	li	a4,87
    1524:	04e78023          	sb	a4,64(a5) # 40001040 <_eusrstack+0x1fffe040>
    1528:	fa800713          	li	a4,-88
    152c:	04e78023          	sb	a4,64(a5)
    1530:	0000100f          	fence.i
F:/private/nanoCH57x-private/doc/CH572EVT/EVT/EXAM/BLE/HAL/MCU.c:79
    R32_MISC_CTRL = (R32_MISC_CTRL&(~(0x3f<<24)))|(0xe<<24);
    1534:	47b8                	lw	a4,72(a5)
    1536:	c10006b7          	lui	a3,0xc1000
    153a:	16fd                	addi	a3,a3,-1 # c0ffffff <_eusrstack+0xa0ffcfff>
    153c:	8f75                	and	a4,a4,a3
    153e:	0e0006b7          	lui	a3,0xe000
    1542:	8f55                	or	a4,a4,a3
    1544:	c7b8                	sw	a4,72(a5)
F:/private/nanoCH57x-private/doc/CH572EVT/EVT/EXAM/BLE/HAL/MCU.c:80
    sys_safe_access_disable( );
    1546:	04078023          	sb	zero,64(a5)
    154a:	4782                	lw	a5,0(sp)
__risc_v_enable_irq():
F:\private\nanoCH57x-private\doc\CH572EVT\EVT\EXAM\SRC\RVMSIS/core_riscv.h:138
    __asm volatile("csrrs %0, 0x800, %1" : \
    154c:	8007a7f3          	csrrs	a5,0x800,a5
CH57x_BLEInit():
F:/private/nanoCH57x-private/doc/CH572EVT/EVT/EXAM/BLE/HAL/MCU.c:80
    1550:	0000100f          	fence.i
F:/private/nanoCH57x-private/doc/CH572EVT/EVT/EXAM/BLE/HAL/MCU.c:81
    g_LLE_IRQLibHandlerLocation = (uint32_t)LLE_IRQLibHandler;
    1554:	1ffff797          	auipc	a5,0x1ffff
    1558:	06878793          	addi	a5,a5,104 # 200005bc <LLE_IRQLibHandler>
    155c:	80f1ac23          	sw	a5,-2024(gp) # 20000ec0 <g_LLE_IRQLibHandlerLocation>
PFIC_SetPriority():
F:\private\nanoCH57x-private\doc\CH572EVT\EVT\EXAM\SRC\RVMSIS/core_riscv.h:268
    PFIC->IPRIOR[(uint32_t)(IRQn)] = priority ? 0x80 : 0;
    1560:	f8000713          	li	a4,-128
    1564:	e000e7b7          	lui	a5,0xe000e
    1568:	40e78aa3          	sb	a4,1045(a5) # e000e415 <_eusrstack+0xc000b415>
CH57x_BLEInit():
F:/private/nanoCH57x-private/doc/CH572EVT/EVT/EXAM/BLE/HAL/MCU.c:83
    tmos_memset(&cfg, 0, sizeof(bleConfig_t));
    156c:	03400613          	li	a2,52
    1570:	4581                	li	a1,0
    1572:	0068                	addi	a0,sp,12
    1574:	1ffff097          	auipc	ra,0x1ffff
    1578:	ba4080e7          	jalr	-1116(ra) # 20000118 <tmos_memset>
F:/private/nanoCH57x-private/doc/CH572EVT/EVT/EXAM/BLE/HAL/MCU.c:84
    cfg.MEMAddr = (uint32_t)MEM_BUF;
    157c:	20000797          	auipc	a5,0x20000
    1580:	98078793          	addi	a5,a5,-1664 # 20000efc <MEM_BUF>
F:/private/nanoCH57x-private/doc/CH572EVT/EVT/EXAM/BLE/HAL/MCU.c:85
    cfg.MEMLen = (uint32_t)BLE_MEMHEAP_SIZE;
    1584:	6405                	lui	s0,0x1
F:/private/nanoCH57x-private/doc/CH572EVT/EVT/EXAM/BLE/HAL/MCU.c:84
    cfg.MEMAddr = (uint32_t)MEM_BUF;
    1586:	c63e                	sw	a5,12(sp)
F:/private/nanoCH57x-private/doc/CH572EVT/EVT/EXAM/BLE/HAL/MCU.c:85
    cfg.MEMLen = (uint32_t)BLE_MEMHEAP_SIZE;
    1588:	e0040793          	addi	a5,s0,-512 # e00 <_einit+0xdfc>
    158c:	80fc                	sh	a5,16(sp)
F:/private/nanoCH57x-private/doc/CH572EVT/EVT/EXAM/BLE/HAL/MCU.c:89
    cfg.TxPower = (uint32_t)BLE_TX_POWER;
    158e:	77e1                	lui	a5,0xffff8
    1590:	8127c793          	xori	a5,a5,-2030
    1594:	02f11023          	sh	a5,32(sp)
F:/private/nanoCH57x-private/doc/CH572EVT/EVT/EXAM/BLE/HAL/MCU.c:97
    cfg.SNVAddr = (uint32_t)BLE_SNV_ADDR;
    1598:	0003b7b7          	lui	a5,0x3b
    159c:	ca3e                	sw	a5,20(sp)
F:/private/nanoCH57x-private/doc/CH572EVT/EVT/EXAM/BLE/HAL/MCU.c:98
    cfg.SNVBlock = (uint32_t)BLE_SNV_BLOCK;
    159e:	030107b7          	lui	a5,0x3010
    15a2:	10078793          	addi	a5,a5,256 # 3010100 <_data_lma+0x300a178>
    15a6:	cc3e                	sw	a5,24(sp)
F:/private/nanoCH57x-private/doc/CH572EVT/EVT/EXAM/BLE/HAL/MCU.c:86
    cfg.BufMaxLen = (uint32_t)BLE_BUFF_MAX_LEN;
    15a8:	47ed                	li	a5,27
    15aa:	86fc                	sh	a5,28(sp)
F:/private/nanoCH57x-private/doc/CH572EVT/EVT/EXAM/BLE/HAL/MCU.c:88
    cfg.TxNumEvent = (uint32_t)BLE_TX_NUM_EVENT;
    15ac:	4785                	li	a5,1
    15ae:	00f10f23          	sb	a5,30(sp)
F:/private/nanoCH57x-private/doc/CH572EVT/EVT/EXAM/BLE/HAL/MCU.c:100
    cfg.readFlashCB = Lib_Read_Flash;
    15b2:	00000797          	auipc	a5,0x0
    15b6:	e5a78793          	addi	a5,a5,-422 # 140c <Lib_Read_Flash>
    15ba:	dc3e                	sw	a5,56(sp)
F:/private/nanoCH57x-private/doc/CH572EVT/EVT/EXAM/BLE/HAL/MCU.c:115
        GetMACAddress(MacAddr);
    15bc:	0003f5b7          	lui	a1,0x3f
F:/private/nanoCH57x-private/doc/CH572EVT/EVT/EXAM/BLE/HAL/MCU.c:101
    cfg.writeFlashCB = Lib_Write_Flash;
    15c0:	00000797          	auipc	a5,0x0
    15c4:	e6278793          	addi	a5,a5,-414 # 1422 <Lib_Write_Flash>
    15c8:	de3e                	sw	a5,60(sp)
F:/private/nanoCH57x-private/doc/CH572EVT/EVT/EXAM/BLE/HAL/MCU.c:115
        GetMACAddress(MacAddr);
    15ca:	4681                	li	a3,0
F:/private/nanoCH57x-private/doc/CH572EVT/EVT/EXAM/BLE/HAL/MCU.c:103
    cfg.srandCB = SYS_GetSysTickCnt;
    15cc:	00000797          	auipc	a5,0x0
    15d0:	d5c78793          	addi	a5,a5,-676 # 1328 <SYS_GetSysTickCnt>
F:/private/nanoCH57x-private/doc/CH572EVT/EVT/EXAM/BLE/HAL/MCU.c:115
        GetMACAddress(MacAddr);
    15d4:	0050                	addi	a2,sp,4
    15d6:	05e1                	addi	a1,a1,24 # 3f018 <_data_lma+0x39090>
    15d8:	4519                	li	a0,6
F:/private/nanoCH57x-private/doc/CH572EVT/EVT/EXAM/BLE/HAL/MCU.c:103
    cfg.srandCB = SYS_GetSysTickCnt;
    15da:	d63e                	sw	a5,44(sp)
F:/private/nanoCH57x-private/doc/CH572EVT/EVT/EXAM/BLE/HAL/MCU.c:115
        GetMACAddress(MacAddr);
    15dc:	2925                	jal	1a14 <FLASH_EEPROM_CMD>
F:/private/nanoCH57x-private/doc/CH572EVT/EVT/EXAM/BLE/HAL/MCU.c:118
            cfg.MacAddr[i] = MacAddr[i]; // mac
    15de:	4619                	li	a2,6
    15e0:	004c                	addi	a1,sp,4
    15e2:	02310513          	addi	a0,sp,35
    15e6:	3a01                	jal	ef6 <memcpy>
F:/private/nanoCH57x-private/doc/CH572EVT/EVT/EXAM/BLE/HAL/MCU.c:122
    if(!cfg.MEMAddr || cfg.MEMLen < 3 * 1024)
    15e8:	47b2                	lw	a5,12(sp)
    15ea:	c791                	beqz	a5,15f6 <CH57x_BLEInit+0x12c>
F:/private/nanoCH57x-private/doc/CH572EVT/EVT/EXAM/BLE/HAL/MCU.c:122 (discriminator 1)
    15ec:	80bc                	lhu	a5,16(sp)
    15ee:	bff40413          	addi	s0,s0,-1025
    15f2:	00f46363          	bltu	s0,a5,15f8 <CH57x_BLEInit+0x12e>
F:/private/nanoCH57x-private/doc/CH572EVT/EVT/EXAM/BLE/HAL/MCU.c:124 (discriminator 3)
        while(1);
    15f6:	a001                	j	15f6 <CH57x_BLEInit+0x12c>
F:/private/nanoCH57x-private/doc/CH572EVT/EVT/EXAM/BLE/HAL/MCU.c:127
    i = BLE_LibInit(&cfg);
    15f8:	0068                	addi	a0,sp,12
    15fa:	279000ef          	jal	ra,2072 <BLE_LibInit>
    15fe:	85aa                	mv	a1,a0
F:/private/nanoCH57x-private/doc/CH572EVT/EVT/EXAM/BLE/HAL/MCU.c:128
    if(i)
    1600:	c901                	beqz	a0,1610 <CH57x_BLEInit+0x146>
F:/private/nanoCH57x-private/doc/CH572EVT/EVT/EXAM/BLE/HAL/MCU.c:130
        PRINT("LIB init error code: %x ...\n", i);
    1602:	00004517          	auipc	a0,0x4
    1606:	fb250513          	addi	a0,a0,-78 # 55b4 <_read+0x52>
    160a:	3f9020ef          	jal	ra,4202 <iprintf>
F:/private/nanoCH57x-private/doc/CH572EVT/EVT/EXAM/BLE/HAL/MCU.c:131 (discriminator 4)
        while(1);
    160e:	a001                	j	160e <CH57x_BLEInit+0x144>
F:/private/nanoCH57x-private/doc/CH572EVT/EVT/EXAM/BLE/HAL/MCU.c:133
}
    1610:	40b6                	lw	ra,76(sp)
    1612:	4426                	lw	s0,72(sp)
    1614:	6161                	addi	sp,sp,80
    1616:	8082                	ret

00001618 <HAL_Init>:
HAL_Init():
F:/private/nanoCH57x-private/doc/CH572EVT/EVT/EXAM/BLE/HAL/MCU.c:202
 * @param   None.
 *
 * @return  None.
 */
void HAL_Init()
{
    1618:	1141                	addi	sp,sp,-16
F:/private/nanoCH57x-private/doc/CH572EVT/EVT/EXAM/BLE/HAL/MCU.c:203
    halTaskID = TMOS_ProcessEventRegister(HAL_ProcessEvent);
    161a:	00000517          	auipc	a0,0x0
    161e:	e3850513          	addi	a0,a0,-456 # 1452 <HAL_ProcessEvent>
F:/private/nanoCH57x-private/doc/CH572EVT/EVT/EXAM/BLE/HAL/MCU.c:202
{
    1622:	c606                	sw	ra,12(sp)
    1624:	c422                	sw	s0,8(sp)
F:/private/nanoCH57x-private/doc/CH572EVT/EVT/EXAM/BLE/HAL/MCU.c:203
    halTaskID = TMOS_ProcessEventRegister(HAL_ProcessEvent);
    1626:	221000ef          	jal	ra,2046 <TMOS_ProcessEventRegister>
    162a:	81c18413          	addi	s0,gp,-2020 # 20000ec4 <halTaskID>
    162e:	a008                	sb	a0,0(s0)
F:/private/nanoCH57x-private/doc/CH572EVT/EVT/EXAM/BLE/HAL/MCU.c:204
    HAL_TimeInit();
    1630:	2809                	jal	1642 <HAL_TimeInit>
F:/private/nanoCH57x-private/doc/CH572EVT/EVT/EXAM/BLE/HAL/MCU.c:215
#endif
#if(defined HAL_KEY) && (HAL_KEY == TRUE)
    HAL_KeyInit();
#endif
#if(defined BLE_CALIBRATION_ENABLE) && (BLE_CALIBRATION_ENABLE == TRUE)
    tmos_start_task(halTaskID, HAL_REG_INIT_EVENT, 800); // 500ms10ms
    1632:	2008                	lbu	a0,0(s0)
F:/private/nanoCH57x-private/doc/CH572EVT/EVT/EXAM/BLE/HAL/MCU.c:218
#endif
//    tmos_start_task( halTaskID, HAL_TEST_EVENT, 1600 );    // 
}
    1634:	4422                	lw	s0,8(sp)
    1636:	40b2                	lw	ra,12(sp)
F:/private/nanoCH57x-private/doc/CH572EVT/EVT/EXAM/BLE/HAL/MCU.c:215
    tmos_start_task(halTaskID, HAL_REG_INIT_EVENT, 800); // 500ms10ms
    1638:	32000613          	li	a2,800
    163c:	6589                	lui	a1,0x2
F:/private/nanoCH57x-private/doc/CH572EVT/EVT/EXAM/BLE/HAL/MCU.c:218
}
    163e:	0141                	addi	sp,sp,16
F:/private/nanoCH57x-private/doc/CH572EVT/EVT/EXAM/BLE/HAL/MCU.c:215
    tmos_start_task(halTaskID, HAL_REG_INIT_EVENT, 800); // 500ms10ms
    1640:	ad49                	j	1cd2 <tmos_start_task>

00001642 <HAL_TimeInit>:
HAL_TimeInit():
F:/private/nanoCH57x-private/doc/CH572EVT/EVT/EXAM/BLE/HAL/RTC.c:90
 * @param   None.
 *
 * @return  None.
 */
void HAL_TimeInit(void)
{
    1642:	7139                	addi	sp,sp,-64
    1644:	da26                	sw	s1,52(sp)
    1646:	de06                	sw	ra,60(sp)
    1648:	dc22                	sw	s0,56(sp)
    164a:	d84a                	sw	s2,48(sp)
    164c:	d64e                	sw	s3,44(sp)
    164e:	d452                	sw	s4,40(sp)
__risc_v_disable_irq():
F:\private\nanoCH57x-private\doc\CH572EVT\EVT\EXAM\SRC\RVMSIS/core_riscv.h:154
    __asm volatile("csrrc %0, 0x800, %1" : \
    1650:	08800493          	li	s1,136
    1654:	8004b7f3          	csrrc	a5,0x800,s1
F:\private\nanoCH57x-private\doc\CH572EVT\EVT\EXAM\SRC\RVMSIS/core_riscv.h:156
    return result & 0x88;
    1658:	0887f793          	andi	a5,a5,136
HAL_TimeInit():
F:/private/nanoCH57x-private/doc/CH572EVT/EVT/EXAM/BLE/HAL/RTC.c:93
    bleClockConfig_t conf;

  sys_safe_access_enable();
    165c:	c23e                	sw	a5,4(sp)
    165e:	0000100f          	fence.i
    1662:	40001437          	lui	s0,0x40001
    1666:	05700993          	li	s3,87
    166a:	05340023          	sb	s3,64(s0) # 40001040 <_eusrstack+0x1fffe040>
    166e:	fa800913          	li	s2,-88
    1672:	05240023          	sb	s2,64(s0)
    1676:	0000100f          	fence.i
F:/private/nanoCH57x-private/doc/CH572EVT/EVT/EXAM/BLE/HAL/RTC.c:94
  R8_LSI_CONFIG |= RB_CLK_LSI_PON;
    167a:	02f44783          	lbu	a5,47(s0)
    167e:	0017e793          	ori	a5,a5,1
    1682:	02f407a3          	sb	a5,47(s0)
F:/private/nanoCH57x-private/doc/CH572EVT/EVT/EXAM/BLE/HAL/RTC.c:95
  sys_safe_access_disable();
    1686:	04040023          	sb	zero,64(s0)
    168a:	4792                	lw	a5,4(sp)
__risc_v_enable_irq():
F:\private\nanoCH57x-private\doc\CH572EVT\EVT\EXAM\SRC\RVMSIS/core_riscv.h:138
    __asm volatile("csrrs %0, 0x800, %1" : \
    168c:	8007a7f3          	csrrs	a5,0x800,a5
HAL_TimeInit():
F:/private/nanoCH57x-private/doc/CH572EVT/EVT/EXAM/BLE/HAL/RTC.c:95
    1690:	0000100f          	fence.i
F:/private/nanoCH57x-private/doc/CH572EVT/EVT/EXAM/BLE/HAL/RTC.c:97

  lsiFrq = RTC_InitClock( Count_1024 );
    1694:	4519                	li	a0,6
    1696:	38d9                	jal	f6c <RTC_InitClock>
    1698:	82018a13          	addi	s4,gp,-2016 # 20000ec8 <lsiFrq>
    169c:	85aa                	mv	a1,a0
    169e:	00aa2023          	sw	a0,0(s4)
F:/private/nanoCH57x-private/doc/CH572EVT/EVT/EXAM/BLE/HAL/RTC.c:99

  PRINT("lsiFrq = %d\n",lsiFrq);
    16a2:	00004517          	auipc	a0,0x4
    16a6:	f3250513          	addi	a0,a0,-206 # 55d4 <_read+0x72>
    16aa:	359020ef          	jal	ra,4202 <iprintf>
F:/private/nanoCH57x-private/doc/CH572EVT/EVT/EXAM/BLE/HAL/RTC.c:101

  RTC_InitTime( 2021,1,28,0,0,0 );
    16ae:	4701                	li	a4,0
    16b0:	4681                	li	a3,0
    16b2:	4671                	li	a2,28
    16b4:	4585                	li	a1,1
    16b6:	4781                	li	a5,0
    16b8:	7e500513          	li	a0,2021
    16bc:	3ab5                	jal	1038 <RTC_InitTime>
F:/private/nanoCH57x-private/doc/CH572EVT/EVT/EXAM/BLE/HAL/RTC.c:103

  conf.ClockAccuracy = 1000;
    16be:	3e800793          	li	a5,1000
    16c2:	83fc                	sh	a5,22(sp)
F:/private/nanoCH57x-private/doc/CH572EVT/EVT/EXAM/BLE/HAL/RTC.c:104
  conf.ClockFrequency = lsiFrq;
    16c4:	000a2783          	lw	a5,0(s4)
F:/private/nanoCH57x-private/doc/CH572EVT/EVT/EXAM/BLE/HAL/RTC.c:108
  conf.ClockMaxCount = RTC_MAX_COUNT;
  conf.getClockValue = SYS_GetClockValue;
  conf.SetPendingIRQ = SYS_SetPendingIRQ;
  TMOS_TimerInit( &conf );
    16c8:	0068                	addi	a0,sp,12
F:/private/nanoCH57x-private/doc/CH572EVT/EVT/EXAM/BLE/HAL/RTC.c:104
  conf.ClockFrequency = lsiFrq;
    16ca:	82fc                	sh	a5,20(sp)
F:/private/nanoCH57x-private/doc/CH572EVT/EVT/EXAM/BLE/HAL/RTC.c:105
  conf.ClockMaxCount = RTC_MAX_COUNT;
    16cc:	a8c007b7          	lui	a5,0xa8c00
    16d0:	c83e                	sw	a5,16(sp)
F:/private/nanoCH57x-private/doc/CH572EVT/EVT/EXAM/BLE/HAL/RTC.c:106
  conf.getClockValue = SYS_GetClockValue;
    16d2:	1ffff797          	auipc	a5,0x1ffff
    16d6:	3d078793          	addi	a5,a5,976 # 20000aa2 <SYS_GetClockValue>
    16da:	c63e                	sw	a5,12(sp)
F:/private/nanoCH57x-private/doc/CH572EVT/EVT/EXAM/BLE/HAL/RTC.c:107
  conf.SetPendingIRQ = SYS_SetPendingIRQ;
    16dc:	1ffff797          	auipc	a5,0x1ffff
    16e0:	3de78793          	addi	a5,a5,990 # 20000aba <SYS_SetPendingIRQ>
    16e4:	ce3e                	sw	a5,28(sp)
F:/private/nanoCH57x-private/doc/CH572EVT/EVT/EXAM/BLE/HAL/RTC.c:108
  TMOS_TimerInit( &conf );
    16e6:	2ef000ef          	jal	ra,21d4 <TMOS_TimerInit>
__risc_v_disable_irq():
F:\private\nanoCH57x-private\doc\CH572EVT\EVT\EXAM\SRC\RVMSIS/core_riscv.h:154
    __asm volatile("csrrc %0, 0x800, %1" : \
    16ea:	8004b4f3          	csrrc	s1,0x800,s1
F:\private\nanoCH57x-private\doc\CH572EVT\EVT\EXAM\SRC\RVMSIS/core_riscv.h:156
    return result & 0x88;
    16ee:	0884f493          	andi	s1,s1,136
HAL_TimeInit():
F:/private/nanoCH57x-private/doc/CH572EVT/EVT/EXAM/BLE/HAL/RTC.c:110

  sys_safe_access_enable();
    16f2:	c426                	sw	s1,8(sp)
    16f4:	0000100f          	fence.i
    16f8:	05340023          	sb	s3,64(s0)
    16fc:	05240023          	sb	s2,64(s0)
    1700:	0000100f          	fence.i
F:/private/nanoCH57x-private/doc/CH572EVT/EVT/EXAM/BLE/HAL/RTC.c:111
  __nop();__nop();
    1704:	0001                	nop
    1706:	0001                	nop
F:/private/nanoCH57x-private/doc/CH572EVT/EVT/EXAM/BLE/HAL/RTC.c:112
  R8_RTC_MODE_CTRL  |= RB_RTC_TRIG_EN;  // 
    1708:	03144783          	lbu	a5,49(s0)
    170c:	0207e793          	ori	a5,a5,32
    1710:	02f408a3          	sb	a5,49(s0)
F:/private/nanoCH57x-private/doc/CH572EVT/EVT/EXAM/BLE/HAL/RTC.c:113
  sys_safe_access_disable();
    1714:	04040023          	sb	zero,64(s0)
    1718:	47a2                	lw	a5,8(sp)
__risc_v_enable_irq():
F:\private\nanoCH57x-private\doc\CH572EVT\EVT\EXAM\SRC\RVMSIS/core_riscv.h:138
    __asm volatile("csrrs %0, 0x800, %1" : \
    171a:	8007a7f3          	csrrs	a5,0x800,a5
HAL_TimeInit():
F:/private/nanoCH57x-private/doc/CH572EVT/EVT/EXAM/BLE/HAL/RTC.c:113
    171e:	0000100f          	fence.i
F:/private/nanoCH57x-private/doc/CH572EVT/EVT/EXAM/BLE/HAL/RTC.c:115
  PFIC_EnableIRQ(RTC_IRQn);
}
    1722:	50f2                	lw	ra,60(sp)
    1724:	5462                	lw	s0,56(sp)
PFIC_EnableIRQ():
F:\private\nanoCH57x-private\doc\CH572EVT\EVT\EXAM\SRC\RVMSIS/core_riscv.h:173
    PFIC->IENR[((uint32_t)(IRQn) >> 5)] = (1 << ((uint32_t)(IRQn) & 0x1F));
    1726:	e000e7b7          	lui	a5,0xe000e
    172a:	10000737          	lui	a4,0x10000
    172e:	10e7a023          	sw	a4,256(a5) # e000e100 <_eusrstack+0xc000b100>
HAL_TimeInit():
F:/private/nanoCH57x-private/doc/CH572EVT/EVT/EXAM/BLE/HAL/RTC.c:115
    1732:	54d2                	lw	s1,52(sp)
    1734:	5942                	lw	s2,48(sp)
    1736:	59b2                	lw	s3,44(sp)
    1738:	5a22                	lw	s4,40(sp)
    173a:	6121                	addi	sp,sp,64
    173c:	8082                	ret

0000173e <RF_ProcessEvent>:
RF_ProcessEvent():
F:\private\nanoCH57x-private\doc\CH572EVT\EVT\EXAM\BLE\RF_PHY\obj/../APP/RF_PHY.c:199
 * @param   events  - 
 *
 * @return  
 */
uint16_t RF_ProcessEvent(uint8_t task_id, uint16_t events)
{
    173e:	1141                	addi	sp,sp,-16
    1740:	c422                	sw	s0,8(sp)
    1742:	c606                	sw	ra,12(sp)
    1744:	842e                	mv	s0,a1
F:\private\nanoCH57x-private\doc\CH572EVT\EVT\EXAM\BLE\RF_PHY\obj/../APP/RF_PHY.c:200
    if(events & SYS_EVENT_MSG)
    1746:	60559793          	sext.h	a5,a1
    174a:	0007db63          	bgez	a5,1760 <RF_ProcessEvent+0x22>
F:\private\nanoCH57x-private\doc\CH572EVT\EVT\EXAM\BLE\RF_PHY\obj/../APP/RF_PHY.c:204
    {
        uint8_t *pMsg;

        if((pMsg = tmos_msg_receive(task_id)) != NULL)
    174e:	21b9                	jal	1b9c <tmos_msg_receive>
    1750:	c111                	beqz	a0,1754 <RF_ProcessEvent+0x16>
F:\private\nanoCH57x-private\doc\CH572EVT\EVT\EXAM\BLE\RF_PHY\obj/../APP/RF_PHY.c:207
        {
            // Release the TMOS message
            tmos_msg_deallocate(pMsg);
    1752:	2ee5                	jal	1b4a <tmos_msg_deallocate>
F:\private\nanoCH57x-private\doc\CH572EVT\EVT\EXAM\BLE\RF_PHY\obj/../APP/RF_PHY.c:210
        }
        // return unprocessed events
        return (events ^ SYS_EVENT_MSG);
    1754:	68f41513          	binvi	a0,s0,0xf
F:\private\nanoCH57x-private\doc\CH572EVT\EVT\EXAM\BLE\RF_PHY\obj/../APP/RF_PHY.c:241
        state = RF_Rx(TX_DATA, 10, 0xFF, 0xFF);
        PRINT("RX mode.state = %x\n", state);
        return events ^ SBP_RF_RF_RX_EVT;
    }
    return 0;
}
    1758:	40b2                	lw	ra,12(sp)
    175a:	4422                	lw	s0,8(sp)
    175c:	0141                	addi	sp,sp,16
    175e:	8082                	ret
F:\private\nanoCH57x-private\doc\CH572EVT\EVT\EXAM\BLE\RF_PHY\obj/../APP/RF_PHY.c:212
    if(events & SBP_RF_START_DEVICE_EVT)
    1760:	0015f793          	andi	a5,a1,1
    1764:	cb91                	beqz	a5,1778 <RF_ProcessEvent+0x3a>
F:\private\nanoCH57x-private\doc\CH572EVT\EVT\EXAM\BLE\RF_PHY\obj/../APP/RF_PHY.c:214
        tmos_start_task(taskID, SBP_RF_PERIODIC_EVT, 1000);
    1766:	3e800613          	li	a2,1000
    176a:	4589                	li	a1,2
    176c:	8261c503          	lbu	a0,-2010(gp) # 20000ece <taskID>
    1770:	238d                	jal	1cd2 <tmos_start_task>
F:\private\nanoCH57x-private\doc\CH572EVT\EVT\EXAM\BLE\RF_PHY\obj/../APP/RF_PHY.c:215
        return events ^ SBP_RF_START_DEVICE_EVT;
    1772:	00144513          	xori	a0,s0,1
    1776:	b7cd                	j	1758 <RF_ProcessEvent+0x1a>
F:\private\nanoCH57x-private\doc\CH572EVT\EVT\EXAM\BLE\RF_PHY\obj/../APP/RF_PHY.c:217
    if(events & SBP_RF_PERIODIC_EVT)
    1778:	0025f793          	andi	a5,a1,2
    177c:	cf95                	beqz	a5,17b8 <RF_ProcessEvent+0x7a>
F:\private\nanoCH57x-private\doc\CH572EVT\EVT\EXAM\BLE\RF_PHY\obj/../APP/RF_PHY.c:219
        RF_Shut();
    177e:	760010ef          	jal	ra,2ede <RF_Shut>
F:\private\nanoCH57x-private\doc\CH572EVT\EVT\EXAM\BLE\RF_PHY\obj/../APP/RF_PHY.c:221
        if(!RF_Tx(TX_DATA, 10, 0xFF, 0xFF))
    1782:	0ff00693          	li	a3,255
    1786:	0ff00613          	li	a2,255
    178a:	45a9                	li	a1,10
    178c:	1ffff517          	auipc	a0,0x1ffff
    1790:	6b050513          	addi	a0,a0,1712 # 20000e3c <TX_DATA>
F:\private\nanoCH57x-private\doc\CH572EVT\EVT\EXAM\BLE\RF_PHY\obj/../APP/RF_PHY.c:220
        tx_end_flag = FALSE;
    1794:	820182a3          	sb	zero,-2011(gp) # 20000ecd <tx_end_flag>
F:\private\nanoCH57x-private\doc\CH572EVT\EVT\EXAM\BLE\RF_PHY\obj/../APP/RF_PHY.c:221
        if(!RF_Tx(TX_DATA, 10, 0xFF, 0xFF))
    1798:	08c010ef          	jal	ra,2824 <RF_Tx>
    179c:	e509                	bnez	a0,17a6 <RF_ProcessEvent+0x68>
F:\private\nanoCH57x-private\doc\CH572EVT\EVT\EXAM\BLE\RF_PHY\obj/../APP/RF_PHY.c:223
            RF_Wait_Tx_End();
    179e:	1ffff097          	auipc	ra,0x1ffff
    17a2:	33a080e7          	jalr	826(ra) # 20000ad8 <RF_Wait_Tx_End>
F:\private\nanoCH57x-private\doc\CH572EVT\EVT\EXAM\BLE\RF_PHY\obj/../APP/RF_PHY.c:225
        tmos_start_task(taskID, SBP_RF_PERIODIC_EVT, 1000);
    17a6:	3e800613          	li	a2,1000
    17aa:	4589                	li	a1,2
    17ac:	8261c503          	lbu	a0,-2010(gp) # 20000ece <taskID>
    17b0:	230d                	jal	1cd2 <tmos_start_task>
F:\private\nanoCH57x-private\doc\CH572EVT\EVT\EXAM\BLE\RF_PHY\obj/../APP/RF_PHY.c:226
        return events ^ SBP_RF_PERIODIC_EVT;
    17b2:	00244513          	xori	a0,s0,2
    17b6:	b74d                	j	1758 <RF_ProcessEvent+0x1a>
F:\private\nanoCH57x-private\doc\CH572EVT\EVT\EXAM\BLE\RF_PHY\obj/../APP/RF_PHY.c:228
    if(events & SBP_RF_RF_RX_EVT)
    17b8:	0045f513          	andi	a0,a1,4
    17bc:	dd51                	beqz	a0,1758 <RF_ProcessEvent+0x1a>
F:\private\nanoCH57x-private\doc\CH572EVT\EVT\EXAM\BLE\RF_PHY\obj/../APP/RF_PHY.c:231
        RF_Shut();
    17be:	720010ef          	jal	ra,2ede <RF_Shut>
F:\private\nanoCH57x-private\doc\CH572EVT\EVT\EXAM\BLE\RF_PHY\obj/../APP/RF_PHY.c:232
        TX_DATA[0]++;
    17c2:	1ffff517          	auipc	a0,0x1ffff
    17c6:	67a50513          	addi	a0,a0,1658 # 20000e3c <TX_DATA>
    17ca:	211c                	lbu	a5,0(a0)
F:\private\nanoCH57x-private\doc\CH572EVT\EVT\EXAM\BLE\RF_PHY\obj/../APP/RF_PHY.c:236
        state = RF_Rx(TX_DATA, 10, 0xFF, 0xFF);
    17cc:	0ff00693          	li	a3,255
    17d0:	0ff00613          	li	a2,255
F:\private\nanoCH57x-private\doc\CH572EVT\EVT\EXAM\BLE\RF_PHY\obj/../APP/RF_PHY.c:232
        TX_DATA[0]++;
    17d4:	0785                	addi	a5,a5,1
F:\private\nanoCH57x-private\doc\CH572EVT\EVT\EXAM\BLE\RF_PHY\obj/../APP/RF_PHY.c:236
        state = RF_Rx(TX_DATA, 10, 0xFF, 0xFF);
    17d6:	45a9                	li	a1,10
F:\private\nanoCH57x-private\doc\CH572EVT\EVT\EXAM\BLE\RF_PHY\obj/../APP/RF_PHY.c:232
        TX_DATA[0]++;
    17d8:	a11c                	sb	a5,0(a0)
F:\private\nanoCH57x-private\doc\CH572EVT\EVT\EXAM\BLE\RF_PHY\obj/../APP/RF_PHY.c:234
        rx_end_flag = FALSE;
    17da:	82018223          	sb	zero,-2012(gp) # 20000ecc <rx_end_flag>
F:\private\nanoCH57x-private\doc\CH572EVT\EVT\EXAM\BLE\RF_PHY\obj/../APP/RF_PHY.c:236
        state = RF_Rx(TX_DATA, 10, 0xFF, 0xFF);
    17de:	1ae010ef          	jal	ra,298c <RF_Rx>
    17e2:	85aa                	mv	a1,a0
F:\private\nanoCH57x-private\doc\CH572EVT\EVT\EXAM\BLE\RF_PHY\obj/../APP/RF_PHY.c:237
        PRINT("RX mode.state = %x\n", state);
    17e4:	00004517          	auipc	a0,0x4
    17e8:	e0050513          	addi	a0,a0,-512 # 55e4 <_read+0x82>
    17ec:	217020ef          	jal	ra,4202 <iprintf>
F:\private\nanoCH57x-private\doc\CH572EVT\EVT\EXAM\BLE\RF_PHY\obj/../APP/RF_PHY.c:238
        return events ^ SBP_RF_RF_RX_EVT;
    17f0:	00444513          	xori	a0,s0,4
    17f4:	b795                	j	1758 <RF_ProcessEvent+0x1a>

000017f6 <RF_2G4StatusCallBack>:
RF_2G4StatusCallBack():
F:\private\nanoCH57x-private\doc\CH572EVT\EVT\EXAM\BLE\RF_PHY\obj/../APP/RF_PHY.c:94
    switch(sta)
    17f6:	47c5                	li	a5,17
    17f8:	0cf50363          	beq	a0,a5,18be <RF_2G4StatusCallBack+0xc8>
    17fc:	02a7e863          	bltu	a5,a0,182c <RF_2G4StatusCallBack+0x36>
F:\private\nanoCH57x-private\doc\CH572EVT\EVT\EXAM\BLE\RF_PHY\obj/../APP/RF_PHY.c:93
{
    1800:	1141                	addi	sp,sp,-16
    1802:	c422                	sw	s0,8(sp)
    1804:	c226                	sw	s1,4(sp)
    1806:	c606                	sw	ra,12(sp)
    1808:	c04a                	sw	s2,0(sp)
F:\private\nanoCH57x-private\doc\CH572EVT\EVT\EXAM\BLE\RF_PHY\obj/../APP/RF_PHY.c:94
    switch(sta)
    180a:	478d                	li	a5,3
    180c:	842e                	mv	s0,a1
    180e:	84b2                	mv	s1,a2
    1810:	0af50b63          	beq	a0,a5,18c6 <RF_2G4StatusCallBack+0xd0>
    1814:	4791                	li	a5,4
    1816:	0ef50d63          	beq	a0,a5,1910 <RF_2G4StatusCallBack+0x11a>
    181a:	4789                	li	a5,2
    181c:	00f50f63          	beq	a0,a5,183a <RF_2G4StatusCallBack+0x44>
F:\private\nanoCH57x-private\doc\CH572EVT\EVT\EXAM\BLE\RF_PHY\obj/../APP/RF_PHY.c:186
}
    1820:	40b2                	lw	ra,12(sp)
    1822:	4422                	lw	s0,8(sp)
    1824:	4492                	lw	s1,4(sp)
    1826:	4902                	lw	s2,0(sp)
    1828:	0141                	addi	sp,sp,16
    182a:	8082                	ret
F:\private\nanoCH57x-private\doc\CH572EVT\EVT\EXAM\BLE\RF_PHY\obj/../APP/RF_PHY.c:94
    switch(sta)
    182c:	47c9                	li	a5,18
    182e:	08f50863          	beq	a0,a5,18be <RF_2G4StatusCallBack+0xc8>
    1832:	47d1                	li	a5,20
    1834:	0ef50b63          	beq	a0,a5,192a <RF_2G4StatusCallBack+0x134>
    1838:	8082                	ret
F:\private\nanoCH57x-private\doc\CH572EVT\EVT\EXAM\BLE\RF_PHY\obj/../APP/RF_PHY.c:111
            tx_end_flag = TRUE;
    183a:	4785                	li	a5,1
    183c:	82f182a3          	sb	a5,-2011(gp) # 20000ecd <tx_end_flag>
F:\private\nanoCH57x-private\doc\CH572EVT\EVT\EXAM\BLE\RF_PHY\obj/../APP/RF_PHY.c:112
            if (crc == 0) {
    1840:	e9a9                	bnez	a1,1892 <RF_2G4StatusCallBack+0x9c>
F:\private\nanoCH57x-private\doc\CH572EVT\EVT\EXAM\BLE\RF_PHY\obj/../APP/RF_PHY.c:115
                PRINT("tx recv,rssi:%d\n", (int8_t)rxBuf[0]);
    1842:	00060583          	lb	a1,0(a2)
    1846:	00004517          	auipc	a0,0x4
    184a:	db250513          	addi	a0,a0,-590 # 55f8 <_read+0x96>
F:\private\nanoCH57x-private\doc\CH572EVT\EVT\EXAM\BLE\RF_PHY\obj/../APP/RF_PHY.c:119
                    PRINT("%x ", rxBuf[i + 2]);
    184e:	00004917          	auipc	s2,0x4
    1852:	dc690913          	addi	s2,s2,-570 # 5614 <_read+0xb2>
F:\private\nanoCH57x-private\doc\CH572EVT\EVT\EXAM\BLE\RF_PHY\obj/../APP/RF_PHY.c:115
                PRINT("tx recv,rssi:%d\n", (int8_t)rxBuf[0]);
    1856:	1ad020ef          	jal	ra,4202 <iprintf>
F:\private\nanoCH57x-private\doc\CH572EVT\EVT\EXAM\BLE\RF_PHY\obj/../APP/RF_PHY.c:116
                PRINT("len:%d-", rxBuf[1]);
    185a:	308c                	lbu	a1,1(s1)
    185c:	00004517          	auipc	a0,0x4
    1860:	db050513          	addi	a0,a0,-592 # 560c <_read+0xaa>
    1864:	19f020ef          	jal	ra,4202 <iprintf>
F:\private\nanoCH57x-private\doc\CH572EVT\EVT\EXAM\BLE\RF_PHY\obj/../APP/RF_PHY.c:118 (discriminator 1)
                for (i = 0; i < rxBuf[1]; i++) {
    1868:	309c                	lbu	a5,1(s1)
    186a:	00f46a63          	bltu	s0,a5,187e <RF_2G4StatusCallBack+0x88>
F:\private\nanoCH57x-private\doc\CH572EVT\EVT\EXAM\BLE\RF_PHY\obj/../APP/RF_PHY.c:186
}
    186e:	4422                	lw	s0,8(sp)
    1870:	40b2                	lw	ra,12(sp)
    1872:	4492                	lw	s1,4(sp)
    1874:	4902                	lw	s2,0(sp)
F:\private\nanoCH57x-private\doc\CH572EVT\EVT\EXAM\BLE\RF_PHY\obj/../APP/RF_PHY.c:121
                PRINT("\n");
    1876:	4529                	li	a0,10
F:\private\nanoCH57x-private\doc\CH572EVT\EVT\EXAM\BLE\RF_PHY\obj/../APP/RF_PHY.c:186
}
    1878:	0141                	addi	sp,sp,16
F:\private\nanoCH57x-private\doc\CH572EVT\EVT\EXAM\BLE\RF_PHY\obj/../APP/RF_PHY.c:121
                PRINT("\n");
    187a:	1c30206f          	j	423c <putchar>
F:\private\nanoCH57x-private\doc\CH572EVT\EVT\EXAM\BLE\RF_PHY\obj/../APP/RF_PHY.c:119 (discriminator 3)
                    PRINT("%x ", rxBuf[i + 2]);
    187e:	008487b3          	add	a5,s1,s0
    1882:	23ac                	lbu	a1,2(a5)
    1884:	854a                	mv	a0,s2
F:\private\nanoCH57x-private\doc\CH572EVT\EVT\EXAM\BLE\RF_PHY\obj/../APP/RF_PHY.c:118 (discriminator 3)
                for (i = 0; i < rxBuf[1]; i++) {
    1886:	0405                	addi	s0,s0,1
F:\private\nanoCH57x-private\doc\CH572EVT\EVT\EXAM\BLE\RF_PHY\obj/../APP/RF_PHY.c:119 (discriminator 3)
                    PRINT("%x ", rxBuf[i + 2]);
    1888:	17b020ef          	jal	ra,4202 <iprintf>
F:\private\nanoCH57x-private\doc\CH572EVT\EVT\EXAM\BLE\RF_PHY\obj/../APP/RF_PHY.c:118 (discriminator 3)
                for (i = 0; i < rxBuf[1]; i++) {
    188c:	0ff47413          	zext.b	s0,s0
    1890:	bfe1                	j	1868 <RF_2G4StatusCallBack+0x72>
F:\private\nanoCH57x-private\doc\CH572EVT\EVT\EXAM\BLE\RF_PHY\obj/../APP/RF_PHY.c:123
                if (crc & (1<<0)) {
    1892:	00147793          	andi	a5,s0,1
    1896:	c799                	beqz	a5,18a4 <RF_2G4StatusCallBack+0xae>
F:\private\nanoCH57x-private\doc\CH572EVT\EVT\EXAM\BLE\RF_PHY\obj/../APP/RF_PHY.c:124
                    PRINT("crc error\n");
    1898:	00004517          	auipc	a0,0x4
    189c:	d8050513          	addi	a0,a0,-640 # 5618 <_read+0xb6>
    18a0:	37d020ef          	jal	ra,441c <puts>
F:\private\nanoCH57x-private\doc\CH572EVT\EVT\EXAM\BLE\RF_PHY\obj/../APP/RF_PHY.c:127
                if (crc & (1<<1)) {
    18a4:	8809                	andi	s0,s0,2
    18a6:	dc2d                	beqz	s0,1820 <RF_2G4StatusCallBack+0x2a>
F:\private\nanoCH57x-private\doc\CH572EVT\EVT\EXAM\BLE\RF_PHY\obj/../APP/RF_PHY.c:186
}
    18a8:	4422                	lw	s0,8(sp)
    18aa:	40b2                	lw	ra,12(sp)
    18ac:	4492                	lw	s1,4(sp)
    18ae:	4902                	lw	s2,0(sp)
F:\private\nanoCH57x-private\doc\CH572EVT\EVT\EXAM\BLE\RF_PHY\obj/../APP/RF_PHY.c:128
                    PRINT("match type error\n");
    18b0:	00004517          	auipc	a0,0x4
    18b4:	d7450513          	addi	a0,a0,-652 # 5624 <_read+0xc2>
F:\private\nanoCH57x-private\doc\CH572EVT\EVT\EXAM\BLE\RF_PHY\obj/../APP/RF_PHY.c:186
}
    18b8:	0141                	addi	sp,sp,16
F:\private\nanoCH57x-private\doc\CH572EVT\EVT\EXAM\BLE\RF_PHY\obj/../APP/RF_PHY.c:128
                    PRINT("match type error\n");
    18ba:	3630206f          	j	441c <puts>
F:\private\nanoCH57x-private\doc\CH572EVT\EVT\EXAM\BLE\RF_PHY\obj/../APP/RF_PHY.c:137
            tx_end_flag = TRUE;
    18be:	4785                	li	a5,1
    18c0:	82f182a3          	sb	a5,-2011(gp) # 20000ecd <tx_end_flag>
F:\private\nanoCH57x-private\doc\CH572EVT\EVT\EXAM\BLE\RF_PHY\obj/../APP/RF_PHY.c:139
            break;
    18c4:	8082                	ret
F:\private\nanoCH57x-private\doc\CH572EVT\EVT\EXAM\BLE\RF_PHY\obj/../APP/RF_PHY.c:143
            if (crc == 0) {
    18c6:	f5f1                	bnez	a1,1892 <RF_2G4StatusCallBack+0x9c>
F:\private\nanoCH57x-private\doc\CH572EVT\EVT\EXAM\BLE\RF_PHY\obj/../APP/RF_PHY.c:146
                RF_Wait_Rx_End();
    18c8:	1ffff097          	auipc	ra,0x1ffff
    18cc:	232080e7          	jalr	562(ra) # 20000afa <RF_Wait_Rx_End>
F:\private\nanoCH57x-private\doc\CH572EVT\EVT\EXAM\BLE\RF_PHY\obj/../APP/RF_PHY.c:148
                PRINT("rx recv, rssi: %d\n", (int8_t)rxBuf[0]);
    18d0:	00048583          	lb	a1,0(s1)
    18d4:	00004517          	auipc	a0,0x4
    18d8:	d6450513          	addi	a0,a0,-668 # 5638 <_read+0xd6>
F:\private\nanoCH57x-private\doc\CH572EVT\EVT\EXAM\BLE\RF_PHY\obj/../APP/RF_PHY.c:152
                    PRINT("%x ", rxBuf[i + 2]);
    18dc:	00004917          	auipc	s2,0x4
    18e0:	d3890913          	addi	s2,s2,-712 # 5614 <_read+0xb2>
F:\private\nanoCH57x-private\doc\CH572EVT\EVT\EXAM\BLE\RF_PHY\obj/../APP/RF_PHY.c:148
                PRINT("rx recv, rssi: %d\n", (int8_t)rxBuf[0]);
    18e4:	11f020ef          	jal	ra,4202 <iprintf>
F:\private\nanoCH57x-private\doc\CH572EVT\EVT\EXAM\BLE\RF_PHY\obj/../APP/RF_PHY.c:149
                PRINT("len:%d-", rxBuf[1]);
    18e8:	308c                	lbu	a1,1(s1)
    18ea:	00004517          	auipc	a0,0x4
    18ee:	d2250513          	addi	a0,a0,-734 # 560c <_read+0xaa>
    18f2:	111020ef          	jal	ra,4202 <iprintf>
F:\private\nanoCH57x-private\doc\CH572EVT\EVT\EXAM\BLE\RF_PHY\obj/../APP/RF_PHY.c:151 (discriminator 1)
                for (i = 0; i < rxBuf[1]; i++) {
    18f6:	309c                	lbu	a5,1(s1)
    18f8:	f6f47be3          	bgeu	s0,a5,186e <RF_2G4StatusCallBack+0x78>
F:\private\nanoCH57x-private\doc\CH572EVT\EVT\EXAM\BLE\RF_PHY\obj/../APP/RF_PHY.c:152 (discriminator 3)
                    PRINT("%x ", rxBuf[i + 2]);
    18fc:	008487b3          	add	a5,s1,s0
    1900:	23ac                	lbu	a1,2(a5)
    1902:	854a                	mv	a0,s2
F:\private\nanoCH57x-private\doc\CH572EVT\EVT\EXAM\BLE\RF_PHY\obj/../APP/RF_PHY.c:151 (discriminator 3)
                for (i = 0; i < rxBuf[1]; i++) {
    1904:	0405                	addi	s0,s0,1
F:\private\nanoCH57x-private\doc\CH572EVT\EVT\EXAM\BLE\RF_PHY\obj/../APP/RF_PHY.c:152 (discriminator 3)
                    PRINT("%x ", rxBuf[i + 2]);
    1906:	0fd020ef          	jal	ra,4202 <iprintf>
F:\private\nanoCH57x-private\doc\CH572EVT\EVT\EXAM\BLE\RF_PHY\obj/../APP/RF_PHY.c:151 (discriminator 3)
                for (i = 0; i < rxBuf[1]; i++) {
    190a:	0ff47413          	zext.b	s0,s0
    190e:	b7e5                	j	18f6 <RF_2G4StatusCallBack+0x100>
F:\private\nanoCH57x-private\doc\CH572EVT\EVT\EXAM\BLE\RF_PHY\obj/../APP/RF_PHY.c:186
}
    1910:	4422                	lw	s0,8(sp)
F:\private\nanoCH57x-private\doc\CH572EVT\EVT\EXAM\BLE\RF_PHY\obj/../APP/RF_PHY.c:172
            rx_end_flag = TRUE;
    1912:	4785                	li	a5,1
    1914:	82f18223          	sb	a5,-2012(gp) # 20000ecc <rx_end_flag>
F:\private\nanoCH57x-private\doc\CH572EVT\EVT\EXAM\BLE\RF_PHY\obj/../APP/RF_PHY.c:186
}
    1918:	40b2                	lw	ra,12(sp)
    191a:	4492                	lw	s1,4(sp)
    191c:	4902                	lw	s2,0(sp)
F:\private\nanoCH57x-private\doc\CH572EVT\EVT\EXAM\BLE\RF_PHY\obj/../APP/RF_PHY.c:173
            tmos_set_event(taskID, SBP_RF_RF_RX_EVT);
    191e:	8261c503          	lbu	a0,-2010(gp) # 20000ece <taskID>
    1922:	4591                	li	a1,4
F:\private\nanoCH57x-private\doc\CH572EVT\EVT\EXAM\BLE\RF_PHY\obj/../APP/RF_PHY.c:186
}
    1924:	0141                	addi	sp,sp,16
F:\private\nanoCH57x-private\doc\CH572EVT\EVT\EXAM\BLE\RF_PHY\obj/../APP/RF_PHY.c:181
            tmos_set_event(taskID, SBP_RF_RF_RX_EVT);
    1926:	1b20406f          	j	5ad8 <tmos_set_event>
F:\private\nanoCH57x-private\doc\CH572EVT\EVT\EXAM\BLE\RF_PHY\obj/../APP/RF_PHY.c:180
            rx_end_flag = TRUE;
    192a:	4785                	li	a5,1
    192c:	82f18223          	sb	a5,-2012(gp) # 20000ecc <rx_end_flag>
F:\private\nanoCH57x-private\doc\CH572EVT\EVT\EXAM\BLE\RF_PHY\obj/../APP/RF_PHY.c:181
            tmos_set_event(taskID, SBP_RF_RF_RX_EVT);
    1930:	4591                	li	a1,4
    1932:	8261c503          	lbu	a0,-2010(gp) # 20000ece <taskID>
    1936:	bfc5                	j	1926 <RF_2G4StatusCallBack+0x130>

00001938 <RF_Init>:
RF_Init():
F:\private\nanoCH57x-private\doc\CH572EVT\EVT\EXAM\BLE\RF_PHY\obj/../APP/RF_PHY.c:251
 * @brief   RF 
 *
 * @return  none
 */
void RF_Init(void)
{
    1938:	7179                	addi	sp,sp,-48
F:\private\nanoCH57x-private\doc\CH572EVT\EVT\EXAM\BLE\RF_PHY\obj/../APP/RF_PHY.c:255
    uint8_t    state;
    rfConfig_t rf_Config;

    tmos_memset(&rf_Config, 0, sizeof(rfConfig_t));
    193a:	4661                	li	a2,24
    193c:	4581                	li	a1,0
    193e:	0028                	addi	a0,sp,8
F:\private\nanoCH57x-private\doc\CH572EVT\EVT\EXAM\BLE\RF_PHY\obj/../APP/RF_PHY.c:251
{
    1940:	d606                	sw	ra,44(sp)
    1942:	d422                	sw	s0,40(sp)
F:\private\nanoCH57x-private\doc\CH572EVT\EVT\EXAM\BLE\RF_PHY\obj/../APP/RF_PHY.c:255
    tmos_memset(&rf_Config, 0, sizeof(rfConfig_t));
    1944:	1fffe097          	auipc	ra,0x1fffe
    1948:	7d4080e7          	jalr	2004(ra) # 20000118 <tmos_memset>
F:\private\nanoCH57x-private\doc\CH572EVT\EVT\EXAM\BLE\RF_PHY\obj/../APP/RF_PHY.c:256
    taskID = TMOS_ProcessEventRegister(RF_ProcessEvent);
    194c:	00000517          	auipc	a0,0x0
    1950:	df250513          	addi	a0,a0,-526 # 173e <RF_ProcessEvent>
    1954:	6f2000ef          	jal	ra,2046 <TMOS_ProcessEventRegister>
F:\private\nanoCH57x-private\doc\CH572EVT\EVT\EXAM\BLE\RF_PHY\obj/../APP/RF_PHY.c:257
    rf_Config.accessAddress = 0x71764129; // 0x555555550xAAAAAAAA ( 24601 )
    1958:	717647b7          	lui	a5,0x71764
    195c:	12978793          	addi	a5,a5,297 # 71764129 <_eusrstack+0x51761129>
    1960:	c83e                	sw	a5,16(sp)
F:\private\nanoCH57x-private\doc\CH572EVT\EVT\EXAM\BLE\RF_PHY\obj/../APP/RF_PHY.c:258
    rf_Config.CRCInit = 0x555555;
    1962:	005557b7          	lui	a5,0x555
    1966:	55578793          	addi	a5,a5,1365 # 555555 <_data_lma+0x54f5cd>
    196a:	ca3e                	sw	a5,20(sp)
F:\private\nanoCH57x-private\doc\CH572EVT\EVT\EXAM\BLE\RF_PHY\obj/../APP/RF_PHY.c:260
    rf_Config.Channel = 39;
    rf_Config.Frequency = 2480000;
    196c:	0025d7b7          	lui	a5,0x25d
    1970:	78078793          	addi	a5,a5,1920 # 25d780 <_data_lma+0x2577f8>
    1974:	c63e                	sw	a5,12(sp)
F:\private\nanoCH57x-private\doc\CH572EVT\EVT\EXAM\BLE\RF_PHY\obj/../APP/RF_PHY.c:262
#if(RF_AUTO_MODE_EXAM)
    rf_Config.LLEMode = LLE_MODE_AUTO;
    1976:	6789                	lui	a5,0x2
    1978:	70178793          	addi	a5,a5,1793 # 2701 <rf_tx_auto_rxProcess+0x9b>
F:\private\nanoCH57x-private\doc\CH572EVT\EVT\EXAM\BLE\RF_PHY\obj/../APP/RF_PHY.c:256
    taskID = TMOS_ProcessEventRegister(RF_ProcessEvent);
    197c:	82618413          	addi	s0,gp,-2010 # 20000ece <taskID>
F:\private\nanoCH57x-private\doc\CH572EVT\EVT\EXAM\BLE\RF_PHY\obj/../APP/RF_PHY.c:262
    rf_Config.LLEMode = LLE_MODE_AUTO;
    1980:	847c                	sh	a5,8(sp)
F:\private\nanoCH57x-private\doc\CH572EVT\EVT\EXAM\BLE\RF_PHY\obj/../APP/RF_PHY.c:266
#else
    rf_Config.LLEMode = LLE_MODE_BASIC | LLE_MODE_EX_CHANNEL; //  LLE_MODE_EX_CHANNEL   rf_Config.Frequency 
#endif
    rf_Config.rfStatusCB = RF_2G4StatusCallBack;
    1982:	00000797          	auipc	a5,0x0
    1986:	e7478793          	addi	a5,a5,-396 # 17f6 <RF_2G4StatusCallBack>
F:\private\nanoCH57x-private\doc\CH572EVT\EVT\EXAM\BLE\RF_PHY\obj/../APP/RF_PHY.c:256
    taskID = TMOS_ProcessEventRegister(RF_ProcessEvent);
    198a:	a008                	sb	a0,0(s0)
F:\private\nanoCH57x-private\doc\CH572EVT\EVT\EXAM\BLE\RF_PHY\obj/../APP/RF_PHY.c:266
    rf_Config.rfStatusCB = RF_2G4StatusCallBack;
    198c:	cc3e                	sw	a5,24(sp)
F:\private\nanoCH57x-private\doc\CH572EVT\EVT\EXAM\BLE\RF_PHY\obj/../APP/RF_PHY.c:268
    rf_Config.RxMaxlen = 251;
    state = RF_Config(&rf_Config);
    198e:	0028                	addi	a0,sp,8
F:\private\nanoCH57x-private\doc\CH572EVT\EVT\EXAM\BLE\RF_PHY\obj/../APP/RF_PHY.c:267
    rf_Config.RxMaxlen = 251;
    1990:	57ed                	li	a5,-5
    1992:	00f10e23          	sb	a5,28(sp)
F:\private\nanoCH57x-private\doc\CH572EVT\EVT\EXAM\BLE\RF_PHY\obj/../APP/RF_PHY.c:268
    state = RF_Config(&rf_Config);
    1996:	575000ef          	jal	ra,270a <RF_Config>
    199a:	85aa                	mv	a1,a0
F:\private\nanoCH57x-private\doc\CH572EVT\EVT\EXAM\BLE\RF_PHY\obj/../APP/RF_PHY.c:269
    PRINT("rf 2.4g init: %x\n", state);
    199c:	00004517          	auipc	a0,0x4
    19a0:	cb050513          	addi	a0,a0,-848 # 564c <_read+0xea>
    19a4:	05f020ef          	jal	ra,4202 <iprintf>
F:\private\nanoCH57x-private\doc\CH572EVT\EVT\EXAM\BLE\RF_PHY\obj/../APP/RF_PHY.c:279
//        state = RF_Rx(TX_DATA, 10, 0xFF, 0xFF);
//        PRINT("RX mode.state = %x\n", state);
//    }

    { // TX mode
        tmos_set_event( taskID , SBP_RF_PERIODIC_EVT );
    19a8:	2008                	lbu	a0,0(s0)
    19aa:	4589                	li	a1,2
    19ac:	12c040ef          	jal	ra,5ad8 <tmos_set_event>
F:\private\nanoCH57x-private\doc\CH572EVT\EVT\EXAM\BLE\RF_PHY\obj/../APP/RF_PHY.c:281
    }
}
    19b0:	50b2                	lw	ra,44(sp)
    19b2:	5422                	lw	s0,40(sp)
    19b4:	6145                	addi	sp,sp,48
    19b6:	8082                	ret

000019b8 <main>:
main():
F:\private\nanoCH57x-private\doc\CH572EVT\EVT\EXAM\BLE\RF_PHY\obj/../APP/RF_main.c:53
 * @brief   
 *
 * @return  none
 */
int main(void)
{
    19b8:	1141                	addi	sp,sp,-16
F:\private\nanoCH57x-private\doc\CH572EVT\EVT\EXAM\BLE\RF_PHY\obj/../APP/RF_main.c:57
#if(defined(DCDC_ENABLE)) && (DCDC_ENABLE == TRUE)
    PWR_DCDCCfg(ENABLE);
#endif
    HSECFG_Capacitance(HSECap_18p);
    19ba:	4519                	li	a0,6
F:\private\nanoCH57x-private\doc\CH572EVT\EVT\EXAM\BLE\RF_PHY\obj/../APP/RF_main.c:53
{
    19bc:	c606                	sw	ra,12(sp)
F:\private\nanoCH57x-private\doc\CH572EVT\EVT\EXAM\BLE\RF_PHY\obj/../APP/RF_main.c:57
    HSECFG_Capacitance(HSECap_18p);
    19be:	d5eff0ef          	jal	ra,f1c <HSECFG_Capacitance>
F:\private\nanoCH57x-private\doc\CH572EVT\EVT\EXAM\BLE\RF_PHY\obj/../APP/RF_main.c:58
    SetSysClock(CLK_SOURCE_HSE_PLL_100MHz);
    19c2:	04600513          	li	a0,70
    19c6:	1ffff097          	auipc	ra,0x1ffff
    19ca:	e18080e7          	jalr	-488(ra) # 200007de <SetSysClock>
F:\private\nanoCH57x-private\doc\CH572EVT\EVT\EXAM\BLE\RF_PHY\obj/../APP/RF_main.c:64
#if(defined(HAL_SLEEP)) && (HAL_SLEEP == TRUE)
    GPIOA_ModeCfg(GPIO_Pin_All, GPIO_ModeIN_PU);
    GPIOB_ModeCfg(GPIO_Pin_All, GPIO_ModeIN_PU);
#endif
#ifdef DEBUG
    GPIOA_SetBits(bTXD_0);
    19ce:	400017b7          	lui	a5,0x40001
    19d2:	4721                	li	a4,8
    19d4:	0ae7ac23          	sw	a4,184(a5) # 400010b8 <_eusrstack+0x1fffe0b8>
F:\private\nanoCH57x-private\doc\CH572EVT\EVT\EXAM\BLE\RF_PHY\obj/../APP/RF_main.c:65
    GPIOA_ModeCfg(bTXD_0, GPIO_ModeOut_PP_5mA); // TXD-IO
    19d8:	458d                	li	a1,3
    19da:	4521                	li	a0,8
    19dc:	871ff0ef          	jal	ra,124c <GPIOA_ModeCfg>
F:\private\nanoCH57x-private\doc\CH572EVT\EVT\EXAM\BLE\RF_PHY\obj/../APP/RF_main.c:66
    UART_Remap(ENABLE, UART_TX_REMAP_PA3, UART_RX_REMAP_PA2);
    19e0:	4601                	li	a2,0
    19e2:	4581                	li	a1,0
    19e4:	4505                	li	a0,1
    19e6:	3afd                	jal	13e4 <UART_Remap>
F:\private\nanoCH57x-private\doc\CH572EVT\EVT\EXAM\BLE\RF_PHY\obj/../APP/RF_main.c:67
    UART_DefInit();
    19e8:	32e9                	jal	13b2 <UART_DefInit>
F:\private\nanoCH57x-private\doc\CH572EVT\EVT\EXAM\BLE\RF_PHY\obj/../APP/RF_main.c:69
#endif
    PRINT("start.\n");
    19ea:	00004517          	auipc	a0,0x4
    19ee:	c7650513          	addi	a0,a0,-906 # 5660 <_read+0xfe>
    19f2:	22b020ef          	jal	ra,441c <puts>
F:\private\nanoCH57x-private\doc\CH572EVT\EVT\EXAM\BLE\RF_PHY\obj/../APP/RF_main.c:70
    PRINT("%s\n", VER_LIB);
    19f6:	00004517          	auipc	a0,0x4
    19fa:	c7250513          	addi	a0,a0,-910 # 5668 <VER_LIB>
    19fe:	21f020ef          	jal	ra,441c <puts>
F:\private\nanoCH57x-private\doc\CH572EVT\EVT\EXAM\BLE\RF_PHY\obj/../APP/RF_main.c:71
    CH57x_BLEInit();
    1a02:	34e1                	jal	14ca <CH57x_BLEInit>
F:\private\nanoCH57x-private\doc\CH572EVT\EVT\EXAM\BLE\RF_PHY\obj/../APP/RF_main.c:72
    HAL_Init();
    1a04:	3911                	jal	1618 <HAL_Init>
F:\private\nanoCH57x-private\doc\CH572EVT\EVT\EXAM\BLE\RF_PHY\obj/../APP/RF_main.c:73
    RF_RoleInit();
    1a06:	544010ef          	jal	ra,2f4a <RF_RoleInit>
F:\private\nanoCH57x-private\doc\CH572EVT\EVT\EXAM\BLE\RF_PHY\obj/../APP/RF_main.c:74
    RF_Init();
    1a0a:	373d                	jal	1938 <RF_Init>
F:\private\nanoCH57x-private\doc\CH572EVT\EVT\EXAM\BLE\RF_PHY\obj/../APP/RF_main.c:75
    Main_Circulation();
    1a0c:	1ffff097          	auipc	ra,0x1ffff
    1a10:	110080e7          	jalr	272(ra) # 20000b1c <Main_Circulation>

00001a14 <FLASH_EEPROM_CMD>:
FLASH_EEPROM_CMD():
    1a14:	1101                	addi	sp,sp,-32
    1a16:	872a                	mv	a4,a0
    1a18:	ce06                	sw	ra,28(sp)
    1a1a:	852e                	mv	a0,a1
    1a1c:	cc26                	sw	s1,24(sp)
    1a1e:	85b2                	mv	a1,a2
    1a20:	ca4a                	sw	s2,20(sp)
    1a22:	8636                	mv	a2,a3
    1a24:	c622                	sw	s0,12(sp)
    1a26:	40002437          	lui	s0,0x40002
    1a2a:	e000e7b7          	lui	a5,0xe000e
    1a2e:	56fd                	li	a3,-1
    1a30:	0007a903          	lw	s2,0(a5) # e000e000 <_eusrstack+0xc000b000>
    1a34:	43c4                	lw	s1,4(a5)
    1a36:	18d7a023          	sw	a3,384(a5)
    1a3a:	18d7a223          	sw	a3,388(a5)
    1a3e:	fff70793          	addi	a5,a4,-1 # fffffff <_data_lma+0xfffa077>
    1a42:	0ff7f793          	zext.b	a5,a5
    1a46:	4689                	li	a3,2
    1a48:	0af6e063          	bltu	a3,a5,1ae8 <FLASH_EEPROM_CMD+0xd4>
    1a4c:	400017b7          	lui	a5,0x40001
    1a50:	0457c783          	lbu	a5,69(a5) # 40001045 <_eusrstack+0x1fffe045>
    1a54:	000406b7          	lui	a3,0x40
    1a58:	0207f793          	andi	a5,a5,32
    1a5c:	e399                	bnez	a5,1a62 <FLASH_EEPROM_CMD+0x4e>
    1a5e:	0003c6b7          	lui	a3,0x3c
    1a62:	57f9                	li	a5,-2
    1a64:	04d57563          	bgeu	a0,a3,1aae <FLASH_EEPROM_CMD+0x9a>
    1a68:	00c50833          	add	a6,a0,a2
    1a6c:	0506e163          	bltu	a3,a6,1aae <FLASH_EEPROM_CMD+0x9a>
    1a70:	4789                	li	a5,2
    1a72:	04f71463          	bne	a4,a5,1aba <FLASH_EEPROM_CMD+0xa6>
    1a76:	8209                	srli	a2,a2,0x2
    1a78:	1ffff097          	auipc	ra,0x1ffff
    1a7c:	1d6080e7          	jalr	470(ra) # 20000c4e <FLASH_CMD_ROM_WRITE>
    1a80:	87aa                	mv	a5,a0
    1a82:	40001737          	lui	a4,0x40001
    1a86:	05700693          	li	a3,87
    1a8a:	04d70023          	sb	a3,64(a4) # 40001040 <_eusrstack+0x1fffe040>
    1a8e:	fa800693          	li	a3,-88
    1a92:	04d70023          	sb	a3,64(a4)
    1a96:	04474683          	lbu	a3,68(a4)
    1a9a:	8ac1                	andi	a3,a3,16
    1a9c:	04d70223          	sb	a3,68(a4)
    1aa0:	e000e737          	lui	a4,0xe000e
    1aa4:	11272023          	sw	s2,256(a4) # e000e100 <_eusrstack+0xc000b100>
    1aa8:	10972223          	sw	s1,260(a4)
    1aac:	4432                	lw	s0,12(sp)
    1aae:	40f2                	lw	ra,28(sp)
    1ab0:	44e2                	lw	s1,24(sp)
    1ab2:	4952                	lw	s2,20(sp)
    1ab4:	853e                	mv	a0,a5
    1ab6:	6105                	addi	sp,sp,32
    1ab8:	8082                	ret
    1aba:	4785                	li	a5,1
    1abc:	00f71f63          	bne	a4,a5,1ada <FLASH_EEPROM_CMD+0xc6>
    1ac0:	6785                	lui	a5,0x1
    1ac2:	17fd                	addi	a5,a5,-1 # fff <RTC_InitClock+0x93>
    1ac4:	963e                	add	a2,a2,a5
    1ac6:	8fe9                	and	a5,a5,a0
    1ac8:	963e                	add	a2,a2,a5
    1aca:	77fd                	lui	a5,0xfffff
    1acc:	8e7d                	and	a2,a2,a5
    1ace:	8d7d                	and	a0,a0,a5
    1ad0:	1ffff097          	auipc	ra,0x1ffff
    1ad4:	1de080e7          	jalr	478(ra) # 20000cae <FLASH_CMD_ROM_ERASE>
    1ad8:	b765                	j	1a80 <FLASH_EEPROM_CMD+0x6c>
    1ada:	1ffff097          	auipc	ra,0x1ffff
    1ade:	246080e7          	jalr	582(ra) # 20000d20 <FLASH_CMD_ROM_VERIFY>
    1ae2:	00150793          	addi	a5,a0,1
    1ae6:	bf71                	j	1a82 <FLASH_EEPROM_CMD+0x6e>
    1ae8:	47b5                	li	a5,13
    1aea:	00f71a63          	bne	a4,a5,1afe <FLASH_EEPROM_CMD+0xea>
    1aee:	0b900513          	li	a0,185
    1af2:	1ffff097          	auipc	ra,0x1ffff
    1af6:	27e080e7          	jalr	638(ra) # 20000d70 <FLASH_CMD_ROM_PWR>
    1afa:	4781                	li	a5,0
    1afc:	b759                	j	1a82 <FLASH_EEPROM_CMD+0x6e>
    1afe:	47b1                	li	a5,12
    1b00:	00f71563          	bne	a4,a5,1b0a <FLASH_EEPROM_CMD+0xf6>
    1b04:	0ab00513          	li	a0,171
    1b08:	b7ed                	j	1af2 <FLASH_EEPROM_CMD+0xde>
    1b0a:	4799                	li	a5,6
    1b0c:	00f71763          	bne	a4,a5,1b1a <FLASH_EEPROM_CMD+0x106>
    1b10:	1ffff097          	auipc	ra,0x1ffff
    1b14:	272080e7          	jalr	626(ra) # 20000d82 <FLASH_CMD_GET_ROM_INFO>
    1b18:	b7cd                	j	1afa <FLASH_EEPROM_CMD+0xe6>
    1b1a:	479d                	li	a5,7
    1b1c:	00f71b63          	bne	a4,a5,1b32 <FLASH_EEPROM_CMD+0x11e>
    1b20:	0005a023          	sw	zero,0(a1) # 2000 <TMOS_Init+0x78>
    1b24:	0005a223          	sw	zero,4(a1)
    1b28:	1ffff097          	auipc	ra,0x1ffff
    1b2c:	2ba080e7          	jalr	698(ra) # 20000de2 <FLASH_CMD_GET_UNIQUE_ID>
    1b30:	b7e9                	j	1afa <FLASH_EEPROM_CMD+0xe6>
    1b32:	4791                	li	a5,4
    1b34:	00f71763          	bne	a4,a5,1b42 <FLASH_EEPROM_CMD+0x12e>
    1b38:	1ffff097          	auipc	ra,0x1ffff
    1b3c:	2e8080e7          	jalr	744(ra) # 20000e20 <FLASH_CMD_ROM_SW_RESET>
    1b40:	bf6d                	j	1afa <FLASH_EEPROM_CMD+0xe6>
    1b42:	4781                	li	a5,0
    1b44:	df1d                	beqz	a4,1a82 <FLASH_EEPROM_CMD+0x6e>
    1b46:	57f1                	li	a5,-4
    1b48:	bf2d                	j	1a82 <FLASH_EEPROM_CMD+0x6e>

00001b4a <tmos_msg_deallocate>:
tmos_msg_deallocate():
    1b4a:	1141                	addi	sp,sp,-16
    1b4c:	c422                	sw	s0,8(sp)
    1b4e:	e000e437          	lui	s0,0xe000e
    1b52:	c226                	sw	s1,4(sp)
    1b54:	4004                	lw	s1,0(s0)
    1b56:	00200737          	lui	a4,0x200
    1b5a:	c606                	sw	ra,12(sp)
    1b5c:	8cf9                	and	s1,s1,a4
    1b5e:	18e42023          	sw	a4,384(s0) # e000e180 <_eusrstack+0xc000b180>
    1b62:	0000100f          	fence.i
    1b66:	e909                	bnez	a0,1b78 <tmos_msg_deallocate+0x2e>
    1b68:	10942023          	sw	s1,256(s0)
    1b6c:	4515                	li	a0,5
    1b6e:	40b2                	lw	ra,12(sp)
    1b70:	4422                	lw	s0,8(sp)
    1b72:	4492                	lw	s1,4(sp)
    1b74:	0141                	addi	sp,sp,16
    1b76:	8082                	ret
    1b78:	ffe54703          	lbu	a4,-2(a0)
    1b7c:	0ff00793          	li	a5,255
    1b80:	00f70663          	beq	a4,a5,1b8c <tmos_msg_deallocate+0x42>
    1b84:	10942023          	sw	s1,256(s0)
    1b88:	4511                	li	a0,4
    1b8a:	b7d5                	j	1b6e <tmos_msg_deallocate+0x24>
    1b8c:	1ffff097          	auipc	ra,0x1ffff
    1b90:	b6e080e7          	jalr	-1170(ra) # 200006fa <tmos_memory_free>
    1b94:	4501                	li	a0,0
    1b96:	10942023          	sw	s1,256(s0)
    1b9a:	bfd1                	j	1b6e <tmos_msg_deallocate+0x24>

00001b9c <tmos_msg_receive>:
tmos_msg_receive():
    1b9c:	1141                	addi	sp,sp,-16
    1b9e:	e000e7b7          	lui	a5,0xe000e
    1ba2:	c226                	sw	s1,4(sp)
    1ba4:	4384                	lw	s1,0(a5)
    1ba6:	00200737          	lui	a4,0x200
    1baa:	c606                	sw	ra,12(sp)
    1bac:	c422                	sw	s0,8(sp)
    1bae:	8cf9                	and	s1,s1,a4
    1bb0:	18e7a023          	sw	a4,384(a5) # e000e180 <_eusrstack+0xc000b180>
    1bb4:	0000100f          	fence.i
    1bb8:	67818793          	addi	a5,gp,1656 # 20001d20 <msg_qHead>
    1bbc:	4390                	lw	a2,0(a5)
    1bbe:	4401                	li	s0,0
    1bc0:	4701                	li	a4,0
    1bc2:	87b2                	mv	a5,a2
    1bc4:	e789                	bnez	a5,1bce <tmos_msg_receive+0x32>
    1bc6:	e809                	bnez	s0,1bd8 <tmos_msg_receive+0x3c>
    1bc8:	65a1                	lui	a1,0x8
    1bca:	24a1                	jal	1e12 <tmos_stop_task>
    1bcc:	a02d                	j	1bf6 <tmos_msg_receive+0x5a>
    1bce:	ffe7c683          	lbu	a3,-2(a5)
    1bd2:	02a69c63          	bne	a3,a0,1c0a <tmos_msg_receive+0x6e>
    1bd6:	cc1d                	beqz	s0,1c14 <tmos_msg_receive+0x78>
    1bd8:	ff842683          	lw	a3,-8(s0)
    1bdc:	02c41e63          	bne	s0,a2,1c18 <tmos_msg_receive+0x7c>
    1be0:	66d1ac23          	sw	a3,1656(gp) # 20001d20 <msg_qHead>
    1be4:	577d                	li	a4,-1
    1be6:	fe042c23          	sw	zero,-8(s0)
    1bea:	fee40f23          	sb	a4,-2(s0)
    1bee:	dfe9                	beqz	a5,1bc8 <tmos_msg_receive+0x2c>
    1bf0:	65a1                	lui	a1,0x8
    1bf2:	6e7030ef          	jal	ra,5ad8 <tmos_set_event>
    1bf6:	8522                	mv	a0,s0
    1bf8:	40b2                	lw	ra,12(sp)
    1bfa:	4422                	lw	s0,8(sp)
    1bfc:	e000e7b7          	lui	a5,0xe000e
    1c00:	1097a023          	sw	s1,256(a5) # e000e100 <_eusrstack+0xc000b100>
    1c04:	4492                	lw	s1,4(sp)
    1c06:	0141                	addi	sp,sp,16
    1c08:	8082                	ret
    1c0a:	e011                	bnez	s0,1c0e <tmos_msg_receive+0x72>
    1c0c:	873e                	mv	a4,a5
    1c0e:	ff87a783          	lw	a5,-8(a5)
    1c12:	bf4d                	j	1bc4 <tmos_msg_receive+0x28>
    1c14:	843e                	mv	s0,a5
    1c16:	bfe5                	j	1c0e <tmos_msg_receive+0x72>
    1c18:	fed72c23          	sw	a3,-8(a4) # 1ffff8 <_data_lma+0x1fa070>
    1c1c:	b7e1                	j	1be4 <tmos_msg_receive+0x48>

00001c1e <tmos_msg_init>:
tmos_msg_init():
    1c1e:	6601ac23          	sw	zero,1656(gp) # 20001d20 <msg_qHead>
    1c22:	8082                	ret

00001c24 <TMOS_CB_ProcessEvent>:
TMOS_CB_ProcessEvent():
    1c24:	0ff5f793          	zext.b	a5,a1
    1c28:	c3a5                	beqz	a5,1c88 <TMOS_CB_ProcessEvent+0x64>
    1c2a:	1141                	addi	sp,sp,-16
    1c2c:	c04a                	sw	s2,0(sp)
    1c2e:	c606                	sw	ra,12(sp)
    1c30:	c422                	sw	s0,8(sp)
    1c32:	c226                	sw	s1,4(sp)
    1c34:	892e                	mv	s2,a1
    1c36:	4701                	li	a4,0
    1c38:	46a1                	li	a3,8
    1c3a:	40e957b3          	sra	a5,s2,a4
    1c3e:	8b85                	andi	a5,a5,1
    1c40:	cf9d                	beqz	a5,1c7e <TMOS_CB_ProcessEvent+0x5a>
    1c42:	050e                	slli	a0,a0,0x3
    1c44:	00e507b3          	add	a5,a0,a4
    1c48:	4531                	li	a0,12
    1c4a:	02a787b3          	mul	a5,a5,a0
    1c4e:	6e418693          	addi	a3,gp,1764 # 20001d8c <cbTimersHead>
    1c52:	4284                	lw	s1,0(a3)
    1c54:	4405                	li	s0,1
    1c56:	00e41433          	sll	s0,s0,a4
    1c5a:	0442                	slli	s0,s0,0x10
    1c5c:	8041                	srli	s0,s0,0x10
    1c5e:	94be                	add	s1,s1,a5
    1c60:	409c                	lw	a5,0(s1)
    1c62:	40c8                	lw	a0,4(s1)
    1c64:	9782                	jalr	a5
    1c66:	0004a023          	sw	zero,0(s1)
    1c6a:	0004a223          	sw	zero,4(s1)
    1c6e:	01244533          	xor	a0,s0,s2
    1c72:	40b2                	lw	ra,12(sp)
    1c74:	4422                	lw	s0,8(sp)
    1c76:	4492                	lw	s1,4(sp)
    1c78:	4902                	lw	s2,0(sp)
    1c7a:	0141                	addi	sp,sp,16
    1c7c:	8082                	ret
    1c7e:	0705                	addi	a4,a4,1
    1c80:	fad71de3          	bne	a4,a3,1c3a <TMOS_CB_ProcessEvent+0x16>
    1c84:	4401                	li	s0,0
    1c86:	b7e5                	j	1c6e <TMOS_CB_ProcessEvent+0x4a>
    1c88:	4501                	li	a0,0
    1c8a:	8082                	ret

00001c8c <tmos_clear_event>:
tmos_clear_event():
    1c8c:	e000e7b7          	lui	a5,0xe000e
    1c90:	4398                	lw	a4,0(a5)
    1c92:	002006b7          	lui	a3,0x200
    1c96:	18d7a023          	sw	a3,384(a5) # e000e180 <_eusrstack+0xc000b180>
    1c9a:	8f75                	and	a4,a4,a3
    1c9c:	0000100f          	fence.i
    1ca0:	67d1c683          	lbu	a3,1661(gp) # 20001d25 <gTmosPara+0x1>
    1ca4:	02d57363          	bgeu	a0,a3,1cca <tmos_clear_event+0x3e>
    1ca8:	6a818613          	addi	a2,gp,1704 # 20001d50 <EventsArr>
    1cac:	00151693          	slli	a3,a0,0x1
    1cb0:	4208                	lw	a0,0(a2)
    1cb2:	fff5c593          	not	a1,a1
    1cb6:	9536                	add	a0,a0,a3
    1cb8:	00055683          	lhu	a3,0(a0)
    1cbc:	8df5                	and	a1,a1,a3
    1cbe:	00b51023          	sh	a1,0(a0)
    1cc2:	10e7a023          	sw	a4,256(a5)
    1cc6:	4501                	li	a0,0
    1cc8:	8082                	ret
    1cca:	10e7a023          	sw	a4,256(a5)
    1cce:	450d                	li	a0,3
    1cd0:	8082                	ret

00001cd2 <tmos_start_task>:
tmos_start_task():
    1cd2:	7179                	addi	sp,sp,-48
    1cd4:	d04a                	sw	s2,32(sp)
    1cd6:	e000e937          	lui	s2,0xe000e
    1cda:	d226                	sw	s1,36(sp)
    1cdc:	00092483          	lw	s1,0(s2) # e000e000 <_eusrstack+0xc000b000>
    1ce0:	002007b7          	lui	a5,0x200
    1ce4:	d606                	sw	ra,44(sp)
    1ce6:	d422                	sw	s0,40(sp)
    1ce8:	ce4e                	sw	s3,28(sp)
    1cea:	cc52                	sw	s4,24(sp)
    1cec:	ca56                	sw	s5,20(sp)
    1cee:	c85a                	sw	s6,16(sp)
    1cf0:	c65e                	sw	s7,12(sp)
    1cf2:	8cfd                	and	s1,s1,a5
    1cf4:	18f92023          	sw	a5,384(s2)
    1cf8:	0000100f          	fence.i
    1cfc:	67d1c783          	lbu	a5,1661(gp) # 20001d25 <gTmosPara+0x1>
    1d00:	00f57863          	bgeu	a0,a5,1d10 <tmos_start_task+0x3e>
    1d04:	6a418793          	addi	a5,gp,1700 # 20001d4c <fnGetClockCBs>
    1d08:	0007ab83          	lw	s7,0(a5) # 200000 <_data_lma+0x1fa078>
    1d0c:	000b9763          	bnez	s7,1d1a <tmos_start_task+0x48>
    1d10:	e000e7b7          	lui	a5,0xe000e
    1d14:	1097a023          	sw	s1,256(a5) # e000e100 <_eusrstack+0xc000b100>
    1d18:	a089                	j	1d5a <tmos_start_task+0x88>
    1d1a:	6ec18b13          	addi	s6,gp,1772 # 20001d94 <bleClock_t>
    1d1e:	004b2a83          	lw	s5,4(s6) # 1004 <RTC_InitClock+0x98>
    1d22:	fe3647b7          	lui	a5,0xfe364
    1d26:	c8078793          	addi	a5,a5,-896 # fe363c80 <_eusrstack+0xde360c80>
    1d2a:	8a2e                	mv	s4,a1
    1d2c:	6f41d583          	lhu	a1,1780(gp) # 20001d9c <bleClock_t+0x8>
    1d30:	9abe                	add	s5,s5,a5
    1d32:	02c587b3          	mul	a5,a1,a2
    1d36:	842a                	mv	s0,a0
    1d38:	89b2                	mv	s3,a2
    1d3a:	4681                	li	a3,0
    1d3c:	02c5b5b3          	mulhu	a1,a1,a2
    1d40:	32078513          	addi	a0,a5,800
    1d44:	00f537b3          	sltu	a5,a0,a5
    1d48:	64000613          	li	a2,1600
    1d4c:	95be                	add	a1,a1,a5
    1d4e:	11a020ef          	jal	ra,3e68 <__udivdi3>
    1d52:	02aaf063          	bgeu	s5,a0,1d72 <tmos_start_task+0xa0>
    1d56:	10992023          	sw	s1,256(s2)
    1d5a:	4501                	li	a0,0
    1d5c:	50b2                	lw	ra,44(sp)
    1d5e:	5422                	lw	s0,40(sp)
    1d60:	5492                	lw	s1,36(sp)
    1d62:	5902                	lw	s2,32(sp)
    1d64:	49f2                	lw	s3,28(sp)
    1d66:	4a62                	lw	s4,24(sp)
    1d68:	4ad2                	lw	s5,20(sp)
    1d6a:	4b42                	lw	s6,16(sp)
    1d6c:	4bb2                	lw	s7,12(sp)
    1d6e:	6145                	addi	sp,sp,48
    1d70:	8082                	ret
    1d72:	9b82                	jalr	s7
    1d74:	6f41d583          	lhu	a1,1780(gp) # 20001d9c <bleClock_t+0x8>
    1d78:	033587b3          	mul	a5,a1,s3
    1d7c:	892a                	mv	s2,a0
    1d7e:	64000613          	li	a2,1600
    1d82:	4681                	li	a3,0
    1d84:	0335b5b3          	mulhu	a1,a1,s3
    1d88:	32078513          	addi	a0,a5,800
    1d8c:	00f537b3          	sltu	a5,a0,a5
    1d90:	95be                	add	a1,a1,a5
    1d92:	0d6020ef          	jal	ra,3e68 <__udivdi3>
    1d96:	012507b3          	add	a5,a0,s2
    1d9a:	893e                	mv	s2,a5
    1d9c:	004b2703          	lw	a4,4(s6)
    1da0:	00a7e463          	bltu	a5,a0,1da8 <tmos_start_task+0xd6>
    1da4:	00e7e463          	bltu	a5,a4,1dac <tmos_start_task+0xda>
    1da8:	40e78933          	sub	s2,a5,a4
    1dac:	85d2                	mv	a1,s4
    1dae:	8522                	mv	a0,s0
    1db0:	2cb030ef          	jal	ra,587a <tmosFindTask>
    1db4:	c909                	beqz	a0,1dc6 <tmos_start_task+0xf4>
    1db6:	01252423          	sw	s2,8(a0)
    1dba:	e000e7b7          	lui	a5,0xe000e
    1dbe:	1097a023          	sw	s1,256(a5) # e000e100 <_eusrstack+0xc000b100>
    1dc2:	4505                	li	a0,1
    1dc4:	bf61                	j	1d5c <tmos_start_task+0x8a>
    1dc6:	f0046593          	ori	a1,s0,-256
    1dca:	05c2                	slli	a1,a1,0x10
    1dcc:	81c1                	srli	a1,a1,0x10
    1dce:	4541                	li	a0,16
    1dd0:	7b7030ef          	jal	ra,5d86 <tmos_memory_allocate>
    1dd4:	e909                	bnez	a0,1de6 <tmos_start_task+0x114>
    1dd6:	6b018793          	addi	a5,gp,1712 # 20001d58 <ble>
    1dda:	579c                	lw	a5,40(a5)
    1ddc:	db95                	beqz	a5,1d10 <tmos_start_task+0x3e>
    1dde:	85a2                	mv	a1,s0
    1de0:	4511                	li	a0,4
    1de2:	9782                	jalr	a5
    1de4:	b735                	j	1d10 <tmos_start_task+0x3e>
    1de6:	6ac18793          	addi	a5,gp,1708 # 20001d54 <taskHead>
    1dea:	439c                	lw	a5,0(a5)
    1dec:	ef99                	bnez	a5,1e0a <tmos_start_task+0x138>
    1dee:	6aa1a623          	sw	a0,1708(gp) # 20001d54 <taskHead>
    1df2:	00052623          	sw	zero,12(a0)
    1df6:	01252423          	sw	s2,8(a0)
    1dfa:	01451123          	sh	s4,2(a0)
    1dfe:	00850023          	sb	s0,0(a0)
    1e02:	00052223          	sw	zero,4(a0)
    1e06:	bf55                	j	1dba <tmos_start_task+0xe8>
    1e08:	87ba                	mv	a5,a4
    1e0a:	47d8                	lw	a4,12(a5)
    1e0c:	ff75                	bnez	a4,1e08 <tmos_start_task+0x136>
    1e0e:	c7c8                	sw	a0,12(a5)
    1e10:	b7cd                	j	1df2 <tmos_start_task+0x120>

00001e12 <tmos_stop_task>:
tmos_stop_task():
    1e12:	1101                	addi	sp,sp,-32
    1e14:	e000e7b7          	lui	a5,0xe000e
    1e18:	c84a                	sw	s2,16(sp)
    1e1a:	0007a903          	lw	s2,0(a5) # e000e000 <_eusrstack+0xc000b000>
    1e1e:	cc22                	sw	s0,24(sp)
    1e20:	c64e                	sw	s3,12(sp)
    1e22:	00200737          	lui	a4,0x200
    1e26:	ce06                	sw	ra,28(sp)
    1e28:	ca26                	sw	s1,20(sp)
    1e2a:	89aa                	mv	s3,a0
    1e2c:	842e                	mv	s0,a1
    1e2e:	00e97933          	and	s2,s2,a4
    1e32:	18e7a023          	sw	a4,384(a5)
    1e36:	0000100f          	fence.i
    1e3a:	241030ef          	jal	ra,587a <tmosFindTask>
    1e3e:	84aa                	mv	s1,a0
    1e40:	c119                	beqz	a0,1e46 <tmos_stop_task+0x34>
    1e42:	00051123          	sh	zero,2(a0)
    1e46:	85a2                	mv	a1,s0
    1e48:	854e                	mv	a0,s3
    1e4a:	3589                	jal	1c8c <tmos_clear_event>
    1e4c:	67c1c783          	lbu	a5,1660(gp) # 20001d24 <gTmosPara>
    1e50:	01379963          	bne	a5,s3,1e62 <tmos_stop_task+0x50>
    1e54:	67c18793          	addi	a5,gp,1660 # 20001d24 <gTmosPara>
    1e58:	0067d783          	lhu	a5,6(a5)
    1e5c:	8c5d                	or	s0,s0,a5
    1e5e:	68819123          	sh	s0,1666(gp) # 20001d2a <gTmosPara+0x6>
    1e62:	e000e7b7          	lui	a5,0xe000e
    1e66:	1127a023          	sw	s2,256(a5) # e000e100 <_eusrstack+0xc000b100>
    1e6a:	4501                	li	a0,0
    1e6c:	e091                	bnez	s1,1e70 <tmos_stop_task+0x5e>
    1e6e:	4519                	li	a0,6
    1e70:	40f2                	lw	ra,28(sp)
    1e72:	4462                	lw	s0,24(sp)
    1e74:	44d2                	lw	s1,20(sp)
    1e76:	4942                	lw	s2,16(sp)
    1e78:	49b2                	lw	s3,12(sp)
    1e7a:	6105                	addi	sp,sp,32
    1e7c:	8082                	ret

00001e7e <tmos_idle>:
tmos_idle():
    1e7e:	67c18793          	addi	a5,gp,1660 # 20001d24 <gTmosPara>
    1e82:	4794                	lw	a3,8(a5)
    1e84:	0e068263          	beqz	a3,1f68 <tmos_idle+0xea>
    1e88:	1141                	addi	sp,sp,-16
    1e8a:	c226                	sw	s1,4(sp)
    1e8c:	84be                	mv	s1,a5
    1e8e:	6a818793          	addi	a5,gp,1704 # 20001d50 <EventsArr>
    1e92:	438c                	lw	a1,0(a5)
    1e94:	c606                	sw	ra,12(sp)
    1e96:	c422                	sw	s0,8(sp)
    1e98:	c04a                	sw	s2,0(sp)
    1e9a:	67d1c603          	lbu	a2,1661(gp) # 20001d25 <gTmosPara+0x1>
    1e9e:	4781                	li	a5,0
    1ea0:	08c7cf63          	blt	a5,a2,1f3e <tmos_idle+0xc0>
    1ea4:	7091c703          	lbu	a4,1801(gp) # 20001db1 <gBleIPPara+0x5>
    1ea8:	4795                	li	a5,5
    1eaa:	70418913          	addi	s2,gp,1796 # 20001dac <gBleIPPara>
    1eae:	08e7e263          	bltu	a5,a4,1f32 <tmos_idle+0xb4>
    1eb2:	71c1c783          	lbu	a5,1820(gp) # 20001dc4 <tmosSign>
    1eb6:	efb5                	bnez	a5,1f32 <tmos_idle+0xb4>
    1eb8:	6ec18413          	addi	s0,gp,1772 # 20001d94 <bleClock_t>
    1ebc:	4058                	lw	a4,4(s0)
    1ebe:	6a418793          	addi	a5,gp,1700 # 20001d4c <fnGetClockCBs>
    1ec2:	439c                	lw	a5,0(a5)
    1ec4:	08e69563          	bne	a3,a4,1f4e <tmos_idle+0xd0>
    1ec8:	9782                	jalr	a5
    1eca:	4054                	lw	a3,4(s0)
    1ecc:	fe3647b7          	lui	a5,0xfe364
    1ed0:	c8078793          	addi	a5,a5,-896 # fe363c80 <_eusrstack+0xde360c80>
    1ed4:	97b6                	add	a5,a5,a3
    1ed6:	00a78733          	add	a4,a5,a0
    1eda:	853a                	mv	a0,a4
    1edc:	00f76463          	bltu	a4,a5,1ee4 <tmos_idle+0x66>
    1ee0:	00d76463          	bltu	a4,a3,1ee8 <tmos_idle+0x6a>
    1ee4:	40d70533          	sub	a0,a4,a3
    1ee8:	01492783          	lw	a5,20(s2)
    1eec:	cb91                	beqz	a5,1f00 <tmos_idle+0x82>
    1eee:	72c18793          	addi	a5,gp,1836 # 20001dd4 <gptrRFENDReg>
    1ef2:	4394                	lw	a3,0(a5)
    1ef4:	ffcd0737          	lui	a4,0xffcd0
    1ef8:	177d                	addi	a4,a4,-1 # ffccffff <_eusrstack+0xdfcccfff>
    1efa:	469c                	lw	a5,8(a3)
    1efc:	8ff9                	and	a5,a5,a4
    1efe:	c69c                	sw	a5,8(a3)
    1f00:	e111                	bnez	a0,1f04 <tmos_idle+0x86>
    1f02:	4048                	lw	a0,4(s0)
    1f04:	6b018793          	addi	a5,gp,1712 # 20001d58 <ble>
    1f08:	53dc                	lw	a5,36(a5)
    1f0a:	9782                	jalr	a5
    1f0c:	e901                	bnez	a0,1f1c <tmos_idle+0x9e>
    1f0e:	01492783          	lw	a5,20(s2)
    1f12:	c385                	beqz	a5,1f32 <tmos_idle+0xb4>
    1f14:	7df030ef          	jal	ra,5ef2 <LLE_DevInit>
    1f18:	741030ef          	jal	ra,5e58 <BB_DevInit>
    1f1c:	01492783          	lw	a5,20(s2)
    1f20:	cb89                	beqz	a5,1f32 <tmos_idle+0xb4>
    1f22:	72c18793          	addi	a5,gp,1836 # 20001dd4 <gptrRFENDReg>
    1f26:	4398                	lw	a4,0(a5)
    1f28:	003306b7          	lui	a3,0x330
    1f2c:	471c                	lw	a5,8(a4)
    1f2e:	8fd5                	or	a5,a5,a3
    1f30:	c71c                	sw	a5,8(a4)
    1f32:	40b2                	lw	ra,12(sp)
    1f34:	4422                	lw	s0,8(sp)
    1f36:	4492                	lw	s1,4(sp)
    1f38:	4902                	lw	s2,0(sp)
    1f3a:	0141                	addi	sp,sp,16
    1f3c:	8082                	ret
    1f3e:	00179713          	slli	a4,a5,0x1
    1f42:	972e                	add	a4,a4,a1
    1f44:	00075703          	lhu	a4,0(a4)
    1f48:	f76d                	bnez	a4,1f32 <tmos_idle+0xb4>
    1f4a:	0785                	addi	a5,a5,1
    1f4c:	bf91                	j	1ea0 <tmos_idle+0x22>
    1f4e:	9782                	jalr	a5
    1f50:	4494                	lw	a3,8(s1)
    1f52:	4058                	lw	a4,4(s0)
    1f54:	00a687b3          	add	a5,a3,a0
    1f58:	853e                	mv	a0,a5
    1f5a:	00d7e463          	bltu	a5,a3,1f62 <tmos_idle+0xe4>
    1f5e:	f8e7e5e3          	bltu	a5,a4,1ee8 <tmos_idle+0x6a>
    1f62:	40e78533          	sub	a0,a5,a4
    1f66:	b749                	j	1ee8 <tmos_idle+0x6a>
    1f68:	8082                	ret

00001f6a <TMOS_TimerRegister>:
TMOS_TimerRegister():
    1f6a:	1141                	addi	sp,sp,-16
    1f6c:	c606                	sw	ra,12(sp)
    1f6e:	6ea1a423          	sw	a0,1768(gp) # 20001d90 <pfnTimerCBs>
    1f72:	9502                	jalr	a0
    1f74:	40b2                	lw	ra,12(sp)
    1f76:	68a1a623          	sw	a0,1676(gp) # 20001d34 <gTmosPara+0x10>
    1f7a:	4501                	li	a0,0
    1f7c:	0141                	addi	sp,sp,16
    1f7e:	8082                	ret

00001f80 <TMOS_ClockRegister>:
TMOS_ClockRegister():
    1f80:	6aa1a223          	sw	a0,1700(gp) # 20001d4c <fnGetClockCBs>
    1f84:	4501                	li	a0,0
    1f86:	8082                	ret

00001f88 <TMOS_Init>:
TMOS_Init():
    1f88:	1141                	addi	sp,sp,-16
    1f8a:	4611                	li	a2,4
    1f8c:	4581                	li	a1,0
    1f8e:	6a018513          	addi	a0,gp,1696 # 20001d48 <pfnProcessCBs>
    1f92:	c606                	sw	ra,12(sp)
    1f94:	6a01a623          	sw	zero,1708(gp) # 20001d54 <taskHead>
    1f98:	6e01a423          	sw	zero,1768(gp) # 20001d90 <pfnTimerCBs>
    1f9c:	6a01a223          	sw	zero,1700(gp) # 20001d4c <fnGetClockCBs>
    1fa0:	1fffe097          	auipc	ra,0x1fffe
    1fa4:	178080e7          	jalr	376(ra) # 20000118 <tmos_memset>
    1fa8:	02000613          	li	a2,32
    1fac:	4581                	li	a1,0
    1fae:	67c18513          	addi	a0,gp,1660 # 20001d24 <gTmosPara>
    1fb2:	1fffe097          	auipc	ra,0x1fffe
    1fb6:	166080e7          	jalr	358(ra) # 20000118 <tmos_memset>
    1fba:	64d010ef          	jal	ra,3e06 <tmos_memory_init>
    1fbe:	47c1                	li	a5,16
    1fc0:	4585                	li	a1,1
    1fc2:	12000513          	li	a0,288
    1fc6:	66f18f23          	sb	a5,1662(gp) # 20001d26 <gTmosPara+0x2>
    1fca:	5bd030ef          	jal	ra,5d86 <tmos_memory_allocate>
    1fce:	6ea1a223          	sw	a0,1764(gp) # 20001d8c <cbTimersHead>
    1fd2:	c53d                	beqz	a0,2040 <TMOS_Init+0xb8>
    1fd4:	4799                	li	a5,6
    1fd6:	67e1c603          	lbu	a2,1662(gp) # 20001d26 <gTmosPara+0x2>
    1fda:	02f60633          	mul	a2,a2,a5
    1fde:	4581                	li	a1,0
    1fe0:	0c060613          	addi	a2,a2,192
    1fe4:	1fffe097          	auipc	ra,0x1fffe
    1fe8:	134080e7          	jalr	308(ra) # 20000118 <tmos_memset>
    1fec:	6e418793          	addi	a5,gp,1764 # 20001d8c <cbTimersHead>
    1ff0:	439c                	lw	a5,0(a5)
    1ff2:	0c078793          	addi	a5,a5,192
    1ff6:	68f1ae23          	sw	a5,1692(gp) # 20001d44 <tasksArr>
    1ffa:	67e1c703          	lbu	a4,1662(gp) # 20001d26 <gTmosPara+0x2>
    1ffe:	070a                	slli	a4,a4,0x2
    2000:	97ba                	add	a5,a5,a4
    2002:	6af1a423          	sw	a5,1704(gp) # 20001d50 <EventsArr>
    2006:	3921                	jal	1c1e <tmos_msg_init>
    2008:	2cb5                	jal	2284 <tmos_snv_init>
    200a:	69c18793          	addi	a5,gp,1692 # 20001d44 <tasksArr>
    200e:	4398                	lw	a4,0(a5)
    2010:	67d1c783          	lbu	a5,1661(gp) # 20001d25 <gTmosPara+0x1>
    2014:	00279693          	slli	a3,a5,0x2
    2018:	96ba                	add	a3,a3,a4
    201a:	00004617          	auipc	a2,0x4
    201e:	88060613          	addi	a2,a2,-1920 # 589a <TMOS_CB_PeriodicProcessEvent>
    2022:	c290                	sw	a2,0(a3)
    2024:	00278693          	addi	a3,a5,2
    2028:	0785                	addi	a5,a5,1
    202a:	0ff7f793          	zext.b	a5,a5
    202e:	078a                	slli	a5,a5,0x2
    2030:	97ba                	add	a5,a5,a4
    2032:	66d18ea3          	sb	a3,1661(gp) # 20001d25 <gTmosPara+0x1>
    2036:	00000717          	auipc	a4,0x0
    203a:	bee70713          	addi	a4,a4,-1042 # 1c24 <TMOS_CB_ProcessEvent>
    203e:	c398                	sw	a4,0(a5)
    2040:	40b2                	lw	ra,12(sp)
    2042:	0141                	addi	sp,sp,16
    2044:	8082                	ret

00002046 <TMOS_ProcessEventRegister>:
TMOS_ProcessEventRegister():
    2046:	67d1c783          	lbu	a5,1661(gp) # 20001d25 <gTmosPara+0x1>
    204a:	67e1c703          	lbu	a4,1662(gp) # 20001d26 <gTmosPara+0x2>
    204e:	00e7ff63          	bgeu	a5,a4,206c <TMOS_ProcessEventRegister+0x26>
    2052:	69c18713          	addi	a4,gp,1692 # 20001d44 <tasksArr>
    2056:	4318                	lw	a4,0(a4)
    2058:	00178693          	addi	a3,a5,1
    205c:	66d18ea3          	sb	a3,1661(gp) # 20001d25 <gTmosPara+0x1>
    2060:	00279693          	slli	a3,a5,0x2
    2064:	9736                	add	a4,a4,a3
    2066:	c308                	sw	a0,0(a4)
    2068:	853e                	mv	a0,a5
    206a:	8082                	ret
    206c:	0ff00793          	li	a5,255
    2070:	bfe5                	j	2068 <TMOS_ProcessEventRegister+0x22>

00002072 <BLE_LibInit>:
BLE_LibInit():
    2072:	411c                	lw	a5,0(a0)
    2074:	0e078463          	beqz	a5,215c <BLE_LibInit+0xea>
    2078:	f0000737          	lui	a4,0xf0000
    207c:	8f7d                	and	a4,a4,a5
    207e:	200006b7          	lui	a3,0x20000
    2082:	4789                	li	a5,2
    2084:	0cd71d63          	bne	a4,a3,215e <BLE_LibInit+0xec>
    2088:	00455703          	lhu	a4,4(a0)
    208c:	0c070963          	beqz	a4,215e <BLE_LibInit+0xec>
    2090:	1141                	addi	sp,sp,-16
    2092:	c422                	sw	s0,8(sp)
    2094:	4619                	li	a2,6
    2096:	842a                	mv	s0,a0
    2098:	0ff00593          	li	a1,255
    209c:	055d                	addi	a0,a0,23
    209e:	c606                	sw	ra,12(sp)
    20a0:	0f1030ef          	jal	ra,5990 <tmos_isbufset>
    20a4:	4705                	li	a4,1
    20a6:	478d                	li	a5,3
    20a8:	0ae50563          	beq	a0,a4,2152 <BLE_LibInit+0xe0>
    20ac:	441c                	lw	a5,8(s0)
    20ae:	c791                	beqz	a5,20ba <BLE_LibInit+0x48>
    20b0:	5458                	lw	a4,44(s0)
    20b2:	4799                	li	a5,6
    20b4:	cf59                	beqz	a4,2152 <BLE_LibInit+0xe0>
    20b6:	5818                	lw	a4,48(s0)
    20b8:	cf49                	beqz	a4,2152 <BLE_LibInit+0xe0>
    20ba:	03400613          	li	a2,52
    20be:	4581                	li	a1,0
    20c0:	6b018513          	addi	a0,gp,1712 # 20001d58 <ble>
    20c4:	1fffe097          	auipc	ra,0x1fffe
    20c8:	054080e7          	jalr	84(ra) # 20000118 <tmos_memset>
    20cc:	03400613          	li	a2,52
    20d0:	85a2                	mv	a1,s0
    20d2:	6b018513          	addi	a0,gp,1712 # 20001d58 <ble>
    20d6:	1fffe097          	auipc	ra,0x1fffe
    20da:	004080e7          	jalr	4(ra) # 200000da <tmos_memcpy>
    20de:	6bc1d783          	lhu	a5,1724(gp) # 20001d64 <ble+0xc>
    20e2:	e789                	bnez	a5,20ec <BLE_LibInit+0x7a>
    20e4:	10000793          	li	a5,256
    20e8:	6af19e23          	sh	a5,1724(gp) # 20001d64 <ble+0xc>
    20ec:	6be1c783          	lbu	a5,1726(gp) # 20001d66 <ble+0xe>
    20f0:	e781                	bnez	a5,20f8 <BLE_LibInit+0x86>
    20f2:	4785                	li	a5,1
    20f4:	6af18f23          	sb	a5,1726(gp) # 20001d66 <ble+0xe>
    20f8:	6c01d783          	lhu	a5,1728(gp) # 20001d68 <ble+0x10>
    20fc:	e781                	bnez	a5,2104 <BLE_LibInit+0x92>
    20fe:	47ed                	li	a5,27
    2100:	6cf19023          	sh	a5,1728(gp) # 20001d68 <ble+0x10>
    2104:	6bf1c783          	lbu	a5,1727(gp) # 20001d67 <ble+0xf>
    2108:	e781                	bnez	a5,2110 <BLE_LibInit+0x9e>
    210a:	478d                	li	a5,3
    210c:	6af18fa3          	sb	a5,1727(gp) # 20001d67 <ble+0xf>
    2110:	6c21c783          	lbu	a5,1730(gp) # 20001d6a <ble+0x12>
    2114:	e781                	bnez	a5,211c <BLE_LibInit+0xaa>
    2116:	4785                	li	a5,1
    2118:	6cf18123          	sb	a5,1730(gp) # 20001d6a <ble+0x12>
    211c:	6c31c783          	lbu	a5,1731(gp) # 20001d6b <ble+0x13>
    2120:	e799                	bnez	a5,212e <BLE_LibInit+0xbc>
    2122:	6b018793          	addi	a5,gp,1712 # 20001d58 <ble>
    2126:	00f7c783          	lbu	a5,15(a5)
    212a:	6cf181a3          	sb	a5,1731(gp) # 20001d6b <ble+0x13>
    212e:	6c41c783          	lbu	a5,1732(gp) # 20001d6c <ble+0x14>
    2132:	e781                	bnez	a5,213a <BLE_LibInit+0xc8>
    2134:	47c9                	li	a5,18
    2136:	6cf18223          	sb	a5,1732(gp) # 20001d6c <ble+0x14>
    213a:	01544783          	lbu	a5,21(s0)
    213e:	e789                	bnez	a5,2148 <BLE_LibInit+0xd6>
    2140:	06400793          	li	a5,100
    2144:	6cf182a3          	sb	a5,1733(gp) # 20001d6d <ble+0x15>
    2148:	57fd                	li	a5,-1
    214a:	76f18ca3          	sb	a5,1913(gp) # 20001e21 <gapRole_TaskID>
    214e:	3d2d                	jal	1f88 <TMOS_Init>
    2150:	4781                	li	a5,0
    2152:	40b2                	lw	ra,12(sp)
    2154:	4422                	lw	s0,8(sp)
    2156:	853e                	mv	a0,a5
    2158:	0141                	addi	sp,sp,16
    215a:	8082                	ret
    215c:	4789                	li	a5,2
    215e:	853e                	mv	a0,a5
    2160:	8082                	ret

00002162 <clockGetTickValve>:
clockGetTickValve():
    2162:	1101                	addi	sp,sp,-32
    2164:	c64e                	sw	s3,12(sp)
    2166:	6ec18993          	addi	s3,gp,1772 # 20001d94 <bleClock_t>
    216a:	0009a783          	lw	a5,0(s3)
    216e:	ce06                	sw	ra,28(sp)
    2170:	cc22                	sw	s0,24(sp)
    2172:	ca26                	sw	s1,20(sp)
    2174:	c84a                	sw	s2,16(sp)
    2176:	c452                	sw	s4,8(sp)
    2178:	9782                	jalr	a5
    217a:	64000913          	li	s2,1600
    217e:	032535b3          	mulhu	a1,a0,s2
    2182:	0089da03          	lhu	s4,8(s3)
    2186:	4681                	li	a3,0
    2188:	8652                	mv	a2,s4
    218a:	03250533          	mul	a0,a0,s2
    218e:	4db010ef          	jal	ra,3e68 <__udivdi3>
    2192:	67c18793          	addi	a5,gp,1660 # 20001d24 <gTmosPara>
    2196:	4b80                	lw	s0,16(a5)
    2198:	84aa                	mv	s1,a0
    219a:	4501                	li	a0,0
    219c:	02940463          	beq	s0,s1,21c4 <clockGetTickValve+0x62>
    21a0:	40848533          	sub	a0,s1,s0
    21a4:	00946e63          	bltu	s0,s1,21c0 <clockGetTickValve+0x5e>
    21a8:	0049a503          	lw	a0,4(s3)
    21ac:	8652                	mv	a2,s4
    21ae:	4681                	li	a3,0
    21b0:	02a935b3          	mulhu	a1,s2,a0
    21b4:	02a90533          	mul	a0,s2,a0
    21b8:	4b1010ef          	jal	ra,3e68 <__udivdi3>
    21bc:	8d01                	sub	a0,a0,s0
    21be:	9526                	add	a0,a0,s1
    21c0:	6891a623          	sw	s1,1676(gp) # 20001d34 <gTmosPara+0x10>
    21c4:	40f2                	lw	ra,28(sp)
    21c6:	4462                	lw	s0,24(sp)
    21c8:	44d2                	lw	s1,20(sp)
    21ca:	4942                	lw	s2,16(sp)
    21cc:	49b2                	lw	s3,12(sp)
    21ce:	4a22                	lw	s4,8(sp)
    21d0:	6105                	addi	sp,sp,32
    21d2:	8082                	ret

000021d4 <TMOS_TimerInit>:
TMOS_TimerInit():
    21d4:	1141                	addi	sp,sp,-16
    21d6:	c606                	sw	ra,12(sp)
    21d8:	cd35                	beqz	a0,2254 <TMOS_TimerInit+0x80>
    21da:	411c                	lw	a5,0(a0)
    21dc:	85aa                	mv	a1,a0
    21de:	4505                	li	a0,1
    21e0:	c7bd                	beqz	a5,224e <TMOS_TimerInit+0x7a>
    21e2:	41dc                	lw	a5,4(a1)
    21e4:	c7ad                	beqz	a5,224e <TMOS_TimerInit+0x7a>
    21e6:	0085d783          	lhu	a5,8(a1) # 8008 <_data_lma+0x2080>
    21ea:	c3b5                	beqz	a5,224e <TMOS_TimerInit+0x7a>
    21ec:	00a5d783          	lhu	a5,10(a1)
    21f0:	cfb9                	beqz	a5,224e <TMOS_TimerInit+0x7a>
    21f2:	4651                	li	a2,20
    21f4:	6ec18513          	addi	a0,gp,1772 # 20001d94 <bleClock_t>
    21f8:	1fffe097          	auipc	ra,0x1fffe
    21fc:	ee2080e7          	jalr	-286(ra) # 200000da <tmos_memcpy>
    2200:	6e018c23          	sb	zero,1784(gp) # 20001da0 <bleClock_t+0xc>
    2204:	6ec18793          	addi	a5,gp,1772 # 20001d94 <bleClock_t>
    2208:	4388                	lw	a0,0(a5)
    220a:	3b9d                	jal	1f80 <TMOS_ClockRegister>
    220c:	6c61c783          	lbu	a5,1734(gp) # 20001d6e <ble+0x16>
    2210:	e38d                	bnez	a5,2232 <TMOS_TimerInit+0x5e>
    2212:	64000793          	li	a5,1600
    2216:	6f41d503          	lhu	a0,1780(gp) # 20001d9c <bleClock_t+0x8>
    221a:	02f50533          	mul	a0,a0,a5
    221e:	000f4637          	lui	a2,0xf4
    2222:	24060613          	addi	a2,a2,576 # f4240 <_data_lma+0xee2b8>
    2226:	4681                	li	a3,0
    2228:	4581                	li	a1,0
    222a:	43f010ef          	jal	ra,3e68 <__udivdi3>
    222e:	6ca18323          	sb	a0,1734(gp) # 20001d6e <ble+0x16>
    2232:	6c61c703          	lbu	a4,1734(gp) # 20001d6e <ble+0x16>
    2236:	47ad                	li	a5,11
    2238:	00e7e563          	bltu	a5,a4,2242 <TMOS_TimerInit+0x6e>
    223c:	47b1                	li	a5,12
    223e:	6cf18323          	sb	a5,1734(gp) # 20001d6e <ble+0x16>
    2242:	00000517          	auipc	a0,0x0
    2246:	f2050513          	addi	a0,a0,-224 # 2162 <clockGetTickValve>
    224a:	3305                	jal	1f6a <TMOS_TimerRegister>
    224c:	4501                	li	a0,0
    224e:	40b2                	lw	ra,12(sp)
    2250:	0141                	addi	sp,sp,16
    2252:	8082                	ret
    2254:	6801a823          	sw	zero,1680(gp) # 20001d38 <gTmosPara+0x14>
    2258:	1fffe797          	auipc	a5,0x1fffe
    225c:	11878793          	addi	a5,a5,280 # 20000370 <clockGetHSEValue>
    2260:	6ef1a623          	sw	a5,1772(gp) # 20001d94 <bleClock_t>
    2264:	577d                	li	a4,-1
    2266:	6ee1a823          	sw	a4,1776(gp) # 20001d98 <bleClock_t+0x4>
    226a:	003287b7          	lui	a5,0x328
    226e:	a1278793          	addi	a5,a5,-1518 # 327a12 <_data_lma+0x321a8a>
    2272:	6ef1aa23          	sw	a5,1780(gp) # 20001d9c <bleClock_t+0x8>
    2276:	6e018c23          	sb	zero,1784(gp) # 20001da0 <bleClock_t+0xc>
    227a:	4000c7b7          	lui	a5,0x4000c
    227e:	26e7a423          	sw	a4,616(a5) # 4000c268 <_eusrstack+0x20009268>
    2282:	b749                	j	2204 <TMOS_TimerInit+0x30>

00002284 <tmos_snv_init>:
tmos_snv_init():
    2284:	1101                	addi	sp,sp,-32
    2286:	cc22                	sw	s0,24(sp)
    2288:	6b018413          	addi	s0,gp,1712 # 20001d58 <ble>
    228c:	4408                	lw	a0,8(s0)
    228e:	ce06                	sw	ra,28(sp)
    2290:	ca26                	sw	s1,20(sp)
    2292:	c84a                	sw	s2,16(sp)
    2294:	e901                	bnez	a0,22a4 <tmos_snv_init+0x20>
    2296:	4505                	li	a0,1
    2298:	40f2                	lw	ra,28(sp)
    229a:	4462                	lw	s0,24(sp)
    229c:	44d2                	lw	s1,20(sp)
    229e:	4942                	lw	s2,16(sp)
    22a0:	6105                	addi	sp,sp,32
    22a2:	8082                	ret
    22a4:	545c                	lw	a5,44(s0)
    22a6:	dbe5                	beqz	a5,2296 <tmos_snv_init+0x12>
    22a8:	5818                	lw	a4,48(s0)
    22aa:	d775                	beqz	a4,2296 <tmos_snv_init+0x12>
    22ac:	0070                	addi	a2,sp,12
    22ae:	4585                	li	a1,1
    22b0:	9782                	jalr	a5
    22b2:	4418                	lw	a4,8(s0)
    22b4:	47b2                	lw	a5,12(sp)
    22b6:	fef700e3          	beq	a4,a5,2296 <tmos_snv_init+0x12>
    22ba:	04e00593          	li	a1,78
    22be:	6bc1d503          	lhu	a0,1724(gp) # 20001d64 <ble+0xc>
    22c2:	2c5030ef          	jal	ra,5d86 <tmos_memory_allocate>
    22c6:	68a1aa23          	sw	a0,1684(gp) # 20001d3c <gTmosPara+0x18>
    22ca:	d571                	beqz	a0,2296 <tmos_snv_init+0x12>
    22cc:	6bc1d603          	lhu	a2,1724(gp) # 20001d64 <ble+0xc>
    22d0:	0ff00593          	li	a1,255
    22d4:	1fffe097          	auipc	ra,0x1fffe
    22d8:	e44080e7          	jalr	-444(ra) # 20000118 <tmos_memset>
    22dc:	4481                	li	s1,0
    22de:	67c18913          	addi	s2,gp,1660 # 20001d24 <gTmosPara>
    22e2:	6be1c783          	lbu	a5,1726(gp) # 20001d66 <ble+0xe>
    22e6:	01892603          	lw	a2,24(s2)
    22ea:	00f4cd63          	blt	s1,a5,2304 <tmos_snv_init+0x80>
    22ee:	8532                	mv	a0,a2
    22f0:	1fffe097          	auipc	ra,0x1fffe
    22f4:	40a080e7          	jalr	1034(ra) # 200006fa <tmos_memory_free>
    22f8:	4501                	li	a0,0
    22fa:	6801aa23          	sw	zero,1684(gp) # 20001d3c <gTmosPara+0x18>
    22fe:	6801ac23          	sw	zero,1688(gp) # 20001d40 <gTmosPara+0x1c>
    2302:	bf59                	j	2298 <tmos_snv_init+0x14>
    2304:	6bc1d583          	lhu	a1,1724(gp) # 20001d64 <ble+0xc>
    2308:	029587b3          	mul	a5,a1,s1
    230c:	4408                	lw	a0,8(s0)
    230e:	5818                	lw	a4,48(s0)
    2310:	8189                	srli	a1,a1,0x2
    2312:	0485                	addi	s1,s1,1
    2314:	953e                	add	a0,a0,a5
    2316:	c208                	sw	a0,0(a2)
    2318:	9702                	jalr	a4
    231a:	b7e1                	j	22e2 <tmos_snv_init+0x5e>

0000231c <ble_ll_set_timeout>:
ble_ll_set_timeout():
    231c:	72018693          	addi	a3,gp,1824 # 20001dc8 <gptrLLEReg>
    2320:	4290                	lw	a2,0(a3)
    2322:	7781                	lui	a5,0xfffe0
    2324:	17fd                	addi	a5,a5,-1 # fffdffff <_eusrstack+0xdffdcfff>
    2326:	4658                	lw	a4,12(a2)
    2328:	8ff9                	and	a5,a5,a4
    232a:	c65c                	sw	a5,12(a2)
    232c:	0000100f          	fence.i
    2330:	429c                	lw	a5,0(a3)
    2332:	000206b7          	lui	a3,0x20
    2336:	0506                	slli	a0,a0,0x1
    2338:	c794                	sw	a3,8(a5)
    233a:	d3e8                	sw	a0,100(a5)
    233c:	c7d8                	sw	a4,12(a5)
    233e:	8082                	ret

00002340 <ip_register_task_rf>:
ip_register_task_rf():
    2340:	82a18623          	sb	a0,-2004(gp) # 20000ed4 <gRfTaskId>
    2344:	82b1a823          	sw	a1,-2000(gp) # 20000ed8 <rfStatusCBs>
    2348:	8082                	ret

0000234a <BLE_RegInit>:
BLE_RegInit():
    234a:	7091c703          	lbu	a4,1801(gp) # 20001db1 <gBleIPPara+0x5>
    234e:	4791                	li	a5,4
    2350:	06f70363          	beq	a4,a5,23b6 <BLE_RegInit+0x6c>
    2354:	20000797          	auipc	a5,0x20000
    2358:	ba878793          	addi	a5,a5,-1112 # 20001efc <gptrAESReg>
    235c:	4398                	lw	a4,0(a5)
    235e:	4000c7b7          	lui	a5,0x4000c
    2362:	30078793          	addi	a5,a5,768 # 4000c300 <_eusrstack+0x20009300>
    2366:	04f71863          	bne	a4,a5,23b6 <BLE_RegInit+0x6c>
    236a:	1141                	addi	sp,sp,-16
    236c:	4535                	li	a0,13
    236e:	c606                	sw	ra,12(sp)
    2370:	1c3030ef          	jal	ra,5d32 <phy_status_clear>
    2374:	37f030ef          	jal	ra,5ef2 <LLE_DevInit>
    2378:	417000ef          	jal	ra,2f8e <RFEND_DevInit>
    237c:	2dd030ef          	jal	ra,5e58 <BB_DevInit>
    2380:	70018793          	addi	a5,gp,1792 # 20001da8 <gptrBBReg>
    2384:	4398                	lw	a4,0(a5)
    2386:	55800513          	li	a0,1368
    238a:	431c                	lw	a5,0(a4)
    238c:	cff7f793          	andi	a5,a5,-769
    2390:	c31c                	sw	a5,0(a4)
    2392:	30d030ef          	jal	ra,5e9e <LLE_DevSetMode>
    2396:	54d000ef          	jal	ra,30e2 <RFEND_TXCtune>
    239a:	239010ef          	jal	ra,3dd2 <RFEND_TXFtune>
    239e:	46f000ef          	jal	ra,300c <RFEND_RXFilter>
    23a2:	50b000ef          	jal	ra,30ac <RFEND_RXAdc>
    23a6:	4501                	li	a0,0
    23a8:	2f7030ef          	jal	ra,5e9e <LLE_DevSetMode>
    23ac:	40b2                	lw	ra,12(sp)
    23ae:	700184a3          	sb	zero,1801(gp) # 20001db1 <gBleIPPara+0x5>
    23b2:	0141                	addi	sp,sp,16
    23b4:	8082                	ret
    23b6:	8082                	ret

000023b8 <BLE_IPCoreInit>:
BLE_IPCoreInit():
    23b8:	57fd                	li	a5,-1
    23ba:	82f18623          	sb	a5,-2004(gp) # 20000ed4 <gRfTaskId>
    23be:	8201a423          	sw	zero,-2008(gp) # 20000ed0 <gPaControl>
    23c2:	4000c7b7          	lui	a5,0x4000c
    23c6:	30078713          	addi	a4,a5,768 # 4000c300 <_eusrstack+0x20009300>
    23ca:	20000697          	auipc	a3,0x20000
    23ce:	b2e6a923          	sw	a4,-1230(a3) # 20001efc <gptrAESReg>
    23d2:	20078713          	addi	a4,a5,512
    23d6:	72e1a023          	sw	a4,1824(gp) # 20001dc8 <gptrLLEReg>
    23da:	10078793          	addi	a5,a5,256
    23de:	4000d737          	lui	a4,0x4000d
    23e2:	1141                	addi	sp,sp,-16
    23e4:	72e1a623          	sw	a4,1836(gp) # 20001dd4 <gptrRFENDReg>
    23e8:	70f1a023          	sw	a5,1792(gp) # 20001da8 <gptrBBReg>
    23ec:	c606                	sw	ra,12(sp)
    23ee:	70418713          	addi	a4,gp,1796 # 20001dac <gBleIPPara>
    23f2:	4785                	li	a5,1
    23f4:	00f702a3          	sb	a5,5(a4) # 4000d005 <_eusrstack+0x2000a005>
    23f8:	6b018793          	addi	a5,gp,1712 # 20001d58 <ble>
    23fc:	439c                	lw	a5,0(a5)
    23fe:	cb5c                	sw	a5,20(a4)
    2400:	10c78793          	addi	a5,a5,268
    2404:	cb1c                	sw	a5,16(a4)
    2406:	3791                	jal	234a <BLE_RegInit>
    2408:	e000e7b7          	lui	a5,0xe000e
    240c:	4157c703          	lbu	a4,1045(a5) # e000e415 <_eusrstack+0xc000b415>
    2410:	08076713          	ori	a4,a4,128
    2414:	40e78aa3          	sb	a4,1045(a5)
    2418:	40b2                	lw	ra,12(sp)
    241a:	00100737          	lui	a4,0x100
    241e:	10e7a023          	sw	a4,256(a5)
    2422:	00200737          	lui	a4,0x200
    2426:	10e7a023          	sw	a4,256(a5)
    242a:	0141                	addi	sp,sp,16
    242c:	8082                	ret

0000242e <TMOS_SysRegister>:
TMOS_SysRegister():
    242e:	72a1a223          	sw	a0,1828(gp) # 20001dcc <pfnHandle>
    2432:	c501                	beqz	a0,243a <TMOS_SysRegister+0xc>
    2434:	4785                	li	a5,1
    2436:	70f18e23          	sb	a5,1820(gp) # 20001dc4 <tmosSign>
    243a:	8082                	ret

0000243c <RF_DevSetChannel>:
RF_DevSetChannel():
    243c:	72c18793          	addi	a5,gp,1836 # 20001dd4 <gptrRFENDReg>
    2440:	4398                	lw	a4,0(a5)
    2442:	65418613          	addi	a2,gp,1620 # 20001cfc <rfConfig>
    2446:	70018793          	addi	a5,gp,1792 # 20001da8 <gptrBBReg>
    244a:	4394                	lw	a3,0(a5)
    244c:	00164783          	lbu	a5,1(a2)
    2450:	07f7f813          	andi	a6,a5,127
    2454:	c5d9                	beqz	a1,24e2 <RF_DevSetChannel+0xa6>
    2456:	4288                	lw	a0,0(a3)
    2458:	425c                	lw	a5,4(a2)
    245a:	f8057513          	andi	a0,a0,-128
    245e:	01056533          	or	a0,a0,a6
    2462:	c288                	sw	a0,0(a3)
    2464:	0015f513          	andi	a0,a1,1
    2468:	c901                	beqz	a0,2478 <RF_DevSetChannel+0x3c>
    246a:	0305f593          	andi	a1,a1,48
    246e:	4541                	li	a0,16
    2470:	06a58663          	beq	a1,a0,24dc <RF_DevSetChannel+0xa0>
    2474:	c1878793          	addi	a5,a5,-1000
    2478:	574c                	lw	a1,44(a4)
    247a:	6841                	lui	a6,0x10
    247c:	a0080813          	addi	a6,a6,-1536 # fa00 <_data_lma+0x9a78>
    2480:	0025e593          	ori	a1,a1,2
    2484:	d74c                	sw	a1,44(a4)
    2486:	0307d5b3          	divu	a1,a5,a6
    248a:	fe1008b7          	lui	a7,0xfe100
    248e:	18fd                	addi	a7,a7,-1 # fe0fffff <_eusrstack+0xde0fcfff>
    2490:	0307f7b3          	remu	a5,a5,a6
    2494:	89fd                	andi	a1,a1,31
    2496:	01459513          	slli	a0,a1,0x14
    249a:	436c                	lw	a1,68(a4)
    249c:	0115f5b3          	and	a1,a1,a7
    24a0:	8dc9                	or	a1,a1,a0
    24a2:	c36c                	sw	a1,68(a4)
    24a4:	0fa00593          	li	a1,250
    24a8:	fffc0537          	lui	a0,0xfffc0
    24ac:	07aa                	slli	a5,a5,0xa
    24ae:	02b7d7b3          	divu	a5,a5,a1
    24b2:	436c                	lw	a1,68(a4)
    24b4:	8de9                	and	a1,a1,a0
    24b6:	07ba                	slli	a5,a5,0xe
    24b8:	83b9                	srli	a5,a5,0xe
    24ba:	8fcd                	or	a5,a5,a1
    24bc:	c37c                	sw	a5,68(a4)
    24be:	00064783          	lbu	a5,0(a2)
    24c2:	8b89                	andi	a5,a5,2
    24c4:	cb99                	beqz	a5,24da <RF_DevSetChannel+0x9e>
    24c6:	429c                	lw	a5,0(a3)
    24c8:	07f7f793          	andi	a5,a5,127
    24cc:	0407e713          	ori	a4,a5,64
    24d0:	429c                	lw	a5,0(a3)
    24d2:	f807f793          	andi	a5,a5,-128
    24d6:	8fd9                	or	a5,a5,a4
    24d8:	c29c                	sw	a5,0(a3)
    24da:	8082                	ret
    24dc:	83078793          	addi	a5,a5,-2000
    24e0:	bf61                	j	2478 <RF_DevSetChannel+0x3c>
    24e2:	575c                	lw	a5,44(a4)
    24e4:	9bf5                	andi	a5,a5,-3
    24e6:	d75c                	sw	a5,44(a4)
    24e8:	429c                	lw	a5,0(a3)
    24ea:	f807f793          	andi	a5,a5,-128
    24ee:	0107e7b3          	or	a5,a5,a6
    24f2:	c29c                	sw	a5,0(a3)
    24f4:	b7e9                	j	24be <RF_DevSetChannel+0x82>

000024f6 <rf_stop>:
rf_stop():
    24f6:	1141                	addi	sp,sp,-16
    24f8:	c606                	sw	ra,12(sp)
    24fa:	66018a23          	sb	zero,1652(gp) # 20001d1c <rfInfo+0x8>
    24fe:	7f0030ef          	jal	ra,5cee <ble_ll_hw_api_shut>
    2502:	40b2                	lw	ra,12(sp)
    2504:	4501                	li	a0,0
    2506:	0141                	addi	sp,sp,16
    2508:	8082                	ret

0000250a <rf_tx_basic_txProcess>:
rf_tx_basic_txProcess():
    250a:	1141                	addi	sp,sp,-16
    250c:	7071c783          	lbu	a5,1799(gp) # 20001daf <gBleIPPara+0x3>
    2510:	c606                	sw	ra,12(sp)
    2512:	8b85                	andi	a5,a5,1
    2514:	cf91                	beqz	a5,2530 <rf_tx_basic_txProcess+0x26>
    2516:	37c5                	jal	24f6 <rf_stop>
    2518:	700183a3          	sb	zero,1799(gp) # 20001daf <gBleIPPara+0x3>
    251c:	65418793          	addi	a5,gp,1620 # 20001cfc <rfConfig>
    2520:	0107a303          	lw	t1,16(a5)
    2524:	4601                	li	a2,0
    2526:	4581                	li	a1,0
    2528:	4505                	li	a0,1
    252a:	40b2                	lw	ra,12(sp)
    252c:	0141                	addi	sp,sp,16
    252e:	8302                	jr	t1
    2530:	72018793          	addi	a5,gp,1824 # 20001dc8 <gptrLLEReg>
    2534:	439c                	lw	a5,0(a5)
    2536:	53fc                	lw	a5,100(a5)
    2538:	eb91                	bnez	a5,254c <rf_tx_basic_txProcess+0x42>
    253a:	3f75                	jal	24f6 <rf_stop>
    253c:	65418793          	addi	a5,gp,1620 # 20001cfc <rfConfig>
    2540:	0107a303          	lw	t1,16(a5)
    2544:	4601                	li	a2,0
    2546:	4581                	li	a1,0
    2548:	4545                	li	a0,17
    254a:	b7c5                	j	252a <rf_tx_basic_txProcess+0x20>
    254c:	70418793          	addi	a5,gp,1796 # 20001dac <gBleIPPara>
    2550:	0057c783          	lbu	a5,5(a5)
    2554:	470d                	li	a4,3
    2556:	00f71563          	bne	a4,a5,2560 <rf_tx_basic_txProcess+0x56>
    255a:	4785                	li	a5,1
    255c:	70f18e23          	sb	a5,1820(gp) # 20001dc4 <tmosSign>
    2560:	40b2                	lw	ra,12(sp)
    2562:	0141                	addi	sp,sp,16
    2564:	8082                	ret

00002566 <rf_tx_auto_txProcess>:
rf_tx_auto_txProcess():
    2566:	1141                	addi	sp,sp,-16
    2568:	7061c783          	lbu	a5,1798(gp) # 20001dae <gBleIPPara+0x2>
    256c:	c422                	sw	s0,8(sp)
    256e:	c606                	sw	ra,12(sp)
    2570:	c226                	sw	s1,4(sp)
    2572:	8b85                	andi	a5,a5,1
    2574:	72018413          	addi	s0,gp,1824 # 20001dc8 <gptrLLEReg>
    2578:	cfc5                	beqz	a5,2630 <rf_tx_auto_txProcess+0xca>
    257a:	70018323          	sb	zero,1798(gp) # 20001dae <gBleIPPara+0x2>
    257e:	72c18793          	addi	a5,gp,1836 # 20001dd4 <gptrRFENDReg>
    2582:	4398                	lw	a4,0(a5)
    2584:	6541c503          	lbu	a0,1620(gp) # 20001cfc <rfConfig>
    2588:	65418493          	addi	s1,gp,1620 # 20001cfc <rfConfig>
    258c:	575c                	lw	a5,44(a4)
    258e:	8385                	srli	a5,a5,0x1
    2590:	8b85                	andi	a5,a5,1
    2592:	cbb1                	beqz	a5,25e6 <rf_tx_auto_txProcess+0x80>
    2594:	40d0                	lw	a2,4(s1)
    2596:	03057693          	andi	a3,a0,48
    259a:	45c1                	li	a1,16
    259c:	c1860793          	addi	a5,a2,-1000
    25a0:	00b69463          	bne	a3,a1,25a8 <rf_tx_auto_txProcess+0x42>
    25a4:	83060793          	addi	a5,a2,-2000
    25a8:	65c1                	lui	a1,0x10
    25aa:	a0058593          	addi	a1,a1,-1536 # fa00 <_data_lma+0x9a78>
    25ae:	02b7d6b3          	divu	a3,a5,a1
    25b2:	fe100837          	lui	a6,0xfe100
    25b6:	187d                	addi	a6,a6,-1 # fe0fffff <_eusrstack+0xde0fcfff>
    25b8:	02b7f7b3          	remu	a5,a5,a1
    25bc:	8afd                	andi	a3,a3,31
    25be:	01469613          	slli	a2,a3,0x14
    25c2:	4374                	lw	a3,68(a4)
    25c4:	0106f6b3          	and	a3,a3,a6
    25c8:	8ed1                	or	a3,a3,a2
    25ca:	c374                	sw	a3,68(a4)
    25cc:	0fa00693          	li	a3,250
    25d0:	fffc0637          	lui	a2,0xfffc0
    25d4:	07aa                	slli	a5,a5,0xa
    25d6:	02d7d7b3          	divu	a5,a5,a3
    25da:	4374                	lw	a3,68(a4)
    25dc:	8ef1                	and	a3,a3,a2
    25de:	07ba                	slli	a5,a5,0xe
    25e0:	83b9                	srli	a5,a5,0xe
    25e2:	8fd5                	or	a5,a5,a3
    25e4:	c37c                	sw	a5,68(a4)
    25e6:	8511                	srai	a0,a0,0x4
    25e8:	4601                	li	a2,0
    25ea:	6681c583          	lbu	a1,1640(gp) # 20001d10 <rfConfig+0x14>
    25ee:	890d                	andi	a0,a0,3
    25f0:	61c030ef          	jal	ra,5c0c <BLE_SetPHYRxMode>
    25f4:	00000517          	auipc	a0,0x0
    25f8:	07250513          	addi	a0,a0,114 # 2666 <rf_tx_auto_rxProcess>
    25fc:	3d0d                	jal	242e <TMOS_SysRegister>
    25fe:	70018793          	addi	a5,gp,1792 # 20001da8 <gptrBBReg>
    2602:	439c                	lw	a5,0(a5)
    2604:	439c                	lw	a5,0(a5)
    2606:	83a1                	srli	a5,a5,0x8
    2608:	8b8d                	andi	a5,a5,3
    260a:	ef99                	bnez	a5,2628 <rf_tx_auto_txProcess+0xc2>
    260c:	401c                	lw	a5,0(s0)
    260e:	19600713          	li	a4,406
    2612:	0104a303          	lw	t1,16(s1)
    2616:	d3f8                	sw	a4,100(a5)
    2618:	4601                	li	a2,0
    261a:	4581                	li	a1,0
    261c:	4505                	li	a0,1
    261e:	4422                	lw	s0,8(sp)
    2620:	40b2                	lw	ra,12(sp)
    2622:	4492                	lw	s1,4(sp)
    2624:	0141                	addi	sp,sp,16
    2626:	8302                	jr	t1
    2628:	401c                	lw	a5,0(s0)
    262a:	1be00713          	li	a4,446
    262e:	b7d5                	j	2612 <rf_tx_auto_txProcess+0xac>
    2630:	401c                	lw	a5,0(s0)
    2632:	53fc                	lw	a5,100(a5)
    2634:	eb91                	bnez	a5,2648 <rf_tx_auto_txProcess+0xe2>
    2636:	35c1                	jal	24f6 <rf_stop>
    2638:	65418793          	addi	a5,gp,1620 # 20001cfc <rfConfig>
    263c:	0107a303          	lw	t1,16(a5)
    2640:	4601                	li	a2,0
    2642:	4581                	li	a1,0
    2644:	4545                	li	a0,17
    2646:	bfe1                	j	261e <rf_tx_auto_txProcess+0xb8>
    2648:	70418793          	addi	a5,gp,1796 # 20001dac <gBleIPPara>
    264c:	0057c783          	lbu	a5,5(a5)
    2650:	470d                	li	a4,3
    2652:	00f71563          	bne	a4,a5,265c <rf_tx_auto_txProcess+0xf6>
    2656:	4785                	li	a5,1
    2658:	70f18e23          	sb	a5,1820(gp) # 20001dc4 <tmosSign>
    265c:	40b2                	lw	ra,12(sp)
    265e:	4422                	lw	s0,8(sp)
    2660:	4492                	lw	s1,4(sp)
    2662:	0141                	addi	sp,sp,16
    2664:	8082                	ret

00002666 <rf_tx_auto_rxProcess>:
rf_tx_auto_rxProcess():
    2666:	1101                	addi	sp,sp,-32
    2668:	7071c783          	lbu	a5,1799(gp) # 20001daf <gBleIPPara+0x3>
    266c:	ce06                	sw	ra,28(sp)
    266e:	cc22                	sw	s0,24(sp)
    2670:	8b85                	andi	a5,a5,1
    2672:	70418713          	addi	a4,gp,1796 # 20001dac <gBleIPPara>
    2676:	c7a5                	beqz	a5,26de <rf_tx_auto_rxProcess+0x78>
    2678:	843a                	mv	s0,a4
    267a:	3db5                	jal	24f6 <rf_stop>
    267c:	4848                	lw	a0,20(s0)
    267e:	00f10593          	addi	a1,sp,15
    2682:	4601                	li	a2,0
    2684:	700183a3          	sb	zero,1799(gp) # 20001daf <gBleIPPara+0x3>
    2688:	1fffe097          	auipc	ra,0x1fffe
    268c:	dce080e7          	jalr	-562(ra) # 20000456 <ble_ll_chkcrc>
    2690:	01851593          	slli	a1,a0,0x18
    2694:	85e1                	srai	a1,a1,0x18
    2696:	ed99                	bnez	a1,26b4 <rf_tx_auto_rxProcess+0x4e>
    2698:	485c                	lw	a5,20(s0)
    269a:	0ff00693          	li	a3,255
    269e:	0007c703          	lbu	a4,0(a5)
    26a2:	00d70963          	beq	a4,a3,26b4 <rf_tx_auto_rxProcess+0x4e>
    26a6:	66d1c783          	lbu	a5,1645(gp) # 20001d15 <rfInfo+0x1>
    26aa:	00d78563          	beq	a5,a3,26b4 <rf_tx_auto_rxProcess+0x4e>
    26ae:	00f70363          	beq	a4,a5,26b4 <rf_tx_auto_rxProcess+0x4e>
    26b2:	4589                	li	a1,2
    26b4:	65418793          	addi	a5,gp,1620 # 20001cfc <rfConfig>
    26b8:	00078703          	lb	a4,0(a5)
    26bc:	00074763          	bltz	a4,26ca <rf_tx_auto_rxProcess+0x64>
    26c0:	4858                	lw	a4,20(s0)
    26c2:	00f14683          	lbu	a3,15(sp)
    26c6:	00d70023          	sb	a3,0(a4) # 200000 <_data_lma+0x1fa078>
    26ca:	4b9c                	lw	a5,16(a5)
    26cc:	4850                	lw	a2,20(s0)
    26ce:	0ff5f593          	zext.b	a1,a1
    26d2:	4509                	li	a0,2
    26d4:	9782                	jalr	a5
    26d6:	40f2                	lw	ra,28(sp)
    26d8:	4462                	lw	s0,24(sp)
    26da:	6105                	addi	sp,sp,32
    26dc:	8082                	ret
    26de:	72018793          	addi	a5,gp,1824 # 20001dc8 <gptrLLEReg>
    26e2:	439c                	lw	a5,0(a5)
    26e4:	53fc                	lw	a5,100(a5)
    26e6:	eb89                	bnez	a5,26f8 <rf_tx_auto_rxProcess+0x92>
    26e8:	3539                	jal	24f6 <rf_stop>
    26ea:	65418793          	addi	a5,gp,1620 # 20001cfc <rfConfig>
    26ee:	4b9c                	lw	a5,16(a5)
    26f0:	4601                	li	a2,0
    26f2:	4581                	li	a1,0
    26f4:	4549                	li	a0,18
    26f6:	bff9                	j	26d4 <rf_tx_auto_rxProcess+0x6e>
    26f8:	00574783          	lbu	a5,5(a4)
    26fc:	470d                	li	a4,3
    26fe:	fcf71ce3          	bne	a4,a5,26d6 <rf_tx_auto_rxProcess+0x70>
    2702:	4785                	li	a5,1
    2704:	70f18e23          	sb	a5,1820(gp) # 20001dc4 <tmosSign>
    2708:	b7f9                	j	26d6 <rf_tx_auto_rxProcess+0x70>

0000270a <RF_Config>:
RF_Config():
    270a:	491c                	lw	a5,16(a0)
    270c:	10078a63          	beqz	a5,2820 <RF_Config+0x116>
    2710:	1141                	addi	sp,sp,-16
    2712:	c422                	sw	s0,8(sp)
    2714:	c606                	sw	ra,12(sp)
    2716:	c226                	sw	s1,4(sp)
    2718:	00054783          	lbu	a5,0(a0)
    271c:	842a                	mv	s0,a0
    271e:	0407f793          	andi	a5,a5,64
    2722:	c781                	beqz	a5,272a <RF_Config+0x20>
    2724:	415c                	lw	a5,4(a0)
    2726:	4509                	li	a0,2
    2728:	cbd9                	beqz	a5,27be <RF_Config+0xb4>
    272a:	4661                	li	a2,24
    272c:	4581                	li	a1,0
    272e:	65418513          	addi	a0,gp,1620 # 20001cfc <rfConfig>
    2732:	1fffe097          	auipc	ra,0x1fffe
    2736:	9e6080e7          	jalr	-1562(ra) # 20000118 <tmos_memset>
    273a:	4661                	li	a2,24
    273c:	85a2                	mv	a1,s0
    273e:	65418513          	addi	a0,gp,1620 # 20001cfc <rfConfig>
    2742:	1fffe097          	auipc	ra,0x1fffe
    2746:	998080e7          	jalr	-1640(ra) # 200000da <tmos_memcpy>
    274a:	6681c783          	lbu	a5,1640(gp) # 20001d10 <rfConfig+0x14>
    274e:	65418493          	addi	s1,gp,1620 # 20001cfc <rfConfig>
    2752:	e781                	bnez	a5,275a <RF_Config+0x50>
    2754:	57ed                	li	a5,-5
    2756:	66f18423          	sb	a5,1640(gp) # 20001d10 <rfConfig+0x14>
    275a:	6691c783          	lbu	a5,1641(gp) # 20001d11 <rfConfig+0x15>
    275e:	e781                	bnez	a5,2766 <RF_Config+0x5c>
    2760:	57ed                	li	a5,-5
    2762:	66f184a3          	sb	a5,1641(gp) # 20001d11 <rfConfig+0x15>
    2766:	00044783          	lbu	a5,0(s0)
    276a:	0407f793          	andi	a5,a5,64
    276e:	cf81                	beqz	a5,2786 <RF_Config+0x7c>
    2770:	40dc                	lw	a5,4(s1)
    2772:	0024b737          	lui	a4,0x24b
    2776:	e9f70713          	addi	a4,a4,-353 # 24ae9f <_data_lma+0x244f17>
    277a:	04f76763          	bltu	a4,a5,27c8 <RF_Config+0xbe>
    277e:	02500793          	li	a5,37
    2782:	64f18aa3          	sb	a5,1621(gp) # 20001cfd <rfConfig+0x1>
    2786:	66c18793          	addi	a5,gp,1644 # 20001d14 <rfInfo>
    278a:	43c8                	lw	a0,4(a5)
    278c:	c509                	beqz	a0,2796 <RF_Config+0x8c>
    278e:	1fffe097          	auipc	ra,0x1fffe
    2792:	f6c080e7          	jalr	-148(ra) # 200006fa <tmos_memory_free>
    2796:	6601a823          	sw	zero,1648(gp) # 20001d18 <rfInfo+0x4>
    279a:	0004c783          	lbu	a5,0(s1)
    279e:	8b85                	andi	a5,a5,1
    27a0:	cb91                	beqz	a5,27b4 <RF_Config+0xaa>
    27a2:	6691c503          	lbu	a0,1641(gp) # 20001d11 <rfConfig+0x15>
    27a6:	04900593          	li	a1,73
    27aa:	0509                	addi	a0,a0,2
    27ac:	5da030ef          	jal	ra,5d86 <tmos_memory_allocate>
    27b0:	66a1a823          	sw	a0,1648(gp) # 20001d18 <rfInfo+0x4>
    27b4:	0014c783          	lbu	a5,1(s1)
    27b8:	4501                	li	a0,0
    27ba:	66f18aa3          	sb	a5,1653(gp) # 20001d1d <rfInfo+0x9>
    27be:	40b2                	lw	ra,12(sp)
    27c0:	4422                	lw	s0,8(sp)
    27c2:	4492                	lw	s1,4(sp)
    27c4:	0141                	addi	sp,sp,16
    27c6:	8082                	ret
    27c8:	00250737          	lui	a4,0x250
    27cc:	48f70693          	addi	a3,a4,1167 # 25048f <_data_lma+0x24a507>
    27d0:	00f6ed63          	bltu	a3,a5,27ea <RF_Config+0xe0>
    27d4:	ffdb6737          	lui	a4,0xffdb6
    27d8:	93070713          	addi	a4,a4,-1744 # ffdb5930 <_eusrstack+0xdfdb2930>
    27dc:	97ba                	add	a5,a5,a4
    27de:	7d000713          	li	a4,2000
    27e2:	02e7d7b3          	divu	a5,a5,a4
    27e6:	17fd                	addi	a5,a5,-1
    27e8:	bf69                	j	2782 <RF_Config+0x78>
    27ea:	49070713          	addi	a4,a4,1168
    27ee:	00e79563          	bne	a5,a4,27f8 <RF_Config+0xee>
    27f2:	02600793          	li	a5,38
    27f6:	b771                	j	2782 <RF_Config+0x78>
    27f8:	0025d737          	lui	a4,0x25d
    27fc:	77f70713          	addi	a4,a4,1919 # 25d77f <_data_lma+0x2577f7>
    2800:	00f76d63          	bltu	a4,a5,281a <RF_Config+0x110>
    2804:	ffdb6737          	lui	a4,0xffdb6
    2808:	93070713          	addi	a4,a4,-1744 # ffdb5930 <_eusrstack+0xdfdb2930>
    280c:	97ba                	add	a5,a5,a4
    280e:	7d000713          	li	a4,2000
    2812:	02e7d7b3          	divu	a5,a5,a4
    2816:	17f9                	addi	a5,a5,-2
    2818:	b7ad                	j	2782 <RF_Config+0x78>
    281a:	02700793          	li	a5,39
    281e:	b795                	j	2782 <RF_Config+0x78>
    2820:	4505                	li	a0,1
    2822:	8082                	ret

00002824 <RF_Tx>:
RF_Tx():
    2824:	7179                	addi	sp,sp,-48
    2826:	d422                	sw	s0,40(sp)
    2828:	65418413          	addi	s0,gp,1620 # 20001cfc <rfConfig>
    282c:	441c                	lw	a5,8(s0)
    282e:	d606                	sw	ra,44(sp)
    2830:	d226                	sw	s1,36(sp)
    2832:	d04a                	sw	s2,32(sp)
    2834:	ce4e                	sw	s3,28(sp)
    2836:	cc52                	sw	s4,24(sp)
    2838:	ca56                	sw	s5,20(sp)
    283a:	c85a                	sw	s6,16(sp)
    283c:	c65e                	sw	s7,12(sp)
    283e:	14078563          	beqz	a5,2988 <RF_Tx+0x164>
    2842:	7091c703          	lbu	a4,1801(gp) # 20001db1 <gBleIPPara+0x5>
    2846:	4795                	li	a5,5
    2848:	8b2a                	mv	s6,a0
    284a:	70418a13          	addi	s4,gp,1796 # 20001dac <gBleIPPara>
    284e:	4509                	li	a0,2
    2850:	10f70863          	beq	a4,a5,2960 <RF_Tx+0x13c>
    2854:	450d                	li	a0,3
    2856:	89ae                	mv	s3,a1
    2858:	8ab2                	mv	s5,a2
    285a:	8bb6                	mv	s7,a3
    285c:	70018913          	addi	s2,gp,1792 # 20001da8 <gptrBBReg>
    2860:	4d2030ef          	jal	ra,5d32 <phy_status_clear>
    2864:	00092703          	lw	a4,0(s2)
    2868:	5b5c                	lw	a5,52(a4)
    286a:	9bf1                	andi	a5,a5,-4
    286c:	0017e793          	ori	a5,a5,1
    2870:	db5c                	sw	a5,52(a4)
    2872:	00044783          	lbu	a5,0(s0)
    2876:	0407f793          	andi	a5,a5,64
    287a:	0e079e63          	bnez	a5,2976 <RF_Tx+0x152>
    287e:	4581                	li	a1,0
    2880:	6551c503          	lbu	a0,1621(gp) # 20001cfd <rfConfig+0x1>
    2884:	3e65                	jal	243c <RF_DevSetChannel>
    2886:	25800513          	li	a0,600
    288a:	614030ef          	jal	ra,5e9e <LLE_DevSetMode>
    288e:	00092783          	lw	a5,0(s2)
    2892:	4418                	lw	a4,8(s0)
    2894:	ff0005b7          	lui	a1,0xff000
    2898:	00800637          	lui	a2,0x800
    289c:	c7d8                	sw	a4,12(a5)
    289e:	d3b8                	sw	a4,96(a5)
    28a0:	4458                	lw	a4,12(s0)
    28a2:	32d60613          	addi	a2,a2,813 # 80032d <_data_lma+0x7fa3a5>
    28a6:	72018493          	addi	s1,gp,1824 # 20001dc8 <gptrLLEReg>
    28aa:	c3d8                	sw	a4,4(a5)
    28ac:	cfb8                	sw	a4,88(a5)
    28ae:	4794                	lw	a3,8(a5)
    28b0:	8eed                	and	a3,a3,a1
    28b2:	8ed1                	or	a3,a3,a2
    28b4:	c794                	sw	a3,8(a5)
    28b6:	4ff8                	lw	a4,92(a5)
    28b8:	8f6d                	and	a4,a4,a1
    28ba:	8f51                	or	a4,a4,a2
    28bc:	cff8                	sw	a4,92(a5)
    28be:	00044783          	lbu	a5,0(s0)
    28c2:	4094                	lw	a3,0(s1)
    28c4:	0017f713          	andi	a4,a5,1
    28c8:	42dc                	lw	a5,4(a3)
    28ca:	9bf9                	andi	a5,a5,-2
    28cc:	8fd9                	or	a5,a5,a4
    28ce:	c2dc                	sw	a5,4(a3)
    28d0:	6741c783          	lbu	a5,1652(gp) # 20001d1c <rfInfo+0x8>
    28d4:	0027e793          	ori	a5,a5,2
    28d8:	66f18a23          	sb	a5,1652(gp) # 20001d1c <rfInfo+0x8>
    28dc:	67518623          	sb	s5,1644(gp) # 20001d14 <rfInfo>
    28e0:	677186a3          	sb	s7,1645(gp) # 20001d15 <rfInfo+0x1>
    28e4:	080b0c63          	beqz	s6,297c <RF_Tx+0x158>
    28e8:	010a2503          	lw	a0,16(s4)
    28ec:	864e                	mv	a2,s3
    28ee:	85da                	mv	a1,s6
    28f0:	01550023          	sb	s5,0(a0)
    28f4:	013500a3          	sb	s3,1(a0)
    28f8:	0509                	addi	a0,a0,2
    28fa:	1fffd097          	auipc	ra,0x1fffd
    28fe:	7e0080e7          	jalr	2016(ra) # 200000da <tmos_memcpy>
    2902:	409c                	lw	a5,0(s1)
    2904:	010a2703          	lw	a4,16(s4)
    2908:	6541c503          	lbu	a0,1620(gp) # 20001cfc <rfConfig>
    290c:	8511                	srai	a0,a0,0x4
    290e:	dfb8                	sw	a4,120(a5)
    2910:	70018323          	sb	zero,1798(gp) # 20001dae <gBleIPPara+0x2>
    2914:	700183a3          	sb	zero,1799(gp) # 20001daf <gBleIPPara+0x3>
    2918:	478d                	li	a5,3
    291a:	890d                	andi	a0,a0,3
    291c:	85ce                	mv	a1,s3
    291e:	70f184a3          	sb	a5,1801(gp) # 20001db1 <gBleIPPara+0x5>
    2922:	27a030ef          	jal	ra,5b9c <BLE_SetPHYTxMode>
    2926:	00044783          	lbu	a5,0(s0)
    292a:	00000517          	auipc	a0,0x0
    292e:	c3c50513          	addi	a0,a0,-964 # 2566 <rf_tx_auto_txProcess>
    2932:	8b85                	andi	a5,a5,1
    2934:	e789                	bnez	a5,293e <RF_Tx+0x11a>
    2936:	00000517          	auipc	a0,0x0
    293a:	bd450513          	addi	a0,a0,-1068 # 250a <rf_tx_basic_txProcess>
    293e:	3cc5                	jal	242e <TMOS_SysRegister>
    2940:	00092783          	lw	a5,0(s2)
    2944:	010006b7          	lui	a3,0x1000
    2948:	4501                	li	a0,0
    294a:	4398                	lw	a4,0(a5)
    294c:	8f55                	or	a4,a4,a3
    294e:	c398                	sw	a4,0(a5)
    2950:	5bd8                	lw	a4,52(a5)
    2952:	9b71                	andi	a4,a4,-4
    2954:	dbd8                	sw	a4,52(a5)
    2956:	700182a3          	sb	zero,1797(gp) # 20001dad <gBleIPPara+0x1>
    295a:	409c                	lw	a5,0(s1)
    295c:	4709                	li	a4,2
    295e:	c398                	sw	a4,0(a5)
    2960:	50b2                	lw	ra,44(sp)
    2962:	5422                	lw	s0,40(sp)
    2964:	5492                	lw	s1,36(sp)
    2966:	5902                	lw	s2,32(sp)
    2968:	49f2                	lw	s3,28(sp)
    296a:	4a62                	lw	s4,24(sp)
    296c:	4ad2                	lw	s5,20(sp)
    296e:	4b42                	lw	s6,16(sp)
    2970:	4bb2                	lw	s7,12(sp)
    2972:	6145                	addi	sp,sp,48
    2974:	8082                	ret
    2976:	4589                	li	a1,2
    2978:	4048                	lw	a0,4(s0)
    297a:	b729                	j	2884 <RF_Tx+0x60>
    297c:	010a2783          	lw	a5,16(s4)
    2980:	4981                	li	s3,0
    2982:	0157a023          	sw	s5,0(a5)
    2986:	bfb5                	j	2902 <RF_Tx+0xde>
    2988:	4505                	li	a0,1
    298a:	bfd9                	j	2960 <RF_Tx+0x13c>

0000298c <RF_Rx>:
RF_Rx():
    298c:	7179                	addi	sp,sp,-48
    298e:	e000e7b7          	lui	a5,0xe000e
    2992:	d226                	sw	s1,36(sp)
    2994:	4384                	lw	s1,0(a5)
    2996:	00200737          	lui	a4,0x200
    299a:	d606                	sw	ra,44(sp)
    299c:	d422                	sw	s0,40(sp)
    299e:	d04a                	sw	s2,32(sp)
    29a0:	ce4e                	sw	s3,28(sp)
    29a2:	cc52                	sw	s4,24(sp)
    29a4:	ca56                	sw	s5,20(sp)
    29a6:	8cf9                	and	s1,s1,a4
    29a8:	18e7a023          	sw	a4,384(a5) # e000e180 <_eusrstack+0xc000b180>
    29ac:	0000100f          	fence.i
    29b0:	65418413          	addi	s0,gp,1620 # 20001cfc <rfConfig>
    29b4:	4418                	lw	a4,8(s0)
    29b6:	ef09                	bnez	a4,29d0 <RF_Rx+0x44>
    29b8:	1097a023          	sw	s1,256(a5)
    29bc:	4505                	li	a0,1
    29be:	50b2                	lw	ra,44(sp)
    29c0:	5422                	lw	s0,40(sp)
    29c2:	5492                	lw	s1,36(sp)
    29c4:	5902                	lw	s2,32(sp)
    29c6:	49f2                	lw	s3,28(sp)
    29c8:	4a62                	lw	s4,24(sp)
    29ca:	4ad2                	lw	s5,20(sp)
    29cc:	6145                	addi	sp,sp,48
    29ce:	8082                	ret
    29d0:	1ffff717          	auipc	a4,0x1ffff
    29d4:	4d470713          	addi	a4,a4,1236 # 20001ea4 <gBleLlPara>
    29d8:	5718                	lw	a4,40(a4)
    29da:	c709                	beqz	a4,29e4 <RF_Rx+0x58>
    29dc:	1097a023          	sw	s1,256(a5)
    29e0:	4509                	li	a0,2
    29e2:	bff1                	j	29be <RF_Rx+0x32>
    29e4:	00044783          	lbu	a5,0(s0)
    29e8:	8a32                	mv	s4,a2
    29ea:	89b6                	mv	s3,a3
    29ec:	8b85                	andi	a5,a5,1
    29ee:	862e                	mv	a2,a1
    29f0:	8aaa                	mv	s5,a0
    29f2:	cfa9                	beqz	a5,2a4c <RF_Rx+0xc0>
    29f4:	66c18913          	addi	s2,gp,1644 # 20001d14 <rfInfo>
    29f8:	00492783          	lw	a5,4(s2)
    29fc:	ef81                	bnez	a5,2a14 <RF_Rx+0x88>
    29fe:	6691c503          	lbu	a0,1641(gp) # 20001d11 <rfConfig+0x15>
    2a02:	c62e                	sw	a1,12(sp)
    2a04:	0509                	addi	a0,a0,2
    2a06:	04900593          	li	a1,73
    2a0a:	37c030ef          	jal	ra,5d86 <tmos_memory_allocate>
    2a0e:	4632                	lw	a2,12(sp)
    2a10:	66a1a823          	sw	a0,1648(gp) # 20001d18 <rfInfo+0x4>
    2a14:	00492783          	lw	a5,4(s2)
    2a18:	e799                	bnez	a5,2a26 <RF_Rx+0x9a>
    2a1a:	e000e7b7          	lui	a5,0xe000e
    2a1e:	1097a023          	sw	s1,256(a5) # e000e100 <_eusrstack+0xc000b100>
    2a22:	450d                	li	a0,3
    2a24:	bf69                	j	29be <RF_Rx+0x32>
    2a26:	66e1c703          	lbu	a4,1646(gp) # 20001d16 <rfInfo+0x2>
    2a2a:	00e78023          	sb	a4,0(a5)
    2a2e:	00492783          	lw	a5,4(s2)
    2a32:	040a8163          	beqz	s5,2a74 <RF_Rx+0xe8>
    2a36:	ce1d                	beqz	a2,2a74 <RF_Rx+0xe8>
    2a38:	00c780a3          	sb	a2,1(a5)
    2a3c:	00492503          	lw	a0,4(s2)
    2a40:	85d6                	mv	a1,s5
    2a42:	0509                	addi	a0,a0,2
    2a44:	1fffd097          	auipc	ra,0x1fffd
    2a48:	696080e7          	jalr	1686(ra) # 200000da <tmos_memcpy>
    2a4c:	7091c703          	lbu	a4,1801(gp) # 20001db1 <gBleIPPara+0x5>
    2a50:	4795                	li	a5,5
    2a52:	02f71463          	bne	a4,a5,2a7a <RF_Rx+0xee>
    2a56:	47a1                	li	a5,8
    2a58:	02000593          	li	a1,32
    2a5c:	6761c503          	lbu	a0,1654(gp) # 20001d1e <rfInfo+0xa>
    2a60:	70f18523          	sb	a5,1802(gp) # 20001db2 <gBleIPPara+0x6>
    2a64:	074030ef          	jal	ra,5ad8 <tmos_set_event>
    2a68:	e000e7b7          	lui	a5,0xe000e
    2a6c:	1097a023          	sw	s1,256(a5) # e000e100 <_eusrstack+0xc000b100>
    2a70:	4501                	li	a0,0
    2a72:	b7b1                	j	29be <RF_Rx+0x32>
    2a74:	000780a3          	sb	zero,1(a5)
    2a78:	bfd1                	j	2a4c <RF_Rx+0xc0>
    2a7a:	72018913          	addi	s2,gp,1824 # 20001dc8 <gptrLLEReg>
    2a7e:	00092783          	lw	a5,0(s2)
    2a82:	4398                	lw	a4,0(a5)
    2a84:	8b0d                	andi	a4,a4,3
    2a86:	c31d                	beqz	a4,2aac <RF_Rx+0x120>
    2a88:	70018e23          	sb	zero,1820(gp) # 20001dc4 <tmosSign>
    2a8c:	4bb8                	lw	a4,80(a5)
    2a8e:	8ff77713          	andi	a4,a4,-1793
    2a92:	cbb8                	sw	a4,80(a5)
    2a94:	4398                	lw	a4,0(a5)
    2a96:	00876713          	ori	a4,a4,8
    2a9a:	c398                	sw	a4,0(a5)
    2a9c:	439c                	lw	a5,0(a5)
    2a9e:	838d                	srli	a5,a5,0x3
    2aa0:	8b85                	andi	a5,a5,1
    2aa2:	c789                	beqz	a5,2aac <RF_Rx+0x120>
    2aa4:	0001                	nop
    2aa6:	0001                	nop
    2aa8:	0001                	nop
    2aaa:	0001                	nop
    2aac:	00092783          	lw	a5,0(s2)
    2ab0:	6541c583          	lbu	a1,1620(gp) # 20001cfc <rfConfig>
    2ab4:	0607a223          	sw	zero,100(a5)
    2ab8:	0405f793          	andi	a5,a1,64
    2abc:	0c079063          	bnez	a5,2b7c <RF_Rx+0x1f0>
    2ac0:	4581                	li	a1,0
    2ac2:	6551c503          	lbu	a0,1621(gp) # 20001cfd <rfConfig+0x1>
    2ac6:	977ff0ef          	jal	ra,243c <RF_DevSetChannel>
    2aca:	6541c503          	lbu	a0,1620(gp) # 20001cfc <rfConfig>
    2ace:	8511                	srai	a0,a0,0x4
    2ad0:	4601                	li	a2,0
    2ad2:	6681c583          	lbu	a1,1640(gp) # 20001d10 <rfConfig+0x14>
    2ad6:	890d                	andi	a0,a0,3
    2ad8:	134030ef          	jal	ra,5c0c <BLE_SetPHYRxMode>
    2adc:	70018793          	addi	a5,gp,1792 # 20001da8 <gptrBBReg>
    2ae0:	439c                	lw	a5,0(a5)
    2ae2:	4418                	lw	a4,8(s0)
    2ae4:	ff0005b7          	lui	a1,0xff000
    2ae8:	00800637          	lui	a2,0x800
    2aec:	d3b8                	sw	a4,96(a5)
    2aee:	c7d8                	sw	a4,12(a5)
    2af0:	4458                	lw	a4,12(s0)
    2af2:	32d60613          	addi	a2,a2,813 # 80032d <_data_lma+0x7fa3a5>
    2af6:	00000517          	auipc	a0,0x0
    2afa:	15650513          	addi	a0,a0,342 # 2c4c <rf_rx_auto_rxProcess>
    2afe:	cfb8                	sw	a4,88(a5)
    2b00:	c3d8                	sw	a4,4(a5)
    2b02:	4ff4                	lw	a3,92(a5)
    2b04:	8eed                	and	a3,a3,a1
    2b06:	8ed1                	or	a3,a3,a2
    2b08:	cff4                	sw	a3,92(a5)
    2b0a:	4798                	lw	a4,8(a5)
    2b0c:	8f6d                	and	a4,a4,a1
    2b0e:	8f51                	or	a4,a4,a2
    2b10:	c798                	sw	a4,8(a5)
    2b12:	00092703          	lw	a4,0(s2)
    2b16:	00044783          	lbu	a5,0(s0)
    2b1a:	0017f693          	andi	a3,a5,1
    2b1e:	435c                	lw	a5,4(a4)
    2b20:	9bf9                	andi	a5,a5,-2
    2b22:	8fd5                	or	a5,a5,a3
    2b24:	c35c                	sw	a5,4(a4)
    2b26:	66c18793          	addi	a5,gp,1644 # 20001d14 <rfInfo>
    2b2a:	43d4                	lw	a3,4(a5)
    2b2c:	0087c783          	lbu	a5,8(a5)
    2b30:	df34                	sw	a3,120(a4)
    2b32:	0047e793          	ori	a5,a5,4
    2b36:	66f18a23          	sb	a5,1652(gp) # 20001d1c <rfInfo+0x8>
    2b3a:	04000793          	li	a5,64
    2b3e:	70f18223          	sb	a5,1796(gp) # 20001dac <gBleIPPara>
    2b42:	47a1                	li	a5,8
    2b44:	70f184a3          	sb	a5,1801(gp) # 20001db1 <gBleIPPara+0x5>
    2b48:	70018523          	sb	zero,1802(gp) # 20001db2 <gBleIPPara+0x6>
    2b4c:	435c                	lw	a5,4(a4)
    2b4e:	674187a3          	sb	s4,1647(gp) # 20001d17 <rfInfo+0x3>
    2b52:	67318723          	sb	s3,1646(gp) # 20001d16 <rfInfo+0x2>
    2b56:	8b85                	andi	a5,a5,1
    2b58:	e789                	bnez	a5,2b62 <RF_Rx+0x1d6>
    2b5a:	00000517          	auipc	a0,0x0
    2b5e:	02e50513          	addi	a0,a0,46 # 2b88 <rf_rx_basic_rxProcess>
    2b62:	8cdff0ef          	jal	ra,242e <TMOS_SysRegister>
    2b66:	15800513          	li	a0,344
    2b6a:	334030ef          	jal	ra,5e9e <LLE_DevSetMode>
    2b6e:	700182a3          	sb	zero,1797(gp) # 20001dad <gBleIPPara+0x1>
    2b72:	00092783          	lw	a5,0(s2)
    2b76:	4705                	li	a4,1
    2b78:	c398                	sw	a4,0(a5)
    2b7a:	b5fd                	j	2a68 <RF_Rx+0xdc>
    2b7c:	0305f593          	andi	a1,a1,48
    2b80:	0015e593          	ori	a1,a1,1
    2b84:	4048                	lw	a0,4(s0)
    2b86:	b781                	j	2ac6 <RF_Rx+0x13a>

00002b88 <rf_rx_basic_rxProcess>:
rf_rx_basic_rxProcess():
    2b88:	1101                	addi	sp,sp,-32
    2b8a:	7051c783          	lbu	a5,1797(gp) # 20001dad <gBleIPPara+0x1>
    2b8e:	ce06                	sw	ra,28(sp)
    2b90:	cc22                	sw	s0,24(sp)
    2b92:	ca26                	sw	s1,20(sp)
    2b94:	8b85                	andi	a5,a5,1
    2b96:	70418713          	addi	a4,gp,1796 # 20001dac <gBleIPPara>
    2b9a:	cbad                	beqz	a5,2c0c <rf_rx_basic_rxProcess+0x84>
    2b9c:	843a                	mv	s0,a4
    2b9e:	4b44                	lw	s1,20(a4)
    2ba0:	700182a3          	sb	zero,1797(gp) # 20001dad <gBleIPPara+0x1>
    2ba4:	000107a3          	sb	zero,15(sp)
    2ba8:	94fff0ef          	jal	ra,24f6 <rf_stop>
    2bac:	4848                	lw	a0,20(s0)
    2bae:	00f10593          	addi	a1,sp,15
    2bb2:	4601                	li	a2,0
    2bb4:	1fffe097          	auipc	ra,0x1fffe
    2bb8:	8a2080e7          	jalr	-1886(ra) # 20000456 <ble_ll_chkcrc>
    2bbc:	485c                	lw	a5,20(s0)
    2bbe:	01851593          	slli	a1,a0,0x18
    2bc2:	0ff00693          	li	a3,255
    2bc6:	0007c703          	lbu	a4,0(a5)
    2bca:	85e1                	srai	a1,a1,0x18
    2bcc:	00d70a63          	beq	a4,a3,2be0 <rf_rx_basic_rxProcess+0x58>
    2bd0:	66f1c783          	lbu	a5,1647(gp) # 20001d17 <rfInfo+0x3>
    2bd4:	00d78663          	beq	a5,a3,2be0 <rf_rx_basic_rxProcess+0x58>
    2bd8:	00f70463          	beq	a4,a5,2be0 <rf_rx_basic_rxProcess+0x58>
    2bdc:	0025e593          	ori	a1,a1,2
    2be0:	65418793          	addi	a5,gp,1620 # 20001cfc <rfConfig>
    2be4:	00078703          	lb	a4,0(a5)
    2be8:	00074763          	bltz	a4,2bf6 <rf_rx_basic_rxProcess+0x6e>
    2bec:	e589                	bnez	a1,2bf6 <rf_rx_basic_rxProcess+0x6e>
    2bee:	00f14703          	lbu	a4,15(sp)
    2bf2:	00e48023          	sb	a4,0(s1)
    2bf6:	4b9c                	lw	a5,16(a5)
    2bf8:	4850                	lw	a2,20(s0)
    2bfa:	0ff5f593          	zext.b	a1,a1
    2bfe:	450d                	li	a0,3
    2c00:	9782                	jalr	a5
    2c02:	40f2                	lw	ra,28(sp)
    2c04:	4462                	lw	s0,24(sp)
    2c06:	44d2                	lw	s1,20(sp)
    2c08:	6105                	addi	sp,sp,32
    2c0a:	8082                	ret
    2c0c:	72018793          	addi	a5,gp,1824 # 20001dc8 <gptrLLEReg>
    2c10:	439c                	lw	a5,0(a5)
    2c12:	53fc                	lw	a5,100(a5)
    2c14:	e39d                	bnez	a5,2c3a <rf_rx_basic_rxProcess+0xb2>
    2c16:	8e1ff0ef          	jal	ra,24f6 <rf_stop>
    2c1a:	6b018793          	addi	a5,gp,1712 # 20001d58 <ble>
    2c1e:	579c                	lw	a5,40(a5)
    2c20:	c789                	beqz	a5,2c2a <rf_rx_basic_rxProcess+0xa2>
    2c22:	4585                	li	a1,1
    2c24:	08100513          	li	a0,129
    2c28:	9782                	jalr	a5
    2c2a:	66e1c683          	lbu	a3,1646(gp) # 20001d16 <rfInfo+0x2>
    2c2e:	66f1c603          	lbu	a2,1647(gp) # 20001d17 <rfInfo+0x3>
    2c32:	4581                	li	a1,0
    2c34:	4501                	li	a0,0
    2c36:	3b99                	jal	298c <RF_Rx>
    2c38:	b7e9                	j	2c02 <rf_rx_basic_rxProcess+0x7a>
    2c3a:	00574783          	lbu	a5,5(a4)
    2c3e:	4721                	li	a4,8
    2c40:	fcf711e3          	bne	a4,a5,2c02 <rf_rx_basic_rxProcess+0x7a>
    2c44:	4785                	li	a5,1
    2c46:	70f18e23          	sb	a5,1820(gp) # 20001dc4 <tmosSign>
    2c4a:	bf65                	j	2c02 <rf_rx_basic_rxProcess+0x7a>

00002c4c <rf_rx_auto_rxProcess>:
rf_rx_auto_rxProcess():
    2c4c:	7179                	addi	sp,sp,-48
    2c4e:	7041c783          	lbu	a5,1796(gp) # 20001dac <gBleIPPara>
    2c52:	d606                	sw	ra,44(sp)
    2c54:	d422                	sw	s0,40(sp)
    2c56:	d226                	sw	s1,36(sp)
    2c58:	d04a                	sw	s2,32(sp)
    2c5a:	ce4e                	sw	s3,28(sp)
    2c5c:	cc52                	sw	s4,24(sp)
    2c5e:	8b85                	andi	a5,a5,1
    2c60:	70418713          	addi	a4,gp,1796 # 20001dac <gBleIPPara>
    2c64:	12078d63          	beqz	a5,2d9e <rf_rx_auto_rxProcess+0x152>
    2c68:	01472a03          	lw	s4,20(a4)
    2c6c:	4601                	li	a2,0
    2c6e:	00f10593          	addi	a1,sp,15
    2c72:	8552                	mv	a0,s4
    2c74:	893a                	mv	s2,a4
    2c76:	000107a3          	sb	zero,15(sp)
    2c7a:	70018223          	sb	zero,1796(gp) # 20001dac <gBleIPPara>
    2c7e:	1fffd097          	auipc	ra,0x1fffd
    2c82:	7d8080e7          	jalr	2008(ra) # 20000456 <ble_ll_chkcrc>
    2c86:	01851493          	slli	s1,a0,0x18
    2c8a:	84e1                	srai	s1,s1,0x18
    2c8c:	e085                	bnez	s1,2cac <rf_rx_auto_rxProcess+0x60>
    2c8e:	66f1c783          	lbu	a5,1647(gp) # 20001d17 <rfInfo+0x3>
    2c92:	0ff00693          	li	a3,255
    2c96:	00d78b63          	beq	a5,a3,2cac <rf_rx_auto_rxProcess+0x60>
    2c9a:	01492703          	lw	a4,20(s2)
    2c9e:	00074703          	lbu	a4,0(a4)
    2ca2:	00d70563          	beq	a4,a3,2cac <rf_rx_auto_rxProcess+0x60>
    2ca6:	00f70363          	beq	a4,a5,2cac <rf_rx_auto_rxProcess+0x60>
    2caa:	4489                	li	s1,2
    2cac:	65418413          	addi	s0,gp,1620 # 20001cfc <rfConfig>
    2cb0:	00040783          	lb	a5,0(s0)
    2cb4:	66c18993          	addi	s3,gp,1644 # 20001d14 <rfInfo>
    2cb8:	0a07c363          	bltz	a5,2d5e <rf_rx_auto_rxProcess+0x112>
    2cbc:	e0d5                	bnez	s1,2d60 <rf_rx_auto_rxProcess+0x114>
    2cbe:	00f14783          	lbu	a5,15(sp)
    2cc2:	00fa0023          	sb	a5,0(s4)
    2cc6:	72c18793          	addi	a5,gp,1836 # 20001dd4 <gptrRFENDReg>
    2cca:	4398                	lw	a4,0(a5)
    2ccc:	575c                	lw	a5,44(a4)
    2cce:	8385                	srli	a5,a5,0x1
    2cd0:	8b85                	andi	a5,a5,1
    2cd2:	c3a1                	beqz	a5,2d12 <rf_rx_auto_rxProcess+0xc6>
    2cd4:	405c                	lw	a5,4(s0)
    2cd6:	65c1                	lui	a1,0x10
    2cd8:	a0058593          	addi	a1,a1,-1536 # fa00 <_data_lma+0x9a78>
    2cdc:	02b7d6b3          	divu	a3,a5,a1
    2ce0:	fe100537          	lui	a0,0xfe100
    2ce4:	157d                	addi	a0,a0,-1 # fe0fffff <_eusrstack+0xde0fcfff>
    2ce6:	02b7f7b3          	remu	a5,a5,a1
    2cea:	8afd                	andi	a3,a3,31
    2cec:	01469613          	slli	a2,a3,0x14
    2cf0:	4374                	lw	a3,68(a4)
    2cf2:	8ee9                	and	a3,a3,a0
    2cf4:	8ed1                	or	a3,a3,a2
    2cf6:	c374                	sw	a3,68(a4)
    2cf8:	0fa00693          	li	a3,250
    2cfc:	fffc0637          	lui	a2,0xfffc0
    2d00:	07aa                	slli	a5,a5,0xa
    2d02:	02d7d7b3          	divu	a5,a5,a3
    2d06:	4374                	lw	a3,68(a4)
    2d08:	8ef1                	and	a3,a3,a2
    2d0a:	07ba                	slli	a5,a5,0xe
    2d0c:	83b9                	srli	a5,a5,0xe
    2d0e:	8fd5                	or	a5,a5,a3
    2d10:	c37c                	sw	a5,68(a4)
    2d12:	0049a783          	lw	a5,4(s3)
    2d16:	6541c503          	lbu	a0,1620(gp) # 20001cfc <rfConfig>
    2d1a:	8511                	srai	a0,a0,0x4
    2d1c:	0017c583          	lbu	a1,1(a5)
    2d20:	890d                	andi	a0,a0,3
    2d22:	67b020ef          	jal	ra,5b9c <BLE_SetPHYTxMode>
    2d26:	00000517          	auipc	a0,0x0
    2d2a:	0b050513          	addi	a0,a0,176 # 2dd6 <rf_rx_auto_txProcess>
    2d2e:	f00ff0ef          	jal	ra,242e <TMOS_SysRegister>
    2d32:	70018793          	addi	a5,gp,1792 # 20001da8 <gptrBBReg>
    2d36:	439c                	lw	a5,0(a5)
    2d38:	010006b7          	lui	a3,0x1000
    2d3c:	4398                	lw	a4,0(a5)
    2d3e:	8f55                	or	a4,a4,a3
    2d40:	c398                	sw	a4,0(a5)
    2d42:	5bd8                	lw	a4,52(a5)
    2d44:	9b71                	andi	a4,a4,-4
    2d46:	dbd8                	sw	a4,52(a5)
    2d48:	00044783          	lbu	a5,0(s0)
    2d4c:	8ba1                	andi	a5,a5,8
    2d4e:	e3a1                	bnez	a5,2d8e <rf_rx_auto_rxProcess+0x142>
    2d50:	481c                	lw	a5,16(s0)
    2d52:	01492603          	lw	a2,20(s2)
    2d56:	4581                	li	a1,0
    2d58:	450d                	li	a0,3
    2d5a:	9782                	jalr	a5
    2d5c:	a80d                	j	2d8e <rf_rx_auto_rxProcess+0x142>
    2d5e:	d4a5                	beqz	s1,2cc6 <rf_rx_auto_rxProcess+0x7a>
    2d60:	78f020ef          	jal	ra,5cee <ble_ll_hw_api_shut>
    2d64:	481c                	lw	a5,16(s0)
    2d66:	01492603          	lw	a2,20(s2)
    2d6a:	450d                	li	a0,3
    2d6c:	0ff4f593          	zext.b	a1,s1
    2d70:	9782                	jalr	a5
    2d72:	0049a503          	lw	a0,4(s3)
    2d76:	66f1c603          	lbu	a2,1647(gp) # 20001d17 <rfInfo+0x3>
    2d7a:	66e1c683          	lbu	a3,1646(gp) # 20001d16 <rfInfo+0x2>
    2d7e:	c509                	beqz	a0,2d88 <rf_rx_auto_rxProcess+0x13c>
    2d80:	00154583          	lbu	a1,1(a0)
    2d84:	0509                	addi	a0,a0,2
    2d86:	a019                	j	2d8c <rf_rx_auto_rxProcess+0x140>
    2d88:	4581                	li	a1,0
    2d8a:	4501                	li	a0,0
    2d8c:	3101                	jal	298c <RF_Rx>
    2d8e:	50b2                	lw	ra,44(sp)
    2d90:	5422                	lw	s0,40(sp)
    2d92:	5492                	lw	s1,36(sp)
    2d94:	5902                	lw	s2,32(sp)
    2d96:	49f2                	lw	s3,28(sp)
    2d98:	4a62                	lw	s4,24(sp)
    2d9a:	6145                	addi	sp,sp,48
    2d9c:	8082                	ret
    2d9e:	72018793          	addi	a5,gp,1824 # 20001dc8 <gptrLLEReg>
    2da2:	439c                	lw	a5,0(a5)
    2da4:	53fc                	lw	a5,100(a5)
    2da6:	ef99                	bnez	a5,2dc4 <rf_rx_auto_rxProcess+0x178>
    2da8:	f4eff0ef          	jal	ra,24f6 <rf_stop>
    2dac:	6b018793          	addi	a5,gp,1712 # 20001d58 <ble>
    2db0:	579c                	lw	a5,40(a5)
    2db2:	c789                	beqz	a5,2dbc <rf_rx_auto_rxProcess+0x170>
    2db4:	4589                	li	a1,2
    2db6:	08100513          	li	a0,129
    2dba:	9782                	jalr	a5
    2dbc:	66c18793          	addi	a5,gp,1644 # 20001d14 <rfInfo>
    2dc0:	43c8                	lw	a0,4(a5)
    2dc2:	bf55                	j	2d76 <rf_rx_auto_rxProcess+0x12a>
    2dc4:	00574783          	lbu	a5,5(a4)
    2dc8:	4721                	li	a4,8
    2dca:	fcf712e3          	bne	a4,a5,2d8e <rf_rx_auto_rxProcess+0x142>
    2dce:	4785                	li	a5,1
    2dd0:	70f18e23          	sb	a5,1820(gp) # 20001dc4 <tmosSign>
    2dd4:	bf6d                	j	2d8e <rf_rx_auto_rxProcess+0x142>

00002dd6 <rf_rx_auto_txProcess>:
rf_rx_auto_txProcess():
    2dd6:	1141                	addi	sp,sp,-16
    2dd8:	7051c783          	lbu	a5,1797(gp) # 20001dad <gBleIPPara+0x1>
    2ddc:	c606                	sw	ra,12(sp)
    2dde:	c422                	sw	s0,8(sp)
    2de0:	8b85                	andi	a5,a5,1
    2de2:	c78d                	beqz	a5,2e0c <rf_rx_auto_txProcess+0x36>
    2de4:	700182a3          	sb	zero,1797(gp) # 20001dad <gBleIPPara+0x1>
    2de8:	f0eff0ef          	jal	ra,24f6 <rf_stop>
    2dec:	65418793          	addi	a5,gp,1620 # 20001cfc <rfConfig>
    2df0:	0007c703          	lbu	a4,0(a5)
    2df4:	843e                	mv	s0,a5
    2df6:	8b21                	andi	a4,a4,8
    2df8:	ef05                	bnez	a4,2e30 <rf_rx_auto_txProcess+0x5a>
    2dfa:	0107a303          	lw	t1,16(a5)
    2dfe:	4601                	li	a2,0
    2e00:	4581                	li	a1,0
    2e02:	4511                	li	a0,4
    2e04:	4422                	lw	s0,8(sp)
    2e06:	40b2                	lw	ra,12(sp)
    2e08:	0141                	addi	sp,sp,16
    2e0a:	8302                	jr	t1
    2e0c:	72018793          	addi	a5,gp,1824 # 20001dc8 <gptrLLEReg>
    2e10:	439c                	lw	a5,0(a5)
    2e12:	53fc                	lw	a5,100(a5)
    2e14:	e7b1                	bnez	a5,2e60 <rf_rx_auto_txProcess+0x8a>
    2e16:	65418793          	addi	a5,gp,1620 # 20001cfc <rfConfig>
    2e1a:	0007c703          	lbu	a4,0(a5)
    2e1e:	843e                	mv	s0,a5
    2e20:	8b21                	andi	a4,a4,8
    2e22:	e719                	bnez	a4,2e30 <rf_rx_auto_txProcess+0x5a>
    2e24:	0107a303          	lw	t1,16(a5)
    2e28:	4601                	li	a2,0
    2e2a:	4581                	li	a1,0
    2e2c:	4551                	li	a0,20
    2e2e:	bfd9                	j	2e04 <rf_rx_auto_txProcess+0x2e>
    2e30:	66c18793          	addi	a5,gp,1644 # 20001d14 <rfInfo>
    2e34:	43c8                	lw	a0,4(a5)
    2e36:	66f1c603          	lbu	a2,1647(gp) # 20001d17 <rfInfo+0x3>
    2e3a:	66e1c683          	lbu	a3,1646(gp) # 20001d16 <rfInfo+0x2>
    2e3e:	cd11                	beqz	a0,2e5a <rf_rx_auto_txProcess+0x84>
    2e40:	00154583          	lbu	a1,1(a0)
    2e44:	0509                	addi	a0,a0,2
    2e46:	3699                	jal	298c <RF_Rx>
    2e48:	00044783          	lbu	a5,0(s0)
    2e4c:	9bdd                	andi	a5,a5,-9
    2e4e:	64f18a23          	sb	a5,1620(gp) # 20001cfc <rfConfig>
    2e52:	40b2                	lw	ra,12(sp)
    2e54:	4422                	lw	s0,8(sp)
    2e56:	0141                	addi	sp,sp,16
    2e58:	8082                	ret
    2e5a:	4581                	li	a1,0
    2e5c:	4501                	li	a0,0
    2e5e:	b7e5                	j	2e46 <rf_rx_auto_txProcess+0x70>
    2e60:	4785                	li	a5,1
    2e62:	70f18e23          	sb	a5,1820(gp) # 20001dc4 <tmosSign>
    2e66:	b7f5                	j	2e52 <rf_rx_auto_txProcess+0x7c>

00002e68 <RFFH_ProcessEvent>:
RFFH_ProcessEvent():
    2e68:	1141                	addi	sp,sp,-16
    2e6a:	c422                	sw	s0,8(sp)
    2e6c:	c606                	sw	ra,12(sp)
    2e6e:	0105f793          	andi	a5,a1,16
    2e72:	842e                	mv	s0,a1
    2e74:	c39d                	beqz	a5,2e9a <RFFH_ProcessEvent+0x32>
    2e76:	7091c703          	lbu	a4,1801(gp) # 20001db1 <gBleIPPara+0x5>
    2e7a:	47a1                	li	a5,8
    2e7c:	00f71963          	bne	a4,a5,2e8e <RFFH_ProcessEvent+0x26>
    2e80:	64000613          	li	a2,1600
    2e84:	45c1                	li	a1,16
    2e86:	6761c503          	lbu	a0,1654(gp) # 20001d1e <rfInfo+0xa>
    2e8a:	e49fe0ef          	jal	ra,1cd2 <tmos_start_task>
    2e8e:	01044513          	xori	a0,s0,16
    2e92:	40b2                	lw	ra,12(sp)
    2e94:	4422                	lw	s0,8(sp)
    2e96:	0141                	addi	sp,sp,16
    2e98:	8082                	ret
    2e9a:	0205f793          	andi	a5,a1,32
    2e9e:	4501                	li	a0,0
    2ea0:	dbed                	beqz	a5,2e92 <RFFH_ProcessEvent+0x2a>
    2ea2:	6541c783          	lbu	a5,1620(gp) # 20001cfc <rfConfig>
    2ea6:	8b85                	andi	a5,a5,1
    2ea8:	66f1c603          	lbu	a2,1647(gp) # 20001d17 <rfInfo+0x3>
    2eac:	66e1c683          	lbu	a3,1646(gp) # 20001d16 <rfInfo+0x2>
    2eb0:	c785                	beqz	a5,2ed8 <RFFH_ProcessEvent+0x70>
    2eb2:	66c18793          	addi	a5,gp,1644 # 20001d14 <rfInfo>
    2eb6:	43c8                	lw	a0,4(a5)
    2eb8:	c105                	beqz	a0,2ed8 <RFFH_ProcessEvent+0x70>
    2eba:	00154583          	lbu	a1,1(a0)
    2ebe:	0509                	addi	a0,a0,2
    2ec0:	acdff0ef          	jal	ra,298c <RF_Rx>
    2ec4:	c519                	beqz	a0,2ed2 <RFFH_ProcessEvent+0x6a>
    2ec6:	02000593          	li	a1,32
    2eca:	6761c503          	lbu	a0,1654(gp) # 20001d1e <rfInfo+0xa>
    2ece:	40b020ef          	jal	ra,5ad8 <tmos_set_event>
    2ed2:	02044513          	xori	a0,s0,32
    2ed6:	bf75                	j	2e92 <RFFH_ProcessEvent+0x2a>
    2ed8:	4581                	li	a1,0
    2eda:	4501                	li	a0,0
    2edc:	b7d5                	j	2ec0 <RFFH_ProcessEvent+0x58>

00002ede <RF_Shut>:
RF_Shut():
    2ede:	1141                	addi	sp,sp,-16
    2ee0:	e000e7b7          	lui	a5,0xe000e
    2ee4:	c422                	sw	s0,8(sp)
    2ee6:	4380                	lw	s0,0(a5)
    2ee8:	00200737          	lui	a4,0x200
    2eec:	c606                	sw	ra,12(sp)
    2eee:	8c79                	and	s0,s0,a4
    2ef0:	18e7a023          	sw	a4,384(a5) # e000e180 <_eusrstack+0xc000b180>
    2ef4:	0000100f          	fence.i
    2ef8:	66018a23          	sb	zero,1652(gp) # 20001d1c <rfInfo+0x8>
    2efc:	66c18793          	addi	a5,gp,1644 # 20001d14 <rfInfo>
    2f00:	43c8                	lw	a0,4(a5)
    2f02:	c509                	beqz	a0,2f0c <RF_Shut+0x2e>
    2f04:	1fffd097          	auipc	ra,0x1fffd
    2f08:	7f6080e7          	jalr	2038(ra) # 200006fa <tmos_memory_free>
    2f0c:	6601a823          	sw	zero,1648(gp) # 20001d18 <rfInfo+0x4>
    2f10:	70a1c703          	lbu	a4,1802(gp) # 20001db2 <gBleIPPara+0x6>
    2f14:	47a1                	li	a5,8
    2f16:	00f71863          	bne	a4,a5,2f26 <RF_Shut+0x48>
    2f1a:	02000593          	li	a1,32
    2f1e:	6761c503          	lbu	a0,1654(gp) # 20001d1e <rfInfo+0xa>
    2f22:	d6bfe0ef          	jal	ra,1c8c <tmos_clear_event>
    2f26:	5c9020ef          	jal	ra,5cee <ble_ll_hw_api_shut>
    2f2a:	45c1                	li	a1,16
    2f2c:	6761c503          	lbu	a0,1654(gp) # 20001d1e <rfInfo+0xa>
    2f30:	70018e23          	sb	zero,1820(gp) # 20001dc4 <tmosSign>
    2f34:	edffe0ef          	jal	ra,1e12 <tmos_stop_task>
    2f38:	e000e7b7          	lui	a5,0xe000e
    2f3c:	1087a023          	sw	s0,256(a5) # e000e100 <_eusrstack+0xc000b100>
    2f40:	40b2                	lw	ra,12(sp)
    2f42:	4422                	lw	s0,8(sp)
    2f44:	4501                	li	a0,0
    2f46:	0141                	addi	sp,sp,16
    2f48:	8082                	ret

00002f4a <RF_RoleInit>:
RF_RoleInit():
    2f4a:	1141                	addi	sp,sp,-16
    2f4c:	c606                	sw	ra,12(sp)
    2f4e:	c422                	sw	s0,8(sp)
    2f50:	c68ff0ef          	jal	ra,23b8 <BLE_IPCoreInit>
    2f54:	66c18413          	addi	s0,gp,1644 # 20001d14 <rfInfo>
    2f58:	4631                	li	a2,12
    2f5a:	4581                	li	a1,0
    2f5c:	8522                	mv	a0,s0
    2f5e:	1fffd097          	auipc	ra,0x1fffd
    2f62:	1ba080e7          	jalr	442(ra) # 20000118 <tmos_memset>
    2f66:	57fd                	li	a5,-1
    2f68:	00000517          	auipc	a0,0x0
    2f6c:	f0050513          	addi	a0,a0,-256 # 2e68 <RFFH_ProcessEvent>
    2f70:	c01c                	sw	a5,0(s0)
    2f72:	8d4ff0ef          	jal	ra,2046 <TMOS_ProcessEventRegister>
    2f76:	65418793          	addi	a5,gp,1620 # 20001cfc <rfConfig>
    2f7a:	4b8c                	lw	a1,16(a5)
    2f7c:	00a40523          	sb	a0,10(s0)
    2f80:	bc0ff0ef          	jal	ra,2340 <ip_register_task_rf>
    2f84:	40b2                	lw	ra,12(sp)
    2f86:	4422                	lw	s0,8(sp)
    2f88:	4501                	li	a0,0
    2f8a:	0141                	addi	sp,sp,16
    2f8c:	8082                	ret

00002f8e <RFEND_DevInit>:
RFEND_DevInit():
    2f8e:	72c18793          	addi	a5,gp,1836 # 20001dd4 <gptrRFENDReg>
    2f92:	439c                	lw	a5,0(a5)
    2f94:	48000713          	li	a4,1152
    2f98:	f90006b7          	lui	a3,0xf9000
    2f9c:	d798                	sw	a4,40(a5)
    2f9e:	5fd8                	lw	a4,60(a5)
    2fa0:	16fd                	addi	a3,a3,-1 # f8ffffff <_eusrstack+0xd8ffcfff>
    2fa2:	400005b7          	lui	a1,0x40000
    2fa6:	8f75                	and	a4,a4,a3
    2fa8:	020006b7          	lui	a3,0x2000
    2fac:	8f55                	or	a4,a4,a3
    2fae:	dfd8                	sw	a4,60(a5)
    2fb0:	5fd8                	lw	a4,60(a5)
    2fb2:	fffa0637          	lui	a2,0xfffa0
    2fb6:	167d                	addi	a2,a2,-1 # fff9ffff <_eusrstack+0xdff9cfff>
    2fb8:	070e                	slli	a4,a4,0x3
    2fba:	830d                	srli	a4,a4,0x3
    2fbc:	8f4d                	or	a4,a4,a1
    2fbe:	dfd8                	sw	a4,60(a5)
    2fc0:	5b94                	lw	a3,48(a5)
    2fc2:	8ef1                	and	a3,a3,a2
    2fc4:	db94                	sw	a3,48(a5)
    2fc6:	5b98                	lw	a4,48(a5)
    2fc8:	900006b7          	lui	a3,0x90000
    2fcc:	16fd                	addi	a3,a3,-1 # 8fffffff <_eusrstack+0x6fffcfff>
    2fce:	8f75                	and	a4,a4,a3
    2fd0:	8f4d                	or	a4,a4,a1
    2fd2:	db98                	sw	a4,48(a5)
    2fd4:	47b8                	lw	a4,72(a5)
    2fd6:	fff906b7          	lui	a3,0xfff90
    2fda:	16fd                	addi	a3,a3,-1 # fff8ffff <_eusrstack+0xdff8cfff>
    2fdc:	8f75                	and	a4,a4,a3
    2fde:	c7b8                	sw	a4,72(a5)
    2fe0:	4bb8                	lw	a4,80(a5)
    2fe2:	000706b7          	lui	a3,0x70
    2fe6:	8ff77713          	andi	a4,a4,-1793
    2fea:	30076713          	ori	a4,a4,768
    2fee:	cbb8                	sw	a4,80(a5)
    2ff0:	4ff8                	lw	a4,92(a5)
    2ff2:	8f55                	or	a4,a4,a3
    2ff4:	cff8                	sw	a4,92(a5)
    2ff6:	4ff8                	lw	a4,92(a5)
    2ff8:	070006b7          	lui	a3,0x7000
    2ffc:	8f55                	or	a4,a4,a3
    2ffe:	cff8                	sw	a4,92(a5)
    3000:	06400793          	li	a5,100
    3004:	0001                	nop
    3006:	17fd                	addi	a5,a5,-1
    3008:	fff5                	bnez	a5,3004 <RFEND_DevInit+0x76>
    300a:	8082                	ret

0000300c <RFEND_RXFilter>:
RFEND_RXFilter():
    300c:	72c18713          	addi	a4,gp,1836 # 20001dd4 <gptrRFENDReg>
    3010:	431c                	lw	a5,0(a4)
    3012:	7641                	lui	a2,0xffff0
    3014:	167d                	addi	a2,a2,-1 # fffeffff <_eusrstack+0xdffecfff>
    3016:	4bb4                	lw	a3,80(a5)
    3018:	8ef1                	and	a3,a3,a2
    301a:	cbb4                	sw	a3,80(a5)
    301c:	4794                	lw	a3,8(a5)
    301e:	00200637          	lui	a2,0x200
    3022:	8ed1                	or	a3,a3,a2
    3024:	c794                	sw	a3,8(a5)
    3026:	47d4                	lw	a3,12(a5)
    3028:	0106e693          	ori	a3,a3,16
    302c:	c7d4                	sw	a3,12(a5)
    302e:	47d4                	lw	a3,12(a5)
    3030:	9abd                	andi	a3,a3,-17
    3032:	c7d4                	sw	a3,12(a5)
    3034:	0001                	nop
    3036:	0001                	nop
    3038:	0001                	nop
    303a:	0001                	nop
    303c:	4314                	lw	a3,0(a4)
    303e:	6605                	lui	a2,0x1
    3040:	46dc                	lw	a5,12(a3)
    3042:	0107e793          	ori	a5,a5,16
    3046:	c6dc                	sw	a5,12(a3)
    3048:	42dc                	lw	a5,4(a3)
    304a:	8fd1                	or	a5,a5,a2
    304c:	c2dc                	sw	a5,4(a3)
    304e:	72018793          	addi	a5,gp,1824 # 20001dc8 <gptrLLEReg>
    3052:	4390                	lw	a2,0(a5)
    3054:	06400793          	li	a5,100
    3058:	d27c                	sw	a5,100(a2)
    305a:	527c                	lw	a5,100(a2)
    305c:	c791                	beqz	a5,3068 <RFEND_RXFilter+0x5c>
    305e:	09c6a783          	lw	a5,156(a3) # 700009c <_data_lma+0x6ffa114>
    3062:	83a1                	srli	a5,a5,0x8
    3064:	8b85                	andi	a5,a5,1
    3066:	dbf5                	beqz	a5,305a <RFEND_RXFilter+0x4e>
    3068:	0001                	nop
    306a:	0001                	nop
    306c:	0001                	nop
    306e:	0001                	nop
    3070:	4318                	lw	a4,0(a4)
    3072:	6641                	lui	a2,0x10
    3074:	09c72783          	lw	a5,156(a4) # 20009c <_data_lma+0x1fa114>
    3078:	8bfd                	andi	a5,a5,31
    307a:	72f184a3          	sb	a5,1833(gp) # 20001dd1 <gTuneFilter>
    307e:	4b34                	lw	a3,80(a4)
    3080:	8ed1                	or	a3,a3,a2
    3082:	cb34                	sw	a3,80(a4)
    3084:	4b34                	lw	a3,80(a4)
    3086:	ffe00637          	lui	a2,0xffe00
    308a:	167d                	addi	a2,a2,-1 # ffdfffff <_eusrstack+0xdfdfcfff>
    308c:	9a81                	andi	a3,a3,-32
    308e:	8edd                	or	a3,a3,a5
    3090:	cb34                	sw	a3,80(a4)
    3092:	4714                	lw	a3,8(a4)
    3094:	0789                	addi	a5,a5,2
    3096:	8ef1                	and	a3,a3,a2
    3098:	c714                	sw	a3,8(a4)
    309a:	477d                	li	a4,31
    309c:	00f76563          	bltu	a4,a5,30a6 <RFEND_RXFilter+0x9a>
    30a0:	72f18423          	sb	a5,1832(gp) # 20001dd0 <gTuneFilter2M>
    30a4:	8082                	ret
    30a6:	72e18423          	sb	a4,1832(gp) # 20001dd0 <gTuneFilter2M>
    30aa:	8082                	ret

000030ac <RFEND_RXAdc>:
RFEND_RXAdc():
    30ac:	72c18793          	addi	a5,gp,1836 # 20001dd4 <gptrRFENDReg>
    30b0:	439c                	lw	a5,0(a5)
    30b2:	7741                	lui	a4,0xffff0
    30b4:	177d                	addi	a4,a4,-1 # fffeffff <_eusrstack+0xdffecfff>
    30b6:	4fb4                	lw	a3,88(a5)
    30b8:	6641                	lui	a2,0x10
    30ba:	8ef9                	and	a3,a3,a4
    30bc:	cfb4                	sw	a3,88(a5)
    30be:	4794                	lw	a3,8(a5)
    30c0:	8ed1                	or	a3,a3,a2
    30c2:	c794                	sw	a3,8(a5)
    30c4:	47d4                	lw	a3,12(a5)
    30c6:	eff6f693          	andi	a3,a3,-257
    30ca:	c7d4                	sw	a3,12(a5)
    30cc:	43d4                	lw	a3,4(a5)
    30ce:	8f75                	and	a4,a4,a3
    30d0:	c3d8                	sw	a4,4(a5)
    30d2:	47d4                	lw	a3,12(a5)
    30d4:	1006e693          	ori	a3,a3,256
    30d8:	c7d4                	sw	a3,12(a5)
    30da:	43d8                	lw	a4,4(a5)
    30dc:	8f51                	or	a4,a4,a2
    30de:	c3d8                	sw	a4,4(a5)
    30e0:	8082                	ret

000030e2 <RFEND_TXCtune>:
RFEND_TXCtune():
    30e2:	7139                	addi	sp,sp,-64
    30e4:	dc22                	sw	s0,56(sp)
    30e6:	72c18413          	addi	s0,gp,1836 # 20001dd4 <gptrRFENDReg>
    30ea:	401c                	lw	a5,0(s0)
    30ec:	de06                	sw	ra,60(sp)
    30ee:	da26                	sw	s1,52(sp)
    30f0:	d84a                	sw	s2,48(sp)
    30f2:	d64e                	sw	s3,44(sp)
    30f4:	d452                	sw	s4,40(sp)
    30f6:	d256                	sw	s5,36(sp)
    30f8:	d05a                	sw	s6,32(sp)
    30fa:	ce5e                	sw	s7,28(sp)
    30fc:	cc62                	sw	s8,24(sp)
    30fe:	ca66                	sw	s9,20(sp)
    3100:	c86a                	sw	s10,16(sp)
    3102:	c66e                	sw	s11,12(sp)
    3104:	43d8                	lw	a4,4(a5)
    3106:	76fd                	lui	a3,0xfffff
    3108:	16fd                	addi	a3,a3,-1 # ffffefff <_eusrstack+0xdfffbfff>
    310a:	eff77713          	andi	a4,a4,-257
    310e:	c3d8                	sw	a4,4(a5)
    3110:	5798                	lw	a4,40(a5)
    3112:	8f75                	and	a4,a4,a3
    3114:	d798                	sw	a4,40(a5)
    3116:	57d8                	lw	a4,44(a5)
    3118:	000206b7          	lui	a3,0x20
    311c:	9b3d                	andi	a4,a4,-17
    311e:	d7d8                	sw	a4,44(a5)
    3120:	4798                	lw	a4,8(a5)
    3122:	8f55                	or	a4,a4,a3
    3124:	c798                	sw	a4,8(a5)
    3126:	43d8                	lw	a4,4(a5)
    3128:	01076713          	ori	a4,a4,16
    312c:	c3d8                	sw	a4,4(a5)
    312e:	6705                	lui	a4,0x1
    3130:	8341d683          	lhu	a3,-1996(gp) # 20000edc <ftuneFlag>
    3134:	23470713          	addi	a4,a4,564 # 1234 <FLASH_ROM_READ+0x4>
    3138:	48e689e3          	beq	a3,a4,3dca <RFEND_TXCtune+0xce8>
    313c:	43d8                	lw	a4,4(a5)
    313e:	7481                	lui	s1,0xfffe0
    3140:	0ff48493          	addi	s1,s1,255 # fffe00ff <_eusrstack+0xdffdd0ff>
    3144:	9b79                	andi	a4,a4,-2
    3146:	c3d8                	sw	a4,4(a5)
    3148:	5f98                	lw	a4,56(a5)
    314a:	66b1                	lui	a3,0xc
    314c:	f0068693          	addi	a3,a3,-256 # bf00 <_data_lma+0x5f78>
    3150:	8f65                	and	a4,a4,s1
    3152:	8f55                	or	a4,a4,a3
    3154:	df98                	sw	a4,56(a5)
    3156:	43d8                	lw	a4,4(a5)
    3158:	00176713          	ori	a4,a4,1
    315c:	c3d8                	sw	a4,4(a5)
    315e:	5f9020ef          	jal	ra,5f56 <RFEND_WaitTune>
    3162:	401c                	lw	a5,0(s0)
    3164:	0907a703          	lw	a4,144(a5)
    3168:	03f77713          	andi	a4,a4,63
    316c:	82e18b23          	sb	a4,-1994(gp) # 20000ede <nCO2401>
    3170:	0947a703          	lw	a4,148(a5)
    3174:	8329                	srli	a4,a4,0xa
    3176:	07f77713          	andi	a4,a4,127
    317a:	82e18ca3          	sb	a4,-1991(gp) # 20000ee1 <nGA2401>
    317e:	43d8                	lw	a4,4(a5)
    3180:	66b9                	lui	a3,0xe
    3182:	70068693          	addi	a3,a3,1792 # e700 <_data_lma+0x8778>
    3186:	9b79                	andi	a4,a4,-2
    3188:	c3d8                	sw	a4,4(a5)
    318a:	5f98                	lw	a4,56(a5)
    318c:	8f65                	and	a4,a4,s1
    318e:	8f55                	or	a4,a4,a3
    3190:	df98                	sw	a4,56(a5)
    3192:	43d8                	lw	a4,4(a5)
    3194:	00176713          	ori	a4,a4,1
    3198:	c3d8                	sw	a4,4(a5)
    319a:	5bd020ef          	jal	ra,5f56 <RFEND_WaitTune>
    319e:	401c                	lw	a5,0(s0)
    31a0:	0907a703          	lw	a4,144(a5)
    31a4:	03f77713          	andi	a4,a4,63
    31a8:	82e18c23          	sb	a4,-1992(gp) # 20000ee0 <nCO2480>
    31ac:	0947a703          	lw	a4,148(a5)
    31b0:	8329                	srli	a4,a4,0xa
    31b2:	07f77713          	andi	a4,a4,127
    31b6:	82e18da3          	sb	a4,-1989(gp) # 20000ee3 <nGA2480>
    31ba:	43d8                	lw	a4,4(a5)
    31bc:	66b5                	lui	a3,0xd
    31be:	30068693          	addi	a3,a3,768 # d300 <_data_lma+0x7378>
    31c2:	9b79                	andi	a4,a4,-2
    31c4:	c3d8                	sw	a4,4(a5)
    31c6:	5f98                	lw	a4,56(a5)
    31c8:	8f65                	and	a4,a4,s1
    31ca:	8f55                	or	a4,a4,a3
    31cc:	df98                	sw	a4,56(a5)
    31ce:	43d8                	lw	a4,4(a5)
    31d0:	00176713          	ori	a4,a4,1
    31d4:	c3d8                	sw	a4,4(a5)
    31d6:	581020ef          	jal	ra,5f56 <RFEND_WaitTune>
    31da:	4018                	lw	a4,0(s0)
    31dc:	09072783          	lw	a5,144(a4)
    31e0:	03f7f793          	andi	a5,a5,63
    31e4:	82f18ba3          	sb	a5,-1993(gp) # 20000edf <nCO2440>
    31e8:	09472783          	lw	a5,148(a4)
    31ec:	83a9                	srli	a5,a5,0xa
    31ee:	07f7f793          	andi	a5,a5,127
    31f2:	82f18d23          	sb	a5,-1990(gp) # 20000ee2 <nGA2440>
    31f6:	401c                	lw	a5,0(s0)
    31f8:	8371cc03          	lbu	s8,-1993(gp) # 20000edf <nCO2440>
    31fc:	8361c683          	lbu	a3,-1994(gp) # 20000ede <nCO2401>
    3200:	0a07a703          	lw	a4,160(a5)
    3204:	418686b3          	sub	a3,a3,s8
    3208:	00f6f613          	andi	a2,a3,15
    320c:	9b41                	andi	a4,a4,-16
    320e:	8f51                	or	a4,a4,a2
    3210:	0ae7a023          	sw	a4,160(a5)
    3214:	02600713          	li	a4,38
    3218:	02e68733          	mul	a4,a3,a4
    321c:	02700613          	li	a2,39
    3220:	0a07a583          	lw	a1,160(a5)
    3224:	7e7d                	lui	t3,0xfffff
    3226:	0ffe0e13          	addi	t3,t3,255 # fffff0ff <_eusrstack+0xdfffc0ff>
    322a:	f0f5f593          	andi	a1,a1,-241
    322e:	02400513          	li	a0,36
    3232:	7345                	lui	t1,0xffff1
    3234:	137d                	addi	t1,t1,-1 # ffff0fff <_eusrstack+0xdffedfff>
    3236:	02300413          	li	s0,35
    323a:	02c74733          	div	a4,a4,a2
    323e:	fff108b7          	lui	a7,0xfff10
    3242:	18fd                	addi	a7,a7,-1 # fff0ffff <_eusrstack+0xdff0cfff>
    3244:	02200813          	li	a6,34
    3248:	02100e93          	li	t4,33
    324c:	4f7d                	li	t5,31
    324e:	4ff9                	li	t6,30
    3250:	42f5                	li	t0,29
    3252:	43f1                	li	t2,28
    3254:	4d6d                	li	s10,27
    3256:	4bd1                	li	s7,20
    3258:	4b45                	li	s6,17
    325a:	44bd                	li	s1,15
    325c:	4939                	li	s2,14
    325e:	4a31                	li	s4,12
    3260:	4aad                	li	s5,11
    3262:	49b5                	li	s3,13
    3264:	8b3d                	andi	a4,a4,15
    3266:	0712                	slli	a4,a4,0x4
    3268:	8f4d                	or	a4,a4,a1
    326a:	02500593          	li	a1,37
    326e:	0ae7a023          	sw	a4,160(a5)
    3272:	02b68733          	mul	a4,a3,a1
    3276:	0a07a583          	lw	a1,160(a5)
    327a:	01c5f5b3          	and	a1,a1,t3
    327e:	02c74733          	div	a4,a4,a2
    3282:	8b3d                	andi	a4,a4,15
    3284:	0722                	slli	a4,a4,0x8
    3286:	8f4d                	or	a4,a4,a1
    3288:	0ae7a023          	sw	a4,160(a5)
    328c:	02a68733          	mul	a4,a3,a0
    3290:	0a07a583          	lw	a1,160(a5)
    3294:	f1000537          	lui	a0,0xf1000
    3298:	157d                	addi	a0,a0,-1 # f0ffffff <_eusrstack+0xd0ffcfff>
    329a:	0065f5b3          	and	a1,a1,t1
    329e:	02c74733          	div	a4,a4,a2
    32a2:	8b3d                	andi	a4,a4,15
    32a4:	0732                	slli	a4,a4,0xc
    32a6:	8f4d                	or	a4,a4,a1
    32a8:	0ae7a023          	sw	a4,160(a5)
    32ac:	02868733          	mul	a4,a3,s0
    32b0:	0a07a583          	lw	a1,160(a5)
    32b4:	4461                	li	s0,24
    32b6:	0115f5b3          	and	a1,a1,a7
    32ba:	02c74733          	div	a4,a4,a2
    32be:	8b3d                	andi	a4,a4,15
    32c0:	0742                	slli	a4,a4,0x10
    32c2:	8f4d                	or	a4,a4,a1
    32c4:	0ae7a023          	sw	a4,160(a5)
    32c8:	03068733          	mul	a4,a3,a6
    32cc:	0a07a583          	lw	a1,160(a5)
    32d0:	ff100837          	lui	a6,0xff100
    32d4:	187d                	addi	a6,a6,-1 # ff0fffff <_eusrstack+0xdf0fcfff>
    32d6:	0105f5b3          	and	a1,a1,a6
    32da:	02c74733          	div	a4,a4,a2
    32de:	8b3d                	andi	a4,a4,15
    32e0:	0752                	slli	a4,a4,0x14
    32e2:	8f4d                	or	a4,a4,a1
    32e4:	0ae7a023          	sw	a4,160(a5)
    32e8:	03d68733          	mul	a4,a3,t4
    32ec:	0a07a583          	lw	a1,160(a5)
    32f0:	10000eb7          	lui	t4,0x10000
    32f4:	1efd                	addi	t4,t4,-1 # fffffff <_data_lma+0xfffa077>
    32f6:	8de9                	and	a1,a1,a0
    32f8:	02c74733          	div	a4,a4,a2
    32fc:	8b3d                	andi	a4,a4,15
    32fe:	0762                	slli	a4,a4,0x18
    3300:	8f4d                	or	a4,a4,a1
    3302:	0ae7a023          	sw	a4,160(a5)
    3306:	00569713          	slli	a4,a3,0x5
    330a:	02c74733          	div	a4,a4,a2
    330e:	01c71593          	slli	a1,a4,0x1c
    3312:	0a07a703          	lw	a4,160(a5)
    3316:	01d77733          	and	a4,a4,t4
    331a:	8f4d                	or	a4,a4,a1
    331c:	0ae7a023          	sw	a4,160(a5)
    3320:	03e68733          	mul	a4,a3,t5
    3324:	4f5d                	li	t5,23
    3326:	02c74733          	div	a4,a4,a2
    332a:	00f77593          	andi	a1,a4,15
    332e:	0a47a703          	lw	a4,164(a5)
    3332:	9b41                	andi	a4,a4,-16
    3334:	8f4d                	or	a4,a4,a1
    3336:	0ae7a223          	sw	a4,164(a5)
    333a:	03f68733          	mul	a4,a3,t6
    333e:	0a47a583          	lw	a1,164(a5)
    3342:	4fd9                	li	t6,22
    3344:	f0f5f593          	andi	a1,a1,-241
    3348:	02c74733          	div	a4,a4,a2
    334c:	8b3d                	andi	a4,a4,15
    334e:	0712                	slli	a4,a4,0x4
    3350:	8f4d                	or	a4,a4,a1
    3352:	0ae7a223          	sw	a4,164(a5)
    3356:	02568733          	mul	a4,a3,t0
    335a:	0a47a583          	lw	a1,164(a5)
    335e:	42d5                	li	t0,21
    3360:	01c5f5b3          	and	a1,a1,t3
    3364:	02c74733          	div	a4,a4,a2
    3368:	8b3d                	andi	a4,a4,15
    336a:	0722                	slli	a4,a4,0x8
    336c:	8f4d                	or	a4,a4,a1
    336e:	0ae7a223          	sw	a4,164(a5)
    3372:	02768733          	mul	a4,a3,t2
    3376:	0a47a583          	lw	a1,164(a5)
    337a:	43cd                	li	t2,19
    337c:	0065f5b3          	and	a1,a1,t1
    3380:	02c74733          	div	a4,a4,a2
    3384:	8b3d                	andi	a4,a4,15
    3386:	0732                	slli	a4,a4,0xc
    3388:	8f4d                	or	a4,a4,a1
    338a:	0ae7a223          	sw	a4,164(a5)
    338e:	03a68733          	mul	a4,a3,s10
    3392:	0a47a583          	lw	a1,164(a5)
    3396:	4d49                	li	s10,18
    3398:	0115f5b3          	and	a1,a1,a7
    339c:	02c74733          	div	a4,a4,a2
    33a0:	8b3d                	andi	a4,a4,15
    33a2:	0742                	slli	a4,a4,0x10
    33a4:	8f4d                	or	a4,a4,a1
    33a6:	0ae7a223          	sw	a4,164(a5)
    33aa:	4769                	li	a4,26
    33ac:	02e68733          	mul	a4,a3,a4
    33b0:	0a47a583          	lw	a1,164(a5)
    33b4:	0105f5b3          	and	a1,a1,a6
    33b8:	02c74733          	div	a4,a4,a2
    33bc:	8b3d                	andi	a4,a4,15
    33be:	0752                	slli	a4,a4,0x14
    33c0:	8f4d                	or	a4,a4,a1
    33c2:	45e5                	li	a1,25
    33c4:	0ae7a223          	sw	a4,164(a5)
    33c8:	02b68733          	mul	a4,a3,a1
    33cc:	0a47a583          	lw	a1,164(a5)
    33d0:	8de9                	and	a1,a1,a0
    33d2:	02c74733          	div	a4,a4,a2
    33d6:	8b3d                	andi	a4,a4,15
    33d8:	0762                	slli	a4,a4,0x18
    33da:	8f4d                	or	a4,a4,a1
    33dc:	0ae7a223          	sw	a4,164(a5)
    33e0:	02868733          	mul	a4,a3,s0
    33e4:	440d                	li	s0,3
    33e6:	02c74733          	div	a4,a4,a2
    33ea:	01c71593          	slli	a1,a4,0x1c
    33ee:	0a47a703          	lw	a4,164(a5)
    33f2:	01d77733          	and	a4,a4,t4
    33f6:	8f4d                	or	a4,a4,a1
    33f8:	0ae7a223          	sw	a4,164(a5)
    33fc:	03e68733          	mul	a4,a3,t5
    3400:	4f25                	li	t5,9
    3402:	02c74733          	div	a4,a4,a2
    3406:	00f77593          	andi	a1,a4,15
    340a:	0a87a703          	lw	a4,168(a5)
    340e:	9b41                	andi	a4,a4,-16
    3410:	8f4d                	or	a4,a4,a1
    3412:	0ae7a423          	sw	a4,168(a5)
    3416:	03f68733          	mul	a4,a3,t6
    341a:	0a87a583          	lw	a1,168(a5)
    341e:	4f9d                	li	t6,7
    3420:	f0f5f593          	andi	a1,a1,-241
    3424:	02c74733          	div	a4,a4,a2
    3428:	8b3d                	andi	a4,a4,15
    342a:	0712                	slli	a4,a4,0x4
    342c:	8f4d                	or	a4,a4,a1
    342e:	0ae7a423          	sw	a4,168(a5)
    3432:	02568733          	mul	a4,a3,t0
    3436:	0a87a583          	lw	a1,168(a5)
    343a:	4299                	li	t0,6
    343c:	01c5f5b3          	and	a1,a1,t3
    3440:	02c74733          	div	a4,a4,a2
    3444:	8b3d                	andi	a4,a4,15
    3446:	0722                	slli	a4,a4,0x8
    3448:	8f4d                	or	a4,a4,a1
    344a:	0ae7a423          	sw	a4,168(a5)
    344e:	03768733          	mul	a4,a3,s7
    3452:	0a87a583          	lw	a1,168(a5)
    3456:	0065f5b3          	and	a1,a1,t1
    345a:	02c74733          	div	a4,a4,a2
    345e:	8b3d                	andi	a4,a4,15
    3460:	0732                	slli	a4,a4,0xc
    3462:	8f4d                	or	a4,a4,a1
    3464:	0ae7a423          	sw	a4,168(a5)
    3468:	02768733          	mul	a4,a3,t2
    346c:	0a87a583          	lw	a1,168(a5)
    3470:	4395                	li	t2,5
    3472:	0115f5b3          	and	a1,a1,a7
    3476:	02c74733          	div	a4,a4,a2
    347a:	8b3d                	andi	a4,a4,15
    347c:	0742                	slli	a4,a4,0x10
    347e:	8f4d                	or	a4,a4,a1
    3480:	0ae7a423          	sw	a4,168(a5)
    3484:	03a68733          	mul	a4,a3,s10
    3488:	0a87a583          	lw	a1,168(a5)
    348c:	4d29                	li	s10,10
    348e:	0105f5b3          	and	a1,a1,a6
    3492:	02c74733          	div	a4,a4,a2
    3496:	8b3d                	andi	a4,a4,15
    3498:	0752                	slli	a4,a4,0x14
    349a:	8f4d                	or	a4,a4,a1
    349c:	0ae7a423          	sw	a4,168(a5)
    34a0:	03668733          	mul	a4,a3,s6
    34a4:	0a87a583          	lw	a1,168(a5)
    34a8:	8de9                	and	a1,a1,a0
    34aa:	02c74733          	div	a4,a4,a2
    34ae:	8b3d                	andi	a4,a4,15
    34b0:	0762                	slli	a4,a4,0x18
    34b2:	8f4d                	or	a4,a4,a1
    34b4:	00469593          	slli	a1,a3,0x4
    34b8:	02c5c5b3          	div	a1,a1,a2
    34bc:	0ae7a423          	sw	a4,168(a5)
    34c0:	0a87a703          	lw	a4,168(a5)
    34c4:	01d77733          	and	a4,a4,t4
    34c8:	05f2                	slli	a1,a1,0x1c
    34ca:	8f4d                	or	a4,a4,a1
    34cc:	029685b3          	mul	a1,a3,s1
    34d0:	0ae7a423          	sw	a4,168(a5)
    34d4:	0ac7a703          	lw	a4,172(a5)
    34d8:	9b41                	andi	a4,a4,-16
    34da:	02c5c5b3          	div	a1,a1,a2
    34de:	89bd                	andi	a1,a1,15
    34e0:	8f4d                	or	a4,a4,a1
    34e2:	0ae7a623          	sw	a4,172(a5)
    34e6:	03268733          	mul	a4,a3,s2
    34ea:	0ac7a583          	lw	a1,172(a5)
    34ee:	f0f5f593          	andi	a1,a1,-241
    34f2:	02c74733          	div	a4,a4,a2
    34f6:	8b3d                	andi	a4,a4,15
    34f8:	0712                	slli	a4,a4,0x4
    34fa:	8f4d                	or	a4,a4,a1
    34fc:	0286c5b3          	div	a1,a3,s0
    3500:	0ae7a623          	sw	a4,172(a5)
    3504:	0ac7a703          	lw	a4,172(a5)
    3508:	01c77733          	and	a4,a4,t3
    350c:	89bd                	andi	a1,a1,15
    350e:	05a2                	slli	a1,a1,0x8
    3510:	8f4d                	or	a4,a4,a1
    3512:	0ae7a623          	sw	a4,172(a5)
    3516:	03468733          	mul	a4,a3,s4
    351a:	0ac7a583          	lw	a1,172(a5)
    351e:	0065f5b3          	and	a1,a1,t1
    3522:	02c74733          	div	a4,a4,a2
    3526:	8b3d                	andi	a4,a4,15
    3528:	0732                	slli	a4,a4,0xc
    352a:	8f4d                	or	a4,a4,a1
    352c:	0ae7a623          	sw	a4,172(a5)
    3530:	03568733          	mul	a4,a3,s5
    3534:	0ac7a583          	lw	a1,172(a5)
    3538:	0115f5b3          	and	a1,a1,a7
    353c:	02c74733          	div	a4,a4,a2
    3540:	8b3d                	andi	a4,a4,15
    3542:	0742                	slli	a4,a4,0x10
    3544:	8f4d                	or	a4,a4,a1
    3546:	0ae7a623          	sw	a4,172(a5)
    354a:	03a68733          	mul	a4,a3,s10
    354e:	0ac7a583          	lw	a1,172(a5)
    3552:	0105f5b3          	and	a1,a1,a6
    3556:	02c74733          	div	a4,a4,a2
    355a:	8b3d                	andi	a4,a4,15
    355c:	0752                	slli	a4,a4,0x14
    355e:	8f4d                	or	a4,a4,a1
    3560:	0ae7a623          	sw	a4,172(a5)
    3564:	03e68733          	mul	a4,a3,t5
    3568:	0ac7a583          	lw	a1,172(a5)
    356c:	8de9                	and	a1,a1,a0
    356e:	02c74733          	div	a4,a4,a2
    3572:	8b3d                	andi	a4,a4,15
    3574:	0762                	slli	a4,a4,0x18
    3576:	8f4d                	or	a4,a4,a1
    3578:	00369593          	slli	a1,a3,0x3
    357c:	02c5c5b3          	div	a1,a1,a2
    3580:	0ae7a623          	sw	a4,172(a5)
    3584:	0ac7a703          	lw	a4,172(a5)
    3588:	01d77733          	and	a4,a4,t4
    358c:	05f2                	slli	a1,a1,0x1c
    358e:	8f4d                	or	a4,a4,a1
    3590:	03f685b3          	mul	a1,a3,t6
    3594:	0ae7a623          	sw	a4,172(a5)
    3598:	0b07a703          	lw	a4,176(a5)
    359c:	9b41                	andi	a4,a4,-16
    359e:	02c5c5b3          	div	a1,a1,a2
    35a2:	89bd                	andi	a1,a1,15
    35a4:	8f4d                	or	a4,a4,a1
    35a6:	0ae7a823          	sw	a4,176(a5)
    35aa:	02568733          	mul	a4,a3,t0
    35ae:	0b07a583          	lw	a1,176(a5)
    35b2:	f0f5f593          	andi	a1,a1,-241
    35b6:	02c74733          	div	a4,a4,a2
    35ba:	8b3d                	andi	a4,a4,15
    35bc:	0712                	slli	a4,a4,0x4
    35be:	8f4d                	or	a4,a4,a1
    35c0:	0ae7a823          	sw	a4,176(a5)
    35c4:	02768733          	mul	a4,a3,t2
    35c8:	0b07a583          	lw	a1,176(a5)
    35cc:	01c5f5b3          	and	a1,a1,t3
    35d0:	02c74733          	div	a4,a4,a2
    35d4:	8b3d                	andi	a4,a4,15
    35d6:	0722                	slli	a4,a4,0x8
    35d8:	8f4d                	or	a4,a4,a1
    35da:	0ae7a823          	sw	a4,176(a5)
    35de:	00269713          	slli	a4,a3,0x2
    35e2:	02c74733          	div	a4,a4,a2
    35e6:	0b07a583          	lw	a1,176(a5)
    35ea:	0065f5b3          	and	a1,a1,t1
    35ee:	8b3d                	andi	a4,a4,15
    35f0:	0732                	slli	a4,a4,0xc
    35f2:	8f4d                	or	a4,a4,a1
    35f4:	0336c5b3          	div	a1,a3,s3
    35f8:	0ae7a823          	sw	a4,176(a5)
    35fc:	0b07a703          	lw	a4,176(a5)
    3600:	01177733          	and	a4,a4,a7
    3604:	89bd                	andi	a1,a1,15
    3606:	05c2                	slli	a1,a1,0x10
    3608:	8f4d                	or	a4,a4,a1
    360a:	0ae7a823          	sw	a4,176(a5)
    360e:	00169713          	slli	a4,a3,0x1
    3612:	02c74733          	div	a4,a4,a2
    3616:	0b07a583          	lw	a1,176(a5)
    361a:	0105f5b3          	and	a1,a1,a6
    361e:	8b3d                	andi	a4,a4,15
    3620:	0752                	slli	a4,a4,0x14
    3622:	8f4d                	or	a4,a4,a1
    3624:	02c6c5b3          	div	a1,a3,a2
    3628:	0ae7a823          	sw	a4,176(a5)
    362c:	0b07a703          	lw	a4,176(a5)
    3630:	8f69                	and	a4,a4,a0
    3632:	89bd                	andi	a1,a1,15
    3634:	05e2                	slli	a1,a1,0x18
    3636:	8f4d                	or	a4,a4,a1
    3638:	0ae7a823          	sw	a4,176(a5)
    363c:	0b07a703          	lw	a4,176(a5)
    3640:	02800593          	li	a1,40
    3644:	01d77733          	and	a4,a4,t4
    3648:	0ae7a823          	sw	a4,176(a5)
    364c:	8381c703          	lbu	a4,-1992(gp) # 20000ee0 <nCO2480>
    3650:	40ec0733          	sub	a4,s8,a4
    3654:	02b74db3          	div	s11,a4,a1
    3658:	0b47ac83          	lw	s9,180(a5)
    365c:	ff0cfc93          	andi	s9,s9,-16
    3660:	03774bb3          	div	s7,a4,s7
    3664:	00fdfd93          	andi	s11,s11,15
    3668:	01bcecb3          	or	s9,s9,s11
    366c:	0b97aa23          	sw	s9,180(a5)
    3670:	0b47ac83          	lw	s9,180(a5)
    3674:	4dcd                	li	s11,19
    3676:	f0fcfc93          	andi	s9,s9,-241
    367a:	00fbfb93          	andi	s7,s7,15
    367e:	0b92                	slli	s7,s7,0x4
    3680:	017cebb3          	or	s7,s9,s7
    3684:	0b77aa23          	sw	s7,180(a5)
    3688:	02870bb3          	mul	s7,a4,s0
    368c:	0b47ac83          	lw	s9,180(a5)
    3690:	01ccfcb3          	and	s9,s9,t3
    3694:	02bbcbb3          	div	s7,s7,a1
    3698:	00fbfb93          	andi	s7,s7,15
    369c:	0ba2                	slli	s7,s7,0x8
    369e:	017cebb3          	or	s7,s9,s7
    36a2:	03a74cb3          	div	s9,a4,s10
    36a6:	0b77aa23          	sw	s7,180(a5)
    36aa:	0b47ab83          	lw	s7,180(a5)
    36ae:	006bfbb3          	and	s7,s7,t1
    36b2:	00fcfc93          	andi	s9,s9,15
    36b6:	0cb2                	slli	s9,s9,0xc
    36b8:	019bebb3          	or	s7,s7,s9
    36bc:	0b77aa23          	sw	s7,180(a5)
    36c0:	4ba1                	li	s7,8
    36c2:	03774bb3          	div	s7,a4,s7
    36c6:	0b47ac83          	lw	s9,180(a5)
    36ca:	011cfcb3          	and	s9,s9,a7
    36ce:	00fbfb93          	andi	s7,s7,15
    36d2:	0bc2                	slli	s7,s7,0x10
    36d4:	017cebb3          	or	s7,s9,s7
    36d8:	0b77aa23          	sw	s7,180(a5)
    36dc:	02570bb3          	mul	s7,a4,t0
    36e0:	0b47ac83          	lw	s9,180(a5)
    36e4:	010cfcb3          	and	s9,s9,a6
    36e8:	02bbcbb3          	div	s7,s7,a1
    36ec:	00fbfb93          	andi	s7,s7,15
    36f0:	0bd2                	slli	s7,s7,0x14
    36f2:	017cebb3          	or	s7,s9,s7
    36f6:	0b77aa23          	sw	s7,180(a5)
    36fa:	03f70bb3          	mul	s7,a4,t6
    36fe:	0b47ac83          	lw	s9,180(a5)
    3702:	00acfcb3          	and	s9,s9,a0
    3706:	02bbcbb3          	div	s7,s7,a1
    370a:	00fbfb93          	andi	s7,s7,15
    370e:	0be2                	slli	s7,s7,0x18
    3710:	017cebb3          	or	s7,s9,s7
    3714:	02774cb3          	div	s9,a4,t2
    3718:	0b77aa23          	sw	s7,180(a5)
    371c:	0b47ab83          	lw	s7,180(a5)
    3720:	01dbfbb3          	and	s7,s7,t4
    3724:	0cf2                	slli	s9,s9,0x1c
    3726:	019bebb3          	or	s7,s7,s9
    372a:	03e70cb3          	mul	s9,a4,t5
    372e:	0b77aa23          	sw	s7,180(a5)
    3732:	0b87ab83          	lw	s7,184(a5)
    3736:	ff0bfb93          	andi	s7,s7,-16
    373a:	02bcccb3          	div	s9,s9,a1
    373e:	03570ab3          	mul	s5,a4,s5
    3742:	00fcfc93          	andi	s9,s9,15
    3746:	019bebb3          	or	s7,s7,s9
    374a:	0b77ac23          	sw	s7,184(a5)
    374e:	4b91                	li	s7,4
    3750:	0b87ac83          	lw	s9,184(a5)
    3754:	f0fcfc93          	andi	s9,s9,-241
    3758:	03774bb3          	div	s7,a4,s7
    375c:	03470a33          	mul	s4,a4,s4
    3760:	00fbfb93          	andi	s7,s7,15
    3764:	0b92                	slli	s7,s7,0x4
    3766:	017cebb3          	or	s7,s9,s7
    376a:	0b77ac23          	sw	s7,184(a5)
    376e:	0b87ab83          	lw	s7,184(a5)
    3772:	4cd5                	li	s9,21
    3774:	01cbfbb3          	and	s7,s7,t3
    3778:	02bacab3          	div	s5,s5,a1
    377c:	033709b3          	mul	s3,a4,s3
    3780:	00fafa93          	andi	s5,s5,15
    3784:	0aa2                	slli	s5,s5,0x8
    3786:	015beab3          	or	s5,s7,s5
    378a:	0b57ac23          	sw	s5,184(a5)
    378e:	0b87aa83          	lw	s5,184(a5)
    3792:	4bd9                	li	s7,22
    3794:	006afab3          	and	s5,s5,t1
    3798:	02ba4a33          	div	s4,s4,a1
    379c:	03270933          	mul	s2,a4,s2
    37a0:	00fa7a13          	andi	s4,s4,15
    37a4:	0a32                	slli	s4,s4,0xc
    37a6:	014aea33          	or	s4,s5,s4
    37aa:	0b47ac23          	sw	s4,184(a5)
    37ae:	0b87aa03          	lw	s4,184(a5)
    37b2:	4ae1                	li	s5,24
    37b4:	011a7a33          	and	s4,s4,a7
    37b8:	02b9c9b3          	div	s3,s3,a1
    37bc:	029704b3          	mul	s1,a4,s1
    37c0:	00f9f993          	andi	s3,s3,15
    37c4:	09c2                	slli	s3,s3,0x10
    37c6:	013a69b3          	or	s3,s4,s3
    37ca:	0b37ac23          	sw	s3,184(a5)
    37ce:	0b87a983          	lw	s3,184(a5)
    37d2:	4a65                	li	s4,25
    37d4:	0109f9b3          	and	s3,s3,a6
    37d8:	02b94933          	div	s2,s2,a1
    37dc:	02b4c4b3          	div	s1,s1,a1
    37e0:	00f97913          	andi	s2,s2,15
    37e4:	0952                	slli	s2,s2,0x14
    37e6:	0129e933          	or	s2,s3,s2
    37ea:	0b27ac23          	sw	s2,184(a5)
    37ee:	0b87a903          	lw	s2,184(a5)
    37f2:	49e9                	li	s3,26
    37f4:	00a97933          	and	s2,s2,a0
    37f8:	03670b33          	mul	s6,a4,s6
    37fc:	88bd                	andi	s1,s1,15
    37fe:	04e2                	slli	s1,s1,0x18
    3800:	009964b3          	or	s1,s2,s1
    3804:	00471913          	slli	s2,a4,0x4
    3808:	0a97ac23          	sw	s1,184(a5)
    380c:	0b87a483          	lw	s1,184(a5)
    3810:	01d4f4b3          	and	s1,s1,t4
    3814:	02b94933          	div	s2,s2,a1
    3818:	02bb4b33          	div	s6,s6,a1
    381c:	0972                	slli	s2,s2,0x1c
    381e:	0124e4b3          	or	s1,s1,s2
    3822:	0a97ac23          	sw	s1,184(a5)
    3826:	0bc7a483          	lw	s1,188(a5)
    382a:	98c1                	andi	s1,s1,-16
    382c:	00fb7b13          	andi	s6,s6,15
    3830:	0164eb33          	or	s6,s1,s6
    3834:	44c9                	li	s1,18
    3836:	029704b3          	mul	s1,a4,s1
    383a:	0b67ae23          	sw	s6,188(a5)
    383e:	0bc7a903          	lw	s2,188(a5)
    3842:	4b5d                	li	s6,23
    3844:	f0f97913          	andi	s2,s2,-241
    3848:	02b4c4b3          	div	s1,s1,a1
    384c:	88bd                	andi	s1,s1,15
    384e:	0492                	slli	s1,s1,0x4
    3850:	009964b3          	or	s1,s2,s1
    3854:	0a97ae23          	sw	s1,188(a5)
    3858:	03b704b3          	mul	s1,a4,s11
    385c:	0bc7a903          	lw	s2,188(a5)
    3860:	4df5                	li	s11,29
    3862:	01c97933          	and	s2,s2,t3
    3866:	02b4c4b3          	div	s1,s1,a1
    386a:	88bd                	andi	s1,s1,15
    386c:	04a2                	slli	s1,s1,0x8
    386e:	009964b3          	or	s1,s2,s1
    3872:	0a97ae23          	sw	s1,188(a5)
    3876:	4489                	li	s1,2
    3878:	029744b3          	div	s1,a4,s1
    387c:	0bc7a903          	lw	s2,188(a5)
    3880:	00697933          	and	s2,s2,t1
    3884:	88bd                	andi	s1,s1,15
    3886:	04b2                	slli	s1,s1,0xc
    3888:	009964b3          	or	s1,s2,s1
    388c:	0a97ae23          	sw	s1,188(a5)
    3890:	039704b3          	mul	s1,a4,s9
    3894:	0bc7a903          	lw	s2,188(a5)
    3898:	4cf9                	li	s9,30
    389a:	01197933          	and	s2,s2,a7
    389e:	02b4c4b3          	div	s1,s1,a1
    38a2:	88bd                	andi	s1,s1,15
    38a4:	04c2                	slli	s1,s1,0x10
    38a6:	009964b3          	or	s1,s2,s1
    38aa:	0a97ae23          	sw	s1,188(a5)
    38ae:	037704b3          	mul	s1,a4,s7
    38b2:	0bc7a903          	lw	s2,188(a5)
    38b6:	4bfd                	li	s7,31
    38b8:	01097933          	and	s2,s2,a6
    38bc:	02b4c4b3          	div	s1,s1,a1
    38c0:	88bd                	andi	s1,s1,15
    38c2:	04d2                	slli	s1,s1,0x14
    38c4:	009964b3          	or	s1,s2,s1
    38c8:	0a97ae23          	sw	s1,188(a5)
    38cc:	036704b3          	mul	s1,a4,s6
    38d0:	0bc7a903          	lw	s2,188(a5)
    38d4:	02100b13          	li	s6,33
    38d8:	00a97933          	and	s2,s2,a0
    38dc:	02b4c4b3          	div	s1,s1,a1
    38e0:	88bd                	andi	s1,s1,15
    38e2:	04e2                	slli	s1,s1,0x18
    38e4:	009964b3          	or	s1,s2,s1
    38e8:	0a97ae23          	sw	s1,188(a5)
    38ec:	035704b3          	mul	s1,a4,s5
    38f0:	0bc7a903          	lw	s2,188(a5)
    38f4:	02200a93          	li	s5,34
    38f8:	01d97933          	and	s2,s2,t4
    38fc:	02b4c4b3          	div	s1,s1,a1
    3900:	04f2                	slli	s1,s1,0x1c
    3902:	009964b3          	or	s1,s2,s1
    3906:	0a97ae23          	sw	s1,188(a5)
    390a:	034704b3          	mul	s1,a4,s4
    390e:	0c07a903          	lw	s2,192(a5)
    3912:	02300a13          	li	s4,35
    3916:	ff097913          	andi	s2,s2,-16
    391a:	02b4c4b3          	div	s1,s1,a1
    391e:	88bd                	andi	s1,s1,15
    3920:	009964b3          	or	s1,s2,s1
    3924:	0c97a023          	sw	s1,192(a5)
    3928:	033704b3          	mul	s1,a4,s3
    392c:	0c07a903          	lw	s2,192(a5)
    3930:	02400993          	li	s3,36
    3934:	f0f97913          	andi	s2,s2,-241
    3938:	02b4c4b3          	div	s1,s1,a1
    393c:	88bd                	andi	s1,s1,15
    393e:	0492                	slli	s1,s1,0x4
    3940:	009964b3          	or	s1,s2,s1
    3944:	496d                	li	s2,27
    3946:	0c97a023          	sw	s1,192(a5)
    394a:	032704b3          	mul	s1,a4,s2
    394e:	0c07a903          	lw	s2,192(a5)
    3952:	01c97933          	and	s2,s2,t3
    3956:	02b4c4b3          	div	s1,s1,a1
    395a:	88bd                	andi	s1,s1,15
    395c:	04a2                	slli	s1,s1,0x8
    395e:	009964b3          	or	s1,s2,s1
    3962:	0c97a023          	sw	s1,192(a5)
    3966:	44f1                	li	s1,28
    3968:	029704b3          	mul	s1,a4,s1
    396c:	0c07a903          	lw	s2,192(a5)
    3970:	00697933          	and	s2,s2,t1
    3974:	02b4c4b3          	div	s1,s1,a1
    3978:	88bd                	andi	s1,s1,15
    397a:	04b2                	slli	s1,s1,0xc
    397c:	009964b3          	or	s1,s2,s1
    3980:	0c97a023          	sw	s1,192(a5)
    3984:	03b704b3          	mul	s1,a4,s11
    3988:	0c07a903          	lw	s2,192(a5)
    398c:	01197933          	and	s2,s2,a7
    3990:	02b4c4b3          	div	s1,s1,a1
    3994:	88bd                	andi	s1,s1,15
    3996:	04c2                	slli	s1,s1,0x10
    3998:	009964b3          	or	s1,s2,s1
    399c:	0c97a023          	sw	s1,192(a5)
    39a0:	039704b3          	mul	s1,a4,s9
    39a4:	0c07a903          	lw	s2,192(a5)
    39a8:	01097933          	and	s2,s2,a6
    39ac:	02b4c4b3          	div	s1,s1,a1
    39b0:	88bd                	andi	s1,s1,15
    39b2:	04d2                	slli	s1,s1,0x14
    39b4:	009964b3          	or	s1,s2,s1
    39b8:	0c97a023          	sw	s1,192(a5)
    39bc:	037704b3          	mul	s1,a4,s7
    39c0:	0c07a903          	lw	s2,192(a5)
    39c4:	00a97933          	and	s2,s2,a0
    39c8:	02b4c4b3          	div	s1,s1,a1
    39cc:	88bd                	andi	s1,s1,15
    39ce:	04e2                	slli	s1,s1,0x18
    39d0:	009964b3          	or	s1,s2,s1
    39d4:	0c97a023          	sw	s1,192(a5)
    39d8:	00571493          	slli	s1,a4,0x5
    39dc:	02b4c4b3          	div	s1,s1,a1
    39e0:	01c49913          	slli	s2,s1,0x1c
    39e4:	0c07a483          	lw	s1,192(a5)
    39e8:	02c70633          	mul	a2,a4,a2
    39ec:	01d4f4b3          	and	s1,s1,t4
    39f0:	0124e4b3          	or	s1,s1,s2
    39f4:	0c97a023          	sw	s1,192(a5)
    39f8:	0c47a903          	lw	s2,196(a5)
    39fc:	ff097913          	andi	s2,s2,-16
    3a00:	036704b3          	mul	s1,a4,s6
    3a04:	02b4c4b3          	div	s1,s1,a1
    3a08:	88bd                	andi	s1,s1,15
    3a0a:	009964b3          	or	s1,s2,s1
    3a0e:	0c97a223          	sw	s1,196(a5)
    3a12:	035704b3          	mul	s1,a4,s5
    3a16:	0c47a903          	lw	s2,196(a5)
    3a1a:	f0f97913          	andi	s2,s2,-241
    3a1e:	02b4c4b3          	div	s1,s1,a1
    3a22:	88bd                	andi	s1,s1,15
    3a24:	0492                	slli	s1,s1,0x4
    3a26:	009964b3          	or	s1,s2,s1
    3a2a:	0c97a223          	sw	s1,196(a5)
    3a2e:	034704b3          	mul	s1,a4,s4
    3a32:	0c47a903          	lw	s2,196(a5)
    3a36:	01c97933          	and	s2,s2,t3
    3a3a:	02b4c4b3          	div	s1,s1,a1
    3a3e:	88bd                	andi	s1,s1,15
    3a40:	04a2                	slli	s1,s1,0x8
    3a42:	009964b3          	or	s1,s2,s1
    3a46:	0c97a223          	sw	s1,196(a5)
    3a4a:	033704b3          	mul	s1,a4,s3
    3a4e:	0c47a903          	lw	s2,196(a5)
    3a52:	00697933          	and	s2,s2,t1
    3a56:	02b4c4b3          	div	s1,s1,a1
    3a5a:	88bd                	andi	s1,s1,15
    3a5c:	04b2                	slli	s1,s1,0xc
    3a5e:	009964b3          	or	s1,s2,s1
    3a62:	02500913          	li	s2,37
    3a66:	0c97a223          	sw	s1,196(a5)
    3a6a:	032704b3          	mul	s1,a4,s2
    3a6e:	0c47a903          	lw	s2,196(a5)
    3a72:	01197933          	and	s2,s2,a7
    3a76:	02b4c4b3          	div	s1,s1,a1
    3a7a:	88bd                	andi	s1,s1,15
    3a7c:	04c2                	slli	s1,s1,0x10
    3a7e:	009964b3          	or	s1,s2,s1
    3a82:	0c97a223          	sw	s1,196(a5)
    3a86:	02600493          	li	s1,38
    3a8a:	029704b3          	mul	s1,a4,s1
    3a8e:	0c47a903          	lw	s2,196(a5)
    3a92:	01097933          	and	s2,s2,a6
    3a96:	02b4c4b3          	div	s1,s1,a1
    3a9a:	02b64633          	div	a2,a2,a1
    3a9e:	88bd                	andi	s1,s1,15
    3aa0:	04d2                	slli	s1,s1,0x14
    3aa2:	009964b3          	or	s1,s2,s1
    3aa6:	0c97a223          	sw	s1,196(a5)
    3aaa:	0c47a483          	lw	s1,196(a5)
    3aae:	8ce9                	and	s1,s1,a0
    3ab0:	8a3d                	andi	a2,a2,15
    3ab2:	0662                	slli	a2,a2,0x18
    3ab4:	8e45                	or	a2,a2,s1
    3ab6:	0cc7a223          	sw	a2,196(a5)
    3aba:	0c47a603          	lw	a2,196(a5)
    3abe:	01c71493          	slli	s1,a4,0x1c
    3ac2:	01d67633          	and	a2,a2,t4
    3ac6:	8e45                	or	a2,a2,s1
    3ac8:	0cc7a223          	sw	a2,196(a5)
    3acc:	02900613          	li	a2,41
    3ad0:	02c70633          	mul	a2,a4,a2
    3ad4:	0c87a483          	lw	s1,200(a5)
    3ad8:	98c1                	andi	s1,s1,-16
    3ada:	02b64633          	div	a2,a2,a1
    3ade:	8a3d                	andi	a2,a2,15
    3ae0:	8e45                	or	a2,a2,s1
    3ae2:	0cc7a423          	sw	a2,200(a5)
    3ae6:	02a00613          	li	a2,42
    3aea:	02c70633          	mul	a2,a4,a2
    3aee:	02b645b3          	div	a1,a2,a1
    3af2:	0c87a603          	lw	a2,200(a5)
    3af6:	f0f67613          	andi	a2,a2,-241
    3afa:	89bd                	andi	a1,a1,15
    3afc:	0592                	slli	a1,a1,0x4
    3afe:	8dd1                	or	a1,a1,a2
    3b00:	0cb7a423          	sw	a1,200(a5)
    3b04:	83a1c583          	lbu	a1,-1990(gp) # 20000ee2 <nGA2440>
    3b08:	83b1c603          	lbu	a2,-1989(gp) # 20000ee3 <nGA2480>
    3b0c:	40c58633          	sub	a2,a1,a2
    3b10:	03a604b3          	mul	s1,a2,s10
    3b14:	0c87a903          	lw	s2,200(a5)
    3b18:	01c97933          	and	s2,s2,t3
    3b1c:	02e4c4b3          	div	s1,s1,a4
    3b20:	0084e493          	ori	s1,s1,8
    3b24:	88bd                	andi	s1,s1,15
    3b26:	04a2                	slli	s1,s1,0x8
    3b28:	009964b3          	or	s1,s2,s1
    3b2c:	0c97a423          	sw	s1,200(a5)
    3b30:	03e604b3          	mul	s1,a2,t5
    3b34:	0c87a903          	lw	s2,200(a5)
    3b38:	00697933          	and	s2,s2,t1
    3b3c:	02e4c4b3          	div	s1,s1,a4
    3b40:	0084e493          	ori	s1,s1,8
    3b44:	88bd                	andi	s1,s1,15
    3b46:	04b2                	slli	s1,s1,0xc
    3b48:	009964b3          	or	s1,s2,s1
    3b4c:	0c97a423          	sw	s1,200(a5)
    3b50:	00361493          	slli	s1,a2,0x3
    3b54:	02e4c4b3          	div	s1,s1,a4
    3b58:	0c87a903          	lw	s2,200(a5)
    3b5c:	01197933          	and	s2,s2,a7
    3b60:	0084e493          	ori	s1,s1,8
    3b64:	88bd                	andi	s1,s1,15
    3b66:	04c2                	slli	s1,s1,0x10
    3b68:	009964b3          	or	s1,s2,s1
    3b6c:	0c97a423          	sw	s1,200(a5)
    3b70:	03f604b3          	mul	s1,a2,t6
    3b74:	0c87a903          	lw	s2,200(a5)
    3b78:	01097933          	and	s2,s2,a6
    3b7c:	02e4c4b3          	div	s1,s1,a4
    3b80:	0084e493          	ori	s1,s1,8
    3b84:	88bd                	andi	s1,s1,15
    3b86:	04d2                	slli	s1,s1,0x14
    3b88:	009964b3          	or	s1,s2,s1
    3b8c:	0c97a423          	sw	s1,200(a5)
    3b90:	025604b3          	mul	s1,a2,t0
    3b94:	0c87a903          	lw	s2,200(a5)
    3b98:	00a97933          	and	s2,s2,a0
    3b9c:	02e4c4b3          	div	s1,s1,a4
    3ba0:	0084e493          	ori	s1,s1,8
    3ba4:	88bd                	andi	s1,s1,15
    3ba6:	04e2                	slli	s1,s1,0x18
    3ba8:	009964b3          	or	s1,s2,s1
    3bac:	0c97a423          	sw	s1,200(a5)
    3bb0:	027604b3          	mul	s1,a2,t2
    3bb4:	0c87a903          	lw	s2,200(a5)
    3bb8:	01d97933          	and	s2,s2,t4
    3bbc:	02e4c4b3          	div	s1,s1,a4
    3bc0:	0084e493          	ori	s1,s1,8
    3bc4:	04f2                	slli	s1,s1,0x1c
    3bc6:	009964b3          	or	s1,s2,s1
    3bca:	0c97a423          	sw	s1,200(a5)
    3bce:	00261493          	slli	s1,a2,0x2
    3bd2:	02e4c4b3          	div	s1,s1,a4
    3bd6:	0cc7a903          	lw	s2,204(a5)
    3bda:	ff097913          	andi	s2,s2,-16
    3bde:	0084e493          	ori	s1,s1,8
    3be2:	88bd                	andi	s1,s1,15
    3be4:	009964b3          	or	s1,s2,s1
    3be8:	0c97a623          	sw	s1,204(a5)
    3bec:	028604b3          	mul	s1,a2,s0
    3bf0:	0cc7a903          	lw	s2,204(a5)
    3bf4:	f0f97913          	andi	s2,s2,-241
    3bf8:	02e4c4b3          	div	s1,s1,a4
    3bfc:	0084e493          	ori	s1,s1,8
    3c00:	88bd                	andi	s1,s1,15
    3c02:	0492                	slli	s1,s1,0x4
    3c04:	009964b3          	or	s1,s2,s1
    3c08:	0c97a623          	sw	s1,204(a5)
    3c0c:	00161493          	slli	s1,a2,0x1
    3c10:	02e4c4b3          	div	s1,s1,a4
    3c14:	0cc7a903          	lw	s2,204(a5)
    3c18:	01c97933          	and	s2,s2,t3
    3c1c:	02e64733          	div	a4,a2,a4
    3c20:	0084e493          	ori	s1,s1,8
    3c24:	88bd                	andi	s1,s1,15
    3c26:	04a2                	slli	s1,s1,0x8
    3c28:	009964b3          	or	s1,s2,s1
    3c2c:	0c97a623          	sw	s1,204(a5)
    3c30:	0cc7a603          	lw	a2,204(a5)
    3c34:	00667633          	and	a2,a2,t1
    3c38:	00876713          	ori	a4,a4,8
    3c3c:	8b3d                	andi	a4,a4,15
    3c3e:	0732                	slli	a4,a4,0xc
    3c40:	8f51                	or	a4,a4,a2
    3c42:	0ce7a623          	sw	a4,204(a5)
    3c46:	0cc7a703          	lw	a4,204(a5)
    3c4a:	01177733          	and	a4,a4,a7
    3c4e:	0ce7a623          	sw	a4,204(a5)
    3c52:	8391c703          	lbu	a4,-1991(gp) # 20000ee1 <nGA2401>
    3c56:	8f0d                	sub	a4,a4,a1
    3c58:	02d74633          	div	a2,a4,a3
    3c5c:	07f5f593          	andi	a1,a1,127
    3c60:	05e2                	slli	a1,a1,0x18
    3c62:	8a3d                	andi	a2,a2,15
    3c64:	01461493          	slli	s1,a2,0x14
    3c68:	0cc7a603          	lw	a2,204(a5)
    3c6c:	02870433          	mul	s0,a4,s0
    3c70:	01067633          	and	a2,a2,a6
    3c74:	8e45                	or	a2,a2,s1
    3c76:	0cc7a623          	sw	a2,204(a5)
    3c7a:	00171613          	slli	a2,a4,0x1
    3c7e:	0cc7a483          	lw	s1,204(a5)
    3c82:	8ce9                	and	s1,s1,a0
    3c84:	02d64633          	div	a2,a2,a3
    3c88:	8a3d                	andi	a2,a2,15
    3c8a:	0662                	slli	a2,a2,0x18
    3c8c:	8e45                	or	a2,a2,s1
    3c8e:	0cc7a623          	sw	a2,204(a5)
    3c92:	0cc7a603          	lw	a2,204(a5)
    3c96:	02d44433          	div	s0,s0,a3
    3c9a:	01d67eb3          	and	t4,a2,t4
    3c9e:	00271613          	slli	a2,a4,0x2
    3ca2:	027703b3          	mul	t2,a4,t2
    3ca6:	0472                	slli	s0,s0,0x1c
    3ca8:	008ee433          	or	s0,t4,s0
    3cac:	0c87a623          	sw	s0,204(a5)
    3cb0:	02d64633          	div	a2,a2,a3
    3cb4:	025702b3          	mul	t0,a4,t0
    3cb8:	00f67e93          	andi	t4,a2,15
    3cbc:	0d07a603          	lw	a2,208(a5)
    3cc0:	9a41                	andi	a2,a2,-16
    3cc2:	01d66633          	or	a2,a2,t4
    3cc6:	0cc7a823          	sw	a2,208(a5)
    3cca:	0d07a603          	lw	a2,208(a5)
    3cce:	02d3c3b3          	div	t2,t2,a3
    3cd2:	f0f67613          	andi	a2,a2,-241
    3cd6:	02d2c2b3          	div	t0,t0,a3
    3cda:	00f3f393          	andi	t2,t2,15
    3cde:	0392                	slli	t2,t2,0x4
    3ce0:	007663b3          	or	t2,a2,t2
    3ce4:	0c77a823          	sw	t2,208(a5)
    3ce8:	0d07a603          	lw	a2,208(a5)
    3cec:	01c67e33          	and	t3,a2,t3
    3cf0:	03f70fb3          	mul	t6,a4,t6
    3cf4:	00f2f293          	andi	t0,t0,15
    3cf8:	02a2                	slli	t0,t0,0x8
    3cfa:	005e62b3          	or	t0,t3,t0
    3cfe:	0c57a823          	sw	t0,208(a5)
    3d02:	0d07a603          	lw	a2,208(a5)
    3d06:	00667333          	and	t1,a2,t1
    3d0a:	00371613          	slli	a2,a4,0x3
    3d0e:	02dfcfb3          	div	t6,t6,a3
    3d12:	03e70f33          	mul	t5,a4,t5
    3d16:	00ffff93          	andi	t6,t6,15
    3d1a:	0fb2                	slli	t6,t6,0xc
    3d1c:	01f36fb3          	or	t6,t1,t6
    3d20:	0df7a823          	sw	t6,208(a5)
    3d24:	0d07a303          	lw	t1,208(a5)
    3d28:	011378b3          	and	a7,t1,a7
    3d2c:	02d64633          	div	a2,a2,a3
    3d30:	03a70d33          	mul	s10,a4,s10
    3d34:	8a3d                	andi	a2,a2,15
    3d36:	0642                	slli	a2,a2,0x10
    3d38:	00c8e633          	or	a2,a7,a2
    3d3c:	0cc7a823          	sw	a2,208(a5)
    3d40:	0d07a603          	lw	a2,208(a5)
    3d44:	01067833          	and	a6,a2,a6
    3d48:	02df4f33          	div	t5,t5,a3
    3d4c:	02dd46b3          	div	a3,s10,a3
    3d50:	00ff7f13          	andi	t5,t5,15
    3d54:	0f52                	slli	t5,t5,0x14
    3d56:	01e86f33          	or	t5,a6,t5
    3d5a:	0de7a823          	sw	t5,208(a5)
    3d5e:	0d07a703          	lw	a4,208(a5)
    3d62:	8d79                	and	a0,a0,a4
    3d64:	8abd                	andi	a3,a3,15
    3d66:	06e2                	slli	a3,a3,0x18
    3d68:	8ec9                	or	a3,a3,a0
    3d6a:	0cd7a823          	sw	a3,208(a5)
    3d6e:	43d8                	lw	a4,4(a5)
    3d70:	6685                	lui	a3,0x1
    3d72:	9b3d                	andi	a4,a4,-17
    3d74:	c3d8                	sw	a4,4(a5)
    3d76:	43d8                	lw	a4,4(a5)
    3d78:	9b79                	andi	a4,a4,-2
    3d7a:	c3d8                	sw	a4,4(a5)
    3d7c:	5798                	lw	a4,40(a5)
    3d7e:	8f55                	or	a4,a4,a3
    3d80:	d798                	sw	a4,40(a5)
    3d82:	57d8                	lw	a4,44(a5)
    3d84:	810006b7          	lui	a3,0x81000
    3d88:	16fd                	addi	a3,a3,-1 # 80ffffff <_eusrstack+0x60ffcfff>
    3d8a:	01076713          	ori	a4,a4,16
    3d8e:	d7d8                	sw	a4,44(a5)
    3d90:	03fc7713          	andi	a4,s8,63
    3d94:	0387ac03          	lw	s8,56(a5)
    3d98:	fc0c7c13          	andi	s8,s8,-64
    3d9c:	00ec6c33          	or	s8,s8,a4
    3da0:	0387ac23          	sw	s8,56(a5)
    3da4:	5f98                	lw	a4,56(a5)
    3da6:	8f75                	and	a4,a4,a3
    3da8:	8dd9                	or	a1,a1,a4
    3daa:	df8c                	sw	a1,56(a5)
    3dac:	5462                	lw	s0,56(sp)
    3dae:	50f2                	lw	ra,60(sp)
    3db0:	54d2                	lw	s1,52(sp)
    3db2:	5942                	lw	s2,48(sp)
    3db4:	59b2                	lw	s3,44(sp)
    3db6:	5a22                	lw	s4,40(sp)
    3db8:	5a92                	lw	s5,36(sp)
    3dba:	5b02                	lw	s6,32(sp)
    3dbc:	4bf2                	lw	s7,28(sp)
    3dbe:	4c62                	lw	s8,24(sp)
    3dc0:	4cd2                	lw	s9,20(sp)
    3dc2:	4d42                	lw	s10,16(sp)
    3dc4:	4db2                	lw	s11,12(sp)
    3dc6:	6121                	addi	sp,sp,64
    3dc8:	8082                	ret
    3dca:	82019a23          	sh	zero,-1996(gp) # 20000edc <ftuneFlag>
    3dce:	c28ff06f          	j	31f6 <RFEND_TXCtune+0x114>

00003dd2 <RFEND_TXFtune>:
RFEND_TXFtune():
    3dd2:	72c18793          	addi	a5,gp,1836 # 20001dd4 <gptrRFENDReg>
    3dd6:	4398                	lw	a4,0(a5)
    3dd8:	435c                	lw	a5,4(a4)
    3dda:	1007e793          	ori	a5,a5,256
    3dde:	c35c                	sw	a5,4(a4)
    3de0:	8082                	ret

00003de2 <tmos_memory_getlen>:
tmos_memory_getlen():
    3de2:	7a018793          	addi	a5,gp,1952 # 20001e48 <MemCtlStart>
    3de6:	79818713          	addi	a4,gp,1944 # 20001e40 <MemCtlEnd>
    3dea:	439c                	lw	a5,0(a5)
    3dec:	4318                	lw	a4,0(a4)
    3dee:	4501                	li	a0,0
    3df0:	00f71363          	bne	a4,a5,3df6 <tmos_memory_getlen+0x14>
    3df4:	8082                	ret
    3df6:	0067d683          	lhu	a3,6(a5)
    3dfa:	e681                	bnez	a3,3e02 <tmos_memory_getlen+0x20>
    3dfc:	0047d683          	lhu	a3,4(a5)
    3e00:	9536                	add	a0,a0,a3
    3e02:	439c                	lw	a5,0(a5)
    3e04:	b7f5                	j	3df0 <tmos_memory_getlen+0xe>

00003e06 <tmos_memory_init>:
tmos_memory_init():
    3e06:	6b018793          	addi	a5,gp,1712 # 20001d58 <ble>
    3e0a:	438c                	lw	a1,0(a5)
    3e0c:	6b41d703          	lhu	a4,1716(gp) # 20001d5c <ble+0x4>
    3e10:	1141                	addi	sp,sp,-16
    3e12:	21058613          	addi	a2,a1,528 # 40000210 <_eusrstack+0x1fffd210>
    3e16:	7ac1a023          	sw	a2,1952(gp) # 20001e48 <MemCtlStart>
    3e1a:	ff858793          	addi	a5,a1,-8
    3e1e:	97ba                	add	a5,a5,a4
    3e20:	6505                	lui	a0,0x1
    3e22:	78f1ac23          	sw	a5,1944(gp) # 20001e40 <MemCtlEnd>
    3e26:	c606                	sw	ra,12(sp)
    3e28:	051d                	addi	a0,a0,7 # 1007 <RTC_InitClock+0x9b>
    3e2a:	20000693          	li	a3,512
    3e2e:	00e56563          	bltu	a0,a4,3e38 <tmos_memory_init+0x32>
    3e32:	00575693          	srli	a3,a4,0x5
    3e36:	068a                	slli	a3,a3,0x2
    3e38:	00d60733          	add	a4,a2,a3
    3e3c:	78e1ae23          	sw	a4,1948(gp) # 20001e44 <MemCtlPartition>
    3e40:	20e5a823          	sw	a4,528(a1)
    3e44:	16e1                	addi	a3,a3,-8
    3e46:	00d61223          	sh	a3,4(a2) # 10004 <_data_lma+0xa07c>
    3e4a:	00061323          	sh	zero,6(a2)
    3e4e:	c31c                	sw	a5,0(a4)
    3e50:	8f99                	sub	a5,a5,a4
    3e52:	17e1                	addi	a5,a5,-8
    3e54:	00f71223          	sh	a5,4(a4)
    3e58:	00071323          	sh	zero,6(a4)
    3e5c:	3759                	jal	3de2 <tmos_memory_getlen>
    3e5e:	40b2                	lw	ra,12(sp)
    3e60:	68a19023          	sh	a0,1664(gp) # 20001d28 <gTmosPara+0x4>
    3e64:	0141                	addi	sp,sp,16
    3e66:	8082                	ret

00003e68 <__udivdi3>:
__udivdi3():
    3e68:	8832                	mv	a6,a2
    3e6a:	88aa                	mv	a7,a0
    3e6c:	872e                	mv	a4,a1
    3e6e:	eacd                	bnez	a3,3f20 <__udivdi3+0xb8>
    3e70:	0ec5ff63          	bgeu	a1,a2,3f6e <__udivdi3+0x106>
    3e74:	67c1                	lui	a5,0x10
    3e76:	18f66a63          	bltu	a2,a5,400a <__udivdi3+0x1a2>
    3e7a:	010007b7          	lui	a5,0x1000
    3e7e:	00f637b3          	sltu	a5,a2,a5
    3e82:	40f007b3          	neg	a5,a5
    3e86:	9be1                	andi	a5,a5,-8
    3e88:	07e1                	addi	a5,a5,24 # 1000018 <_data_lma+0xffa090>
    3e8a:	00f65333          	srl	t1,a2,a5
    3e8e:	00001697          	auipc	a3,0x1
    3e92:	7f668693          	addi	a3,a3,2038 # 5684 <__clz_tab>
    3e96:	969a                	add	a3,a3,t1
    3e98:	2294                	lbu	a3,0(a3)
    3e9a:	02000313          	li	t1,32
    3e9e:	97b6                	add	a5,a5,a3
    3ea0:	40f306b3          	sub	a3,t1,a5
    3ea4:	00f30b63          	beq	t1,a5,3eba <__udivdi3+0x52>
    3ea8:	00d59733          	sll	a4,a1,a3
    3eac:	00f557b3          	srl	a5,a0,a5
    3eb0:	00d61833          	sll	a6,a2,a3
    3eb4:	8f5d                	or	a4,a4,a5
    3eb6:	00d518b3          	sll	a7,a0,a3
    3eba:	01085613          	srli	a2,a6,0x10
    3ebe:	02c75533          	divu	a0,a4,a2
    3ec2:	080846b3          	zext.h	a3,a6
    3ec6:	0108d793          	srli	a5,a7,0x10
    3eca:	02c77733          	remu	a4,a4,a2
    3ece:	02a685b3          	mul	a1,a3,a0
    3ed2:	0742                	slli	a4,a4,0x10
    3ed4:	8fd9                	or	a5,a5,a4
    3ed6:	00b7fa63          	bgeu	a5,a1,3eea <__udivdi3+0x82>
    3eda:	97c2                	add	a5,a5,a6
    3edc:	fff50713          	addi	a4,a0,-1
    3ee0:	0107e463          	bltu	a5,a6,3ee8 <__udivdi3+0x80>
    3ee4:	30b7e863          	bltu	a5,a1,41f4 <__udivdi3+0x38c>
    3ee8:	853a                	mv	a0,a4
    3eea:	8f8d                	sub	a5,a5,a1
    3eec:	02c7d733          	divu	a4,a5,a2
    3ef0:	0808c8b3          	zext.h	a7,a7
    3ef4:	02c7f7b3          	remu	a5,a5,a2
    3ef8:	02e686b3          	mul	a3,a3,a4
    3efc:	07c2                	slli	a5,a5,0x10
    3efe:	00f8e8b3          	or	a7,a7,a5
    3f02:	00d8fb63          	bgeu	a7,a3,3f18 <__udivdi3+0xb0>
    3f06:	98c2                	add	a7,a7,a6
    3f08:	fff70793          	addi	a5,a4,-1
    3f0c:	0108e563          	bltu	a7,a6,3f16 <__udivdi3+0xae>
    3f10:	1779                	addi	a4,a4,-2
    3f12:	00d8e363          	bltu	a7,a3,3f18 <__udivdi3+0xb0>
    3f16:	873e                	mv	a4,a5
    3f18:	0542                	slli	a0,a0,0x10
    3f1a:	8d59                	or	a0,a0,a4
    3f1c:	4581                	li	a1,0
    3f1e:	8082                	ret
    3f20:	00d5f563          	bgeu	a1,a3,3f2a <__udivdi3+0xc2>
    3f24:	4581                	li	a1,0
    3f26:	4501                	li	a0,0
    3f28:	8082                	ret
    3f2a:	67c1                	lui	a5,0x10
    3f2c:	18f6e563          	bltu	a3,a5,40b6 <__udivdi3+0x24e>
    3f30:	010007b7          	lui	a5,0x1000
    3f34:	00f6b7b3          	sltu	a5,a3,a5
    3f38:	40f007b3          	neg	a5,a5
    3f3c:	9be1                	andi	a5,a5,-8
    3f3e:	07e1                	addi	a5,a5,24 # 1000018 <_data_lma+0xffa090>
    3f40:	00f6d833          	srl	a6,a3,a5
    3f44:	00001717          	auipc	a4,0x1
    3f48:	74070713          	addi	a4,a4,1856 # 5684 <__clz_tab>
    3f4c:	9742                	add	a4,a4,a6
    3f4e:	2318                	lbu	a4,0(a4)
    3f50:	02000893          	li	a7,32
    3f54:	973e                	add	a4,a4,a5
    3f56:	40e88833          	sub	a6,a7,a4
    3f5a:	18e89263          	bne	a7,a4,40de <__udivdi3+0x276>
    3f5e:	26b6ed63          	bltu	a3,a1,41d8 <__udivdi3+0x370>
    3f62:	00c53533          	sltu	a0,a0,a2
    3f66:	00154513          	xori	a0,a0,1
    3f6a:	4581                	li	a1,0
    3f6c:	8082                	ret
    3f6e:	c645                	beqz	a2,4016 <__udivdi3+0x1ae>
    3f70:	67c1                	lui	a5,0x10
    3f72:	24f67b63          	bgeu	a2,a5,41c8 <__udivdi3+0x360>
    3f76:	10063713          	sltiu	a4,a2,256
    3f7a:	00174713          	xori	a4,a4,1
    3f7e:	070e                	slli	a4,a4,0x3
    3f80:	00e656b3          	srl	a3,a2,a4
    3f84:	00001797          	auipc	a5,0x1
    3f88:	70078793          	addi	a5,a5,1792 # 5684 <__clz_tab>
    3f8c:	97b6                	add	a5,a5,a3
    3f8e:	239c                	lbu	a5,0(a5)
    3f90:	02000693          	li	a3,32
    3f94:	97ba                	add	a5,a5,a4
    3f96:	40f68eb3          	sub	t4,a3,a5
    3f9a:	08f69d63          	bne	a3,a5,4034 <__udivdi3+0x1cc>
    3f9e:	40c587b3          	sub	a5,a1,a2
    3fa2:	4585                	li	a1,1
    3fa4:	01065693          	srli	a3,a2,0x10
    3fa8:	08064633          	zext.h	a2,a2
    3fac:	02d7d533          	divu	a0,a5,a3
    3fb0:	0108d713          	srli	a4,a7,0x10
    3fb4:	02d7f7b3          	remu	a5,a5,a3
    3fb8:	02c50333          	mul	t1,a0,a2
    3fbc:	07c2                	slli	a5,a5,0x10
    3fbe:	8fd9                	or	a5,a5,a4
    3fc0:	0067fa63          	bgeu	a5,t1,3fd4 <__udivdi3+0x16c>
    3fc4:	97c2                	add	a5,a5,a6
    3fc6:	fff50713          	addi	a4,a0,-1
    3fca:	0107e463          	bltu	a5,a6,3fd2 <__udivdi3+0x16a>
    3fce:	2267e063          	bltu	a5,t1,41ee <__udivdi3+0x386>
    3fd2:	853a                	mv	a0,a4
    3fd4:	406787b3          	sub	a5,a5,t1
    3fd8:	02d7d733          	divu	a4,a5,a3
    3fdc:	0808c8b3          	zext.h	a7,a7
    3fe0:	02d7f7b3          	remu	a5,a5,a3
    3fe4:	02c70633          	mul	a2,a4,a2
    3fe8:	07c2                	slli	a5,a5,0x10
    3fea:	00f8e8b3          	or	a7,a7,a5
    3fee:	00c8fb63          	bgeu	a7,a2,4004 <__udivdi3+0x19c>
    3ff2:	98c2                	add	a7,a7,a6
    3ff4:	fff70793          	addi	a5,a4,-1
    3ff8:	0108e563          	bltu	a7,a6,4002 <__udivdi3+0x19a>
    3ffc:	1779                	addi	a4,a4,-2
    3ffe:	00c8e363          	bltu	a7,a2,4004 <__udivdi3+0x19c>
    4002:	873e                	mv	a4,a5
    4004:	0542                	slli	a0,a0,0x10
    4006:	8d59                	or	a0,a0,a4
    4008:	8082                	ret
    400a:	10063793          	sltiu	a5,a2,256
    400e:	0017c793          	xori	a5,a5,1
    4012:	078e                	slli	a5,a5,0x3
    4014:	bd9d                	j	3e8a <__udivdi3+0x22>
    4016:	4681                	li	a3,0
    4018:	00001797          	auipc	a5,0x1
    401c:	66c78793          	addi	a5,a5,1644 # 5684 <__clz_tab>
    4020:	97b6                	add	a5,a5,a3
    4022:	239c                	lbu	a5,0(a5)
    4024:	4701                	li	a4,0
    4026:	02000693          	li	a3,32
    402a:	97ba                	add	a5,a5,a4
    402c:	40f68eb3          	sub	t4,a3,a5
    4030:	f6f687e3          	beq	a3,a5,3f9e <__udivdi3+0x136>
    4034:	01d61833          	sll	a6,a2,t4
    4038:	00f5d333          	srl	t1,a1,a5
    403c:	01085693          	srli	a3,a6,0x10
    4040:	02d35e33          	divu	t3,t1,a3
    4044:	01d595b3          	sll	a1,a1,t4
    4048:	00f557b3          	srl	a5,a0,a5
    404c:	8fcd                	or	a5,a5,a1
    404e:	08084633          	zext.h	a2,a6
    4052:	0107d713          	srli	a4,a5,0x10
    4056:	01d518b3          	sll	a7,a0,t4
    405a:	02d37333          	remu	t1,t1,a3
    405e:	03c605b3          	mul	a1,a2,t3
    4062:	0342                	slli	t1,t1,0x10
    4064:	00676733          	or	a4,a4,t1
    4068:	00b77b63          	bgeu	a4,a1,407e <__udivdi3+0x216>
    406c:	9742                	add	a4,a4,a6
    406e:	fffe0513          	addi	a0,t3,-1
    4072:	17076a63          	bltu	a4,a6,41e6 <__udivdi3+0x37e>
    4076:	16b77863          	bgeu	a4,a1,41e6 <__udivdi3+0x37e>
    407a:	1e79                	addi	t3,t3,-2
    407c:	9742                	add	a4,a4,a6
    407e:	8f0d                	sub	a4,a4,a1
    4080:	02d75533          	divu	a0,a4,a3
    4084:	0807c7b3          	zext.h	a5,a5
    4088:	02d77733          	remu	a4,a4,a3
    408c:	02a60333          	mul	t1,a2,a0
    4090:	0742                	slli	a4,a4,0x10
    4092:	8fd9                	or	a5,a5,a4
    4094:	0067fb63          	bgeu	a5,t1,40aa <__udivdi3+0x242>
    4098:	97c2                	add	a5,a5,a6
    409a:	fff50713          	addi	a4,a0,-1
    409e:	1507e063          	bltu	a5,a6,41de <__udivdi3+0x376>
    40a2:	1267fe63          	bgeu	a5,t1,41de <__udivdi3+0x376>
    40a6:	1579                	addi	a0,a0,-2
    40a8:	97c2                	add	a5,a5,a6
    40aa:	010e1593          	slli	a1,t3,0x10
    40ae:	406787b3          	sub	a5,a5,t1
    40b2:	8dc9                	or	a1,a1,a0
    40b4:	bde5                	j	3fac <__udivdi3+0x144>
    40b6:	1006b793          	sltiu	a5,a3,256
    40ba:	0017c793          	xori	a5,a5,1
    40be:	078e                	slli	a5,a5,0x3
    40c0:	00f6d833          	srl	a6,a3,a5
    40c4:	00001717          	auipc	a4,0x1
    40c8:	5c070713          	addi	a4,a4,1472 # 5684 <__clz_tab>
    40cc:	9742                	add	a4,a4,a6
    40ce:	2318                	lbu	a4,0(a4)
    40d0:	02000893          	li	a7,32
    40d4:	973e                	add	a4,a4,a5
    40d6:	40e88833          	sub	a6,a7,a4
    40da:	e8e882e3          	beq	a7,a4,3f5e <__udivdi3+0xf6>
    40de:	00e65e33          	srl	t3,a2,a4
    40e2:	010696b3          	sll	a3,a3,a6
    40e6:	00de6e33          	or	t3,t3,a3
    40ea:	00e5d8b3          	srl	a7,a1,a4
    40ee:	010e5e93          	srli	t4,t3,0x10
    40f2:	03d8d7b3          	divu	a5,a7,t4
    40f6:	010595b3          	sll	a1,a1,a6
    40fa:	00e55733          	srl	a4,a0,a4
    40fe:	8f4d                	or	a4,a4,a1
    4100:	080e4333          	zext.h	t1,t3
    4104:	01075693          	srli	a3,a4,0x10
    4108:	01061633          	sll	a2,a2,a6
    410c:	03d8f8b3          	remu	a7,a7,t4
    4110:	02f305b3          	mul	a1,t1,a5
    4114:	08c2                	slli	a7,a7,0x10
    4116:	0116e6b3          	or	a3,a3,a7
    411a:	00b6fb63          	bgeu	a3,a1,4130 <__udivdi3+0x2c8>
    411e:	96f2                	add	a3,a3,t3
    4120:	fff78893          	addi	a7,a5,-1
    4124:	0dc6e363          	bltu	a3,t3,41ea <__udivdi3+0x382>
    4128:	0cb6f163          	bgeu	a3,a1,41ea <__udivdi3+0x382>
    412c:	17f9                	addi	a5,a5,-2
    412e:	96f2                	add	a3,a3,t3
    4130:	8e8d                	sub	a3,a3,a1
    4132:	03d6d5b3          	divu	a1,a3,t4
    4136:	08074733          	zext.h	a4,a4
    413a:	03d6f6b3          	remu	a3,a3,t4
    413e:	02b308b3          	mul	a7,t1,a1
    4142:	06c2                	slli	a3,a3,0x10
    4144:	8f55                	or	a4,a4,a3
    4146:	01177b63          	bgeu	a4,a7,415c <__udivdi3+0x2f4>
    414a:	9772                	add	a4,a4,t3
    414c:	fff58693          	addi	a3,a1,-1
    4150:	09c76963          	bltu	a4,t3,41e2 <__udivdi3+0x37a>
    4154:	09177763          	bgeu	a4,a7,41e2 <__udivdi3+0x37a>
    4158:	15f9                	addi	a1,a1,-2
    415a:	9772                	add	a4,a4,t3
    415c:	07c2                	slli	a5,a5,0x10
    415e:	6ec1                	lui	t4,0x10
    4160:	8fcd                	or	a5,a5,a1
    4162:	fffe8693          	addi	a3,t4,-1 # ffff <_data_lma+0xa077>
    4166:	00d7f5b3          	and	a1,a5,a3
    416a:	0107d313          	srli	t1,a5,0x10
    416e:	8ef1                	and	a3,a3,a2
    4170:	8241                	srli	a2,a2,0x10
    4172:	02d58e33          	mul	t3,a1,a3
    4176:	41170733          	sub	a4,a4,a7
    417a:	02d306b3          	mul	a3,t1,a3
    417e:	010e5893          	srli	a7,t3,0x10
    4182:	02c585b3          	mul	a1,a1,a2
    4186:	95b6                	add	a1,a1,a3
    4188:	95c6                	add	a1,a1,a7
    418a:	02c30333          	mul	t1,t1,a2
    418e:	00d5f363          	bgeu	a1,a3,4194 <__udivdi3+0x32c>
    4192:	9376                	add	t1,t1,t4
    4194:	0105d693          	srli	a3,a1,0x10
    4198:	969a                	add	a3,a3,t1
    419a:	02d76363          	bltu	a4,a3,41c0 <__udivdi3+0x358>
    419e:	00d70563          	beq	a4,a3,41a8 <__udivdi3+0x340>
    41a2:	853e                	mv	a0,a5
    41a4:	4581                	li	a1,0
    41a6:	8082                	ret
    41a8:	66c1                	lui	a3,0x10
    41aa:	16fd                	addi	a3,a3,-1 # ffff <_data_lma+0xa077>
    41ac:	00d5f733          	and	a4,a1,a3
    41b0:	0742                	slli	a4,a4,0x10
    41b2:	00de7e33          	and	t3,t3,a3
    41b6:	01051533          	sll	a0,a0,a6
    41ba:	9772                	add	a4,a4,t3
    41bc:	fee573e3          	bgeu	a0,a4,41a2 <__udivdi3+0x33a>
    41c0:	fff78513          	addi	a0,a5,-1
    41c4:	4581                	li	a1,0
    41c6:	8082                	ret
    41c8:	010007b7          	lui	a5,0x1000
    41cc:	02f67763          	bgeu	a2,a5,41fa <__udivdi3+0x392>
    41d0:	01065693          	srli	a3,a2,0x10
    41d4:	4741                	li	a4,16
    41d6:	b37d                	j	3f84 <__udivdi3+0x11c>
    41d8:	4581                	li	a1,0
    41da:	4505                	li	a0,1
    41dc:	8082                	ret
    41de:	853a                	mv	a0,a4
    41e0:	b5e9                	j	40aa <__udivdi3+0x242>
    41e2:	85b6                	mv	a1,a3
    41e4:	bfa5                	j	415c <__udivdi3+0x2f4>
    41e6:	8e2a                	mv	t3,a0
    41e8:	bd59                	j	407e <__udivdi3+0x216>
    41ea:	87c6                	mv	a5,a7
    41ec:	b791                	j	4130 <__udivdi3+0x2c8>
    41ee:	1579                	addi	a0,a0,-2
    41f0:	97c2                	add	a5,a5,a6
    41f2:	b3cd                	j	3fd4 <__udivdi3+0x16c>
    41f4:	1579                	addi	a0,a0,-2
    41f6:	97c2                	add	a5,a5,a6
    41f8:	b9cd                	j	3eea <__udivdi3+0x82>
    41fa:	01865693          	srli	a3,a2,0x18
    41fe:	4761                	li	a4,24
    4200:	b351                	j	3f84 <__udivdi3+0x11c>

00004202 <iprintf>:
printf():
    4202:	715d                	addi	sp,sp,-80
    4204:	d422                	sw	s0,40(sp)
    4206:	d606                	sw	ra,44(sp)
    4208:	842a                	mv	s0,a0
    420a:	da2e                	sw	a1,52(sp)
    420c:	dc32                	sw	a2,56(sp)
    420e:	de36                	sw	a3,60(sp)
    4210:	c0ba                	sw	a4,64(sp)
    4212:	c2be                	sw	a5,68(sp)
    4214:	c4c2                	sw	a6,72(sp)
    4216:	c6c6                	sw	a7,76(sp)
    4218:	8081a503          	lw	a0,-2040(gp) # 20000eb0 <_impure_ptr>
    421c:	c511                	beqz	a0,4228 <iprintf+0x26>
    421e:	4d1c                	lw	a5,24(a0)
    4220:	e781                	bnez	a5,4228 <iprintf+0x26>
    4222:	c62a                	sw	a0,12(sp)
    4224:	2d05                	jal	4854 <__sinit>
    4226:	4532                	lw	a0,12(sp)
    4228:	450c                	lw	a1,8(a0)
    422a:	1854                	addi	a3,sp,52
    422c:	8622                	mv	a2,s0
    422e:	ce36                	sw	a3,28(sp)
    4230:	2e7000ef          	jal	ra,4d16 <_vfiprintf_r>
    4234:	50b2                	lw	ra,44(sp)
    4236:	5422                	lw	s0,40(sp)
    4238:	6161                	addi	sp,sp,80
    423a:	8082                	ret

0000423c <putchar>:
putchar():
    423c:	85aa                	mv	a1,a0
    423e:	8081a503          	lw	a0,-2040(gp) # 20000eb0 <_impure_ptr>
    4242:	cd11                	beqz	a0,425e <putchar+0x22>
    4244:	4d1c                	lw	a5,24(a0)
    4246:	ef81                	bnez	a5,425e <putchar+0x22>
    4248:	1101                	addi	sp,sp,-32
    424a:	ce06                	sw	ra,28(sp)
    424c:	c62e                	sw	a1,12(sp)
    424e:	c42a                	sw	a0,8(sp)
    4250:	2511                	jal	4854 <__sinit>
    4252:	4522                	lw	a0,8(sp)
    4254:	45b2                	lw	a1,12(sp)
    4256:	40f2                	lw	ra,28(sp)
    4258:	4510                	lw	a2,8(a0)
    425a:	6105                	addi	sp,sp,32
    425c:	a019                	j	4262 <_putc_r>
    425e:	4510                	lw	a2,8(a0)
    4260:	bff5                	j	425c <putchar+0x20>

00004262 <_putc_r>:
_putc_r():
    4262:	1141                	addi	sp,sp,-16
    4264:	c422                	sw	s0,8(sp)
    4266:	c226                	sw	s1,4(sp)
    4268:	c04a                	sw	s2,0(sp)
    426a:	c606                	sw	ra,12(sp)
    426c:	892a                	mv	s2,a0
    426e:	84ae                	mv	s1,a1
    4270:	8432                	mv	s0,a2
    4272:	c501                	beqz	a0,427a <_putc_r+0x18>
    4274:	4d1c                	lw	a5,24(a0)
    4276:	e391                	bnez	a5,427a <_putc_r+0x18>
    4278:	2bf1                	jal	4854 <__sinit>
    427a:	00001797          	auipc	a5,0x1
    427e:	54a78793          	addi	a5,a5,1354 # 57c4 <__sf_fake_stdin>
    4282:	06f41363          	bne	s0,a5,42e8 <_putc_r+0x86>
    4286:	00492403          	lw	s0,4(s2)
    428a:	507c                	lw	a5,100(s0)
    428c:	8b85                	andi	a5,a5,1
    428e:	eb81                	bnez	a5,429e <_putc_r+0x3c>
    4290:	245e                	lhu	a5,12(s0)
    4292:	2007f793          	andi	a5,a5,512
    4296:	e781                	bnez	a5,429e <_putc_r+0x3c>
    4298:	4c28                	lw	a0,88(s0)
    429a:	732000ef          	jal	ra,49cc <__retarget_lock_acquire_recursive>
    429e:	441c                	lw	a5,8(s0)
    42a0:	17fd                	addi	a5,a5,-1
    42a2:	c41c                	sw	a5,8(s0)
    42a4:	0007da63          	bgez	a5,42b8 <_putc_r+0x56>
    42a8:	4c18                	lw	a4,24(s0)
    42aa:	06e7c163          	blt	a5,a4,430c <_putc_r+0xaa>
    42ae:	0ff4f793          	zext.b	a5,s1
    42b2:	4729                	li	a4,10
    42b4:	04e78c63          	beq	a5,a4,430c <_putc_r+0xaa>
    42b8:	401c                	lw	a5,0(s0)
    42ba:	00178713          	addi	a4,a5,1
    42be:	c018                	sw	a4,0(s0)
    42c0:	a384                	sb	s1,0(a5)
    42c2:	0ff4f493          	zext.b	s1,s1
    42c6:	507c                	lw	a5,100(s0)
    42c8:	8b85                	andi	a5,a5,1
    42ca:	eb81                	bnez	a5,42da <_putc_r+0x78>
    42cc:	245e                	lhu	a5,12(s0)
    42ce:	2007f793          	andi	a5,a5,512
    42d2:	e781                	bnez	a5,42da <_putc_r+0x78>
    42d4:	4c28                	lw	a0,88(s0)
    42d6:	6f8000ef          	jal	ra,49ce <__retarget_lock_release_recursive>
    42da:	40b2                	lw	ra,12(sp)
    42dc:	4422                	lw	s0,8(sp)
    42de:	4902                	lw	s2,0(sp)
    42e0:	8526                	mv	a0,s1
    42e2:	4492                	lw	s1,4(sp)
    42e4:	0141                	addi	sp,sp,16
    42e6:	8082                	ret
    42e8:	00001797          	auipc	a5,0x1
    42ec:	4bc78793          	addi	a5,a5,1212 # 57a4 <__sf_fake_stdout>
    42f0:	00f41563          	bne	s0,a5,42fa <_putc_r+0x98>
    42f4:	00892403          	lw	s0,8(s2)
    42f8:	bf49                	j	428a <_putc_r+0x28>
    42fa:	00001797          	auipc	a5,0x1
    42fe:	48a78793          	addi	a5,a5,1162 # 5784 <__sf_fake_stderr>
    4302:	f8f414e3          	bne	s0,a5,428a <_putc_r+0x28>
    4306:	00c92403          	lw	s0,12(s2)
    430a:	b741                	j	428a <_putc_r+0x28>
    430c:	85a6                	mv	a1,s1
    430e:	8622                	mv	a2,s0
    4310:	854a                	mv	a0,s2
    4312:	2a09                	jal	4424 <__swbuf_r>
    4314:	84aa                	mv	s1,a0
    4316:	bf45                	j	42c6 <_putc_r+0x64>

00004318 <_puts_r>:
_puts_r():
    4318:	1101                	addi	sp,sp,-32
    431a:	ca26                	sw	s1,20(sp)
    431c:	ce06                	sw	ra,28(sp)
    431e:	cc22                	sw	s0,24(sp)
    4320:	c84a                	sw	s2,16(sp)
    4322:	c64e                	sw	s3,12(sp)
    4324:	c452                	sw	s4,8(sp)
    4326:	84aa                	mv	s1,a0
    4328:	e119                	bnez	a0,432e <_puts_r+0x16>
    432a:	451c                	lw	a5,8(a0)
    432c:	9002                	ebreak
    432e:	4d1c                	lw	a5,24(a0)
    4330:	892e                	mv	s2,a1
    4332:	e3ad                	bnez	a5,4394 <_puts_r+0x7c>
    4334:	2305                	jal	4854 <__sinit>
    4336:	4c9c                	lw	a5,24(s1)
    4338:	4480                	lw	s0,8(s1)
    433a:	cfb9                	beqz	a5,4398 <_puts_r+0x80>
    433c:	00001797          	auipc	a5,0x1
    4340:	48878793          	addi	a5,a5,1160 # 57c4 <__sf_fake_stdin>
    4344:	04f41d63          	bne	s0,a5,439e <_puts_r+0x86>
    4348:	40c0                	lw	s0,4(s1)
    434a:	507c                	lw	a5,100(s0)
    434c:	8b85                	andi	a5,a5,1
    434e:	e799                	bnez	a5,435c <_puts_r+0x44>
    4350:	245e                	lhu	a5,12(s0)
    4352:	2007f793          	andi	a5,a5,512
    4356:	e399                	bnez	a5,435c <_puts_r+0x44>
    4358:	4c28                	lw	a0,88(s0)
    435a:	2d8d                	jal	49cc <__retarget_lock_acquire_recursive>
    435c:	245e                	lhu	a5,12(s0)
    435e:	8ba1                	andi	a5,a5,8
    4360:	c399                	beqz	a5,4366 <_puts_r+0x4e>
    4362:	481c                	lw	a5,16(s0)
    4364:	e3d5                	bnez	a5,4408 <_puts_r+0xf0>
    4366:	85a2                	mv	a1,s0
    4368:	8526                	mv	a0,s1
    436a:	2a9d                	jal	44e0 <__swsetup_r>
    436c:	cd51                	beqz	a0,4408 <_puts_r+0xf0>
    436e:	54fd                	li	s1,-1
    4370:	507c                	lw	a5,100(s0)
    4372:	8b85                	andi	a5,a5,1
    4374:	e799                	bnez	a5,4382 <_puts_r+0x6a>
    4376:	245e                	lhu	a5,12(s0)
    4378:	2007f793          	andi	a5,a5,512
    437c:	e399                	bnez	a5,4382 <_puts_r+0x6a>
    437e:	4c28                	lw	a0,88(s0)
    4380:	25b9                	jal	49ce <__retarget_lock_release_recursive>
    4382:	40f2                	lw	ra,28(sp)
    4384:	4462                	lw	s0,24(sp)
    4386:	4942                	lw	s2,16(sp)
    4388:	49b2                	lw	s3,12(sp)
    438a:	4a22                	lw	s4,8(sp)
    438c:	8526                	mv	a0,s1
    438e:	44d2                	lw	s1,20(sp)
    4390:	6105                	addi	sp,sp,32
    4392:	8082                	ret
    4394:	4500                	lw	s0,8(a0)
    4396:	b75d                	j	433c <_puts_r+0x24>
    4398:	8526                	mv	a0,s1
    439a:	296d                	jal	4854 <__sinit>
    439c:	b745                	j	433c <_puts_r+0x24>
    439e:	00001797          	auipc	a5,0x1
    43a2:	40678793          	addi	a5,a5,1030 # 57a4 <__sf_fake_stdout>
    43a6:	00f41463          	bne	s0,a5,43ae <_puts_r+0x96>
    43aa:	4480                	lw	s0,8(s1)
    43ac:	bf79                	j	434a <_puts_r+0x32>
    43ae:	00001797          	auipc	a5,0x1
    43b2:	3d678793          	addi	a5,a5,982 # 5784 <__sf_fake_stderr>
    43b6:	f8f41ae3          	bne	s0,a5,434a <_puts_r+0x32>
    43ba:	44c0                	lw	s0,12(s1)
    43bc:	b779                	j	434a <_puts_r+0x32>
    43be:	c41c                	sw	a5,8(s0)
    43c0:	0905                	addi	s2,s2,1
    43c2:	0207c863          	bltz	a5,43f2 <_puts_r+0xda>
    43c6:	401c                	lw	a5,0(s0)
    43c8:	00178713          	addi	a4,a5,1
    43cc:	c018                	sw	a4,0(s0)
    43ce:	a38c                	sb	a1,0(a5)
    43d0:	441c                	lw	a5,8(s0)
    43d2:	00094583          	lbu	a1,0(s2)
    43d6:	17fd                	addi	a5,a5,-1
    43d8:	f1fd                	bnez	a1,43be <_puts_r+0xa6>
    43da:	c41c                	sw	a5,8(s0)
    43dc:	0207d963          	bgez	a5,440e <_puts_r+0xf6>
    43e0:	8622                	mv	a2,s0
    43e2:	45a9                	li	a1,10
    43e4:	8526                	mv	a0,s1
    43e6:	283d                	jal	4424 <__swbuf_r>
    43e8:	57fd                	li	a5,-1
    43ea:	f8f502e3          	beq	a0,a5,436e <_puts_r+0x56>
    43ee:	44a9                	li	s1,10
    43f0:	b741                	j	4370 <_puts_r+0x58>
    43f2:	4c18                	lw	a4,24(s0)
    43f4:	00e7c463          	blt	a5,a4,43fc <_puts_r+0xe4>
    43f8:	fd4597e3          	bne	a1,s4,43c6 <_puts_r+0xae>
    43fc:	8622                	mv	a2,s0
    43fe:	8526                	mv	a0,s1
    4400:	2015                	jal	4424 <__swbuf_r>
    4402:	fd3517e3          	bne	a0,s3,43d0 <_puts_r+0xb8>
    4406:	b7a5                	j	436e <_puts_r+0x56>
    4408:	59fd                	li	s3,-1
    440a:	4a29                	li	s4,10
    440c:	b7d1                	j	43d0 <_puts_r+0xb8>
    440e:	401c                	lw	a5,0(s0)
    4410:	00178713          	addi	a4,a5,1
    4414:	c018                	sw	a4,0(s0)
    4416:	4729                	li	a4,10
    4418:	a398                	sb	a4,0(a5)
    441a:	bfd1                	j	43ee <_puts_r+0xd6>

0000441c <puts>:
puts():
    441c:	85aa                	mv	a1,a0
    441e:	8081a503          	lw	a0,-2040(gp) # 20000eb0 <_impure_ptr>
    4422:	bddd                	j	4318 <_puts_r>

00004424 <__swbuf_r>:
__swbuf_r():
    4424:	1101                	addi	sp,sp,-32
    4426:	cc22                	sw	s0,24(sp)
    4428:	ca26                	sw	s1,20(sp)
    442a:	c84a                	sw	s2,16(sp)
    442c:	ce06                	sw	ra,28(sp)
    442e:	c64e                	sw	s3,12(sp)
    4430:	84aa                	mv	s1,a0
    4432:	892e                	mv	s2,a1
    4434:	8432                	mv	s0,a2
    4436:	c501                	beqz	a0,443e <__swbuf_r+0x1a>
    4438:	4d1c                	lw	a5,24(a0)
    443a:	e391                	bnez	a5,443e <__swbuf_r+0x1a>
    443c:	2921                	jal	4854 <__sinit>
    443e:	00001797          	auipc	a5,0x1
    4442:	38678793          	addi	a5,a5,902 # 57c4 <__sf_fake_stdin>
    4446:	02f41763          	bne	s0,a5,4474 <__swbuf_r+0x50>
    444a:	40c0                	lw	s0,4(s1)
    444c:	4c1c                	lw	a5,24(s0)
    444e:	c41c                	sw	a5,8(s0)
    4450:	245e                	lhu	a5,12(s0)
    4452:	8ba1                	andi	a5,a5,8
    4454:	c399                	beqz	a5,445a <__swbuf_r+0x36>
    4456:	481c                	lw	a5,16(s0)
    4458:	ef95                	bnez	a5,4494 <__swbuf_r+0x70>
    445a:	85a2                	mv	a1,s0
    445c:	8526                	mv	a0,s1
    445e:	2049                	jal	44e0 <__swsetup_r>
    4460:	c915                	beqz	a0,4494 <__swbuf_r+0x70>
    4462:	597d                	li	s2,-1
    4464:	40f2                	lw	ra,28(sp)
    4466:	4462                	lw	s0,24(sp)
    4468:	44d2                	lw	s1,20(sp)
    446a:	49b2                	lw	s3,12(sp)
    446c:	854a                	mv	a0,s2
    446e:	4942                	lw	s2,16(sp)
    4470:	6105                	addi	sp,sp,32
    4472:	8082                	ret
    4474:	00001797          	auipc	a5,0x1
    4478:	33078793          	addi	a5,a5,816 # 57a4 <__sf_fake_stdout>
    447c:	00f41463          	bne	s0,a5,4484 <__swbuf_r+0x60>
    4480:	4480                	lw	s0,8(s1)
    4482:	b7e9                	j	444c <__swbuf_r+0x28>
    4484:	00001797          	auipc	a5,0x1
    4488:	30078793          	addi	a5,a5,768 # 5784 <__sf_fake_stderr>
    448c:	fcf410e3          	bne	s0,a5,444c <__swbuf_r+0x28>
    4490:	44c0                	lw	s0,12(s1)
    4492:	bf6d                	j	444c <__swbuf_r+0x28>
    4494:	481c                	lw	a5,16(s0)
    4496:	4008                	lw	a0,0(s0)
    4498:	0ff97993          	zext.b	s3,s2
    449c:	0ff97913          	zext.b	s2,s2
    44a0:	8d1d                	sub	a0,a0,a5
    44a2:	485c                	lw	a5,20(s0)
    44a4:	00f54663          	blt	a0,a5,44b0 <__swbuf_r+0x8c>
    44a8:	85a2                	mv	a1,s0
    44aa:	8526                	mv	a0,s1
    44ac:	2c91                	jal	4700 <_fflush_r>
    44ae:	f955                	bnez	a0,4462 <__swbuf_r+0x3e>
    44b0:	441c                	lw	a5,8(s0)
    44b2:	0505                	addi	a0,a0,1
    44b4:	17fd                	addi	a5,a5,-1
    44b6:	c41c                	sw	a5,8(s0)
    44b8:	401c                	lw	a5,0(s0)
    44ba:	00178713          	addi	a4,a5,1
    44be:	c018                	sw	a4,0(s0)
    44c0:	01378023          	sb	s3,0(a5)
    44c4:	485c                	lw	a5,20(s0)
    44c6:	00a78863          	beq	a5,a0,44d6 <__swbuf_r+0xb2>
    44ca:	245e                	lhu	a5,12(s0)
    44cc:	8b85                	andi	a5,a5,1
    44ce:	dbd9                	beqz	a5,4464 <__swbuf_r+0x40>
    44d0:	47a9                	li	a5,10
    44d2:	f8f919e3          	bne	s2,a5,4464 <__swbuf_r+0x40>
    44d6:	85a2                	mv	a1,s0
    44d8:	8526                	mv	a0,s1
    44da:	241d                	jal	4700 <_fflush_r>
    44dc:	d541                	beqz	a0,4464 <__swbuf_r+0x40>
    44de:	b751                	j	4462 <__swbuf_r+0x3e>

000044e0 <__swsetup_r>:
__swsetup_r():
    44e0:	1141                	addi	sp,sp,-16
    44e2:	c422                	sw	s0,8(sp)
    44e4:	c226                	sw	s1,4(sp)
    44e6:	c04a                	sw	s2,0(sp)
    44e8:	c606                	sw	ra,12(sp)
    44ea:	8081a483          	lw	s1,-2040(gp) # 20000eb0 <_impure_ptr>
    44ee:	892a                	mv	s2,a0
    44f0:	842e                	mv	s0,a1
    44f2:	c489                	beqz	s1,44fc <__swsetup_r+0x1c>
    44f4:	4c9c                	lw	a5,24(s1)
    44f6:	e399                	bnez	a5,44fc <__swsetup_r+0x1c>
    44f8:	8526                	mv	a0,s1
    44fa:	2ea9                	jal	4854 <__sinit>
    44fc:	00001797          	auipc	a5,0x1
    4500:	2c878793          	addi	a5,a5,712 # 57c4 <__sf_fake_stdin>
    4504:	02f41363          	bne	s0,a5,452a <__swsetup_r+0x4a>
    4508:	40c0                	lw	s0,4(s1)
    450a:	00c41783          	lh	a5,12(s0)
    450e:	0087f713          	andi	a4,a5,8
    4512:	e725                	bnez	a4,457a <__swsetup_r+0x9a>
    4514:	0107f713          	andi	a4,a5,16
    4518:	eb0d                	bnez	a4,454a <__swsetup_r+0x6a>
    451a:	4725                	li	a4,9
    451c:	00e92023          	sw	a4,0(s2)
    4520:	0407e793          	ori	a5,a5,64
    4524:	a45e                	sh	a5,12(s0)
    4526:	557d                	li	a0,-1
    4528:	a071                	j	45b4 <__swsetup_r+0xd4>
    452a:	00001797          	auipc	a5,0x1
    452e:	27a78793          	addi	a5,a5,634 # 57a4 <__sf_fake_stdout>
    4532:	00f41463          	bne	s0,a5,453a <__swsetup_r+0x5a>
    4536:	4480                	lw	s0,8(s1)
    4538:	bfc9                	j	450a <__swsetup_r+0x2a>
    453a:	00001797          	auipc	a5,0x1
    453e:	24a78793          	addi	a5,a5,586 # 5784 <__sf_fake_stderr>
    4542:	fcf414e3          	bne	s0,a5,450a <__swsetup_r+0x2a>
    4546:	44c0                	lw	s0,12(s1)
    4548:	b7c9                	j	450a <__swsetup_r+0x2a>
    454a:	8b91                	andi	a5,a5,4
    454c:	c39d                	beqz	a5,4572 <__swsetup_r+0x92>
    454e:	584c                	lw	a1,52(s0)
    4550:	c989                	beqz	a1,4562 <__swsetup_r+0x82>
    4552:	04440793          	addi	a5,s0,68
    4556:	00f58463          	beq	a1,a5,455e <__swsetup_r+0x7e>
    455a:	854a                	mv	a0,s2
    455c:	2bb9                	jal	4aba <_free_r>
    455e:	02042a23          	sw	zero,52(s0)
    4562:	245e                	lhu	a5,12(s0)
    4564:	00042223          	sw	zero,4(s0)
    4568:	fdb7f793          	andi	a5,a5,-37
    456c:	a45e                	sh	a5,12(s0)
    456e:	481c                	lw	a5,16(s0)
    4570:	c01c                	sw	a5,0(s0)
    4572:	245e                	lhu	a5,12(s0)
    4574:	0087e793          	ori	a5,a5,8
    4578:	a45e                	sh	a5,12(s0)
    457a:	481c                	lw	a5,16(s0)
    457c:	eb99                	bnez	a5,4592 <__swsetup_r+0xb2>
    457e:	245e                	lhu	a5,12(s0)
    4580:	20000713          	li	a4,512
    4584:	2807f793          	andi	a5,a5,640
    4588:	00e78563          	beq	a5,a4,4592 <__swsetup_r+0xb2>
    458c:	85a2                	mv	a1,s0
    458e:	854a                	mv	a0,s2
    4590:	2961                	jal	4a28 <__smakebuf_r>
    4592:	00c41783          	lh	a5,12(s0)
    4596:	0017f713          	andi	a4,a5,1
    459a:	c31d                	beqz	a4,45c0 <__swsetup_r+0xe0>
    459c:	4858                	lw	a4,20(s0)
    459e:	00042423          	sw	zero,8(s0)
    45a2:	40e00733          	neg	a4,a4
    45a6:	cc18                	sw	a4,24(s0)
    45a8:	4818                	lw	a4,16(s0)
    45aa:	4501                	li	a0,0
    45ac:	e701                	bnez	a4,45b4 <__swsetup_r+0xd4>
    45ae:	0807f713          	andi	a4,a5,128
    45b2:	f73d                	bnez	a4,4520 <__swsetup_r+0x40>
    45b4:	40b2                	lw	ra,12(sp)
    45b6:	4422                	lw	s0,8(sp)
    45b8:	4492                	lw	s1,4(sp)
    45ba:	4902                	lw	s2,0(sp)
    45bc:	0141                	addi	sp,sp,16
    45be:	8082                	ret
    45c0:	0027f713          	andi	a4,a5,2
    45c4:	4681                	li	a3,0
    45c6:	e311                	bnez	a4,45ca <__swsetup_r+0xea>
    45c8:	4854                	lw	a3,20(s0)
    45ca:	c414                	sw	a3,8(s0)
    45cc:	bff1                	j	45a8 <__swsetup_r+0xc8>

000045ce <__sflush_r>:
__sflush_r():
    45ce:	00c59783          	lh	a5,12(a1)
    45d2:	1101                	addi	sp,sp,-32
    45d4:	cc22                	sw	s0,24(sp)
    45d6:	ca26                	sw	s1,20(sp)
    45d8:	ce06                	sw	ra,28(sp)
    45da:	c84a                	sw	s2,16(sp)
    45dc:	c64e                	sw	s3,12(sp)
    45de:	0087f713          	andi	a4,a5,8
    45e2:	84aa                	mv	s1,a0
    45e4:	842e                	mv	s0,a1
    45e6:	e379                	bnez	a4,46ac <__sflush_r+0xde>
    45e8:	41d8                	lw	a4,4(a1)
    45ea:	00e04563          	bgtz	a4,45f4 <__sflush_r+0x26>
    45ee:	41b8                	lw	a4,64(a1)
    45f0:	08e05663          	blez	a4,467c <__sflush_r+0xae>
    45f4:	5458                	lw	a4,44(s0)
    45f6:	c359                	beqz	a4,467c <__sflush_r+0xae>
    45f8:	0004a903          	lw	s2,0(s1)
    45fc:	0004a023          	sw	zero,0(s1)
    4600:	500c                	lw	a1,32(s0)
    4602:	48c7d793          	bexti	a5,a5,0xc
    4606:	cba9                	beqz	a5,4658 <__sflush_r+0x8a>
    4608:	4870                	lw	a2,84(s0)
    460a:	245e                	lhu	a5,12(s0)
    460c:	8b91                	andi	a5,a5,4
    460e:	c799                	beqz	a5,461c <__sflush_r+0x4e>
    4610:	405c                	lw	a5,4(s0)
    4612:	8e1d                	sub	a2,a2,a5
    4614:	585c                	lw	a5,52(s0)
    4616:	c399                	beqz	a5,461c <__sflush_r+0x4e>
    4618:	403c                	lw	a5,64(s0)
    461a:	8e1d                	sub	a2,a2,a5
    461c:	545c                	lw	a5,44(s0)
    461e:	500c                	lw	a1,32(s0)
    4620:	4681                	li	a3,0
    4622:	8526                	mv	a0,s1
    4624:	9782                	jalr	a5
    4626:	57fd                	li	a5,-1
    4628:	04f50c63          	beq	a0,a5,4680 <__sflush_r+0xb2>
    462c:	481c                	lw	a5,16(s0)
    462e:	6705                	lui	a4,0x1
    4630:	00042223          	sw	zero,4(s0)
    4634:	c01c                	sw	a5,0(s0)
    4636:	245e                	lhu	a5,12(s0)
    4638:	8ff9                	and	a5,a5,a4
    463a:	c391                	beqz	a5,463e <__sflush_r+0x70>
    463c:	c868                	sw	a0,84(s0)
    463e:	584c                	lw	a1,52(s0)
    4640:	0124a023          	sw	s2,0(s1)
    4644:	cd85                	beqz	a1,467c <__sflush_r+0xae>
    4646:	04440793          	addi	a5,s0,68
    464a:	00f58463          	beq	a1,a5,4652 <__sflush_r+0x84>
    464e:	8526                	mv	a0,s1
    4650:	21ad                	jal	4aba <_free_r>
    4652:	02042a23          	sw	zero,52(s0)
    4656:	a01d                	j	467c <__sflush_r+0xae>
    4658:	4601                	li	a2,0
    465a:	4685                	li	a3,1
    465c:	8526                	mv	a0,s1
    465e:	9702                	jalr	a4
    4660:	57fd                	li	a5,-1
    4662:	862a                	mv	a2,a0
    4664:	faf513e3          	bne	a0,a5,460a <__sflush_r+0x3c>
    4668:	409c                	lw	a5,0(s1)
    466a:	d3c5                	beqz	a5,460a <__sflush_r+0x3c>
    466c:	4775                	li	a4,29
    466e:	00e78563          	beq	a5,a4,4678 <__sflush_r+0xaa>
    4672:	4759                	li	a4,22
    4674:	06e79563          	bne	a5,a4,46de <__sflush_r+0x110>
    4678:	0124a023          	sw	s2,0(s1)
    467c:	4501                	li	a0,0
    467e:	a0b5                	j	46ea <__sflush_r+0x11c>
    4680:	4098                	lw	a4,0(s1)
    4682:	00c41783          	lh	a5,12(s0)
    4686:	cf01                	beqz	a4,469e <__sflush_r+0xd0>
    4688:	46f5                	li	a3,29
    468a:	00d70563          	beq	a4,a3,4694 <__sflush_r+0xc6>
    468e:	46d9                	li	a3,22
    4690:	04d71963          	bne	a4,a3,46e2 <__sflush_r+0x114>
    4694:	481c                	lw	a5,16(s0)
    4696:	00042223          	sw	zero,4(s0)
    469a:	c01c                	sw	a5,0(s0)
    469c:	b74d                	j	463e <__sflush_r+0x70>
    469e:	4818                	lw	a4,16(s0)
    46a0:	00042223          	sw	zero,4(s0)
    46a4:	48c7d793          	bexti	a5,a5,0xc
    46a8:	c018                	sw	a4,0(s0)
    46aa:	bf41                	j	463a <__sflush_r+0x6c>
    46ac:	0105a983          	lw	s3,16(a1)
    46b0:	fc0986e3          	beqz	s3,467c <__sflush_r+0xae>
    46b4:	0005a903          	lw	s2,0(a1)
    46b8:	8b8d                	andi	a5,a5,3
    46ba:	0135a023          	sw	s3,0(a1)
    46be:	41390933          	sub	s2,s2,s3
    46c2:	4701                	li	a4,0
    46c4:	e391                	bnez	a5,46c8 <__sflush_r+0xfa>
    46c6:	49d8                	lw	a4,20(a1)
    46c8:	c418                	sw	a4,8(s0)
    46ca:	fb2059e3          	blez	s2,467c <__sflush_r+0xae>
    46ce:	541c                	lw	a5,40(s0)
    46d0:	500c                	lw	a1,32(s0)
    46d2:	86ca                	mv	a3,s2
    46d4:	864e                	mv	a2,s3
    46d6:	8526                	mv	a0,s1
    46d8:	9782                	jalr	a5
    46da:	00a04f63          	bgtz	a0,46f8 <__sflush_r+0x12a>
    46de:	00c41783          	lh	a5,12(s0)
    46e2:	0407e793          	ori	a5,a5,64
    46e6:	a45e                	sh	a5,12(s0)
    46e8:	557d                	li	a0,-1
    46ea:	40f2                	lw	ra,28(sp)
    46ec:	4462                	lw	s0,24(sp)
    46ee:	44d2                	lw	s1,20(sp)
    46f0:	4942                	lw	s2,16(sp)
    46f2:	49b2                	lw	s3,12(sp)
    46f4:	6105                	addi	sp,sp,32
    46f6:	8082                	ret
    46f8:	99aa                	add	s3,s3,a0
    46fa:	40a90933          	sub	s2,s2,a0
    46fe:	b7f1                	j	46ca <__sflush_r+0xfc>

00004700 <_fflush_r>:
_fflush_r():
    4700:	499c                	lw	a5,16(a1)
    4702:	1141                	addi	sp,sp,-16
    4704:	c606                	sw	ra,12(sp)
    4706:	c422                	sw	s0,8(sp)
    4708:	c226                	sw	s1,4(sp)
    470a:	eb81                	bnez	a5,471a <_fflush_r+0x1a>
    470c:	4481                	li	s1,0
    470e:	40b2                	lw	ra,12(sp)
    4710:	4422                	lw	s0,8(sp)
    4712:	8526                	mv	a0,s1
    4714:	4492                	lw	s1,4(sp)
    4716:	0141                	addi	sp,sp,16
    4718:	8082                	ret
    471a:	84aa                	mv	s1,a0
    471c:	842e                	mv	s0,a1
    471e:	c501                	beqz	a0,4726 <_fflush_r+0x26>
    4720:	4d1c                	lw	a5,24(a0)
    4722:	e391                	bnez	a5,4726 <_fflush_r+0x26>
    4724:	2a05                	jal	4854 <__sinit>
    4726:	00001797          	auipc	a5,0x1
    472a:	09e78793          	addi	a5,a5,158 # 57c4 <__sf_fake_stdin>
    472e:	02f41c63          	bne	s0,a5,4766 <_fflush_r+0x66>
    4732:	40c0                	lw	s0,4(s1)
    4734:	00c41783          	lh	a5,12(s0)
    4738:	dbf1                	beqz	a5,470c <_fflush_r+0xc>
    473a:	5078                	lw	a4,100(s0)
    473c:	8b05                	andi	a4,a4,1
    473e:	e711                	bnez	a4,474a <_fflush_r+0x4a>
    4740:	2007f793          	andi	a5,a5,512
    4744:	e399                	bnez	a5,474a <_fflush_r+0x4a>
    4746:	4c28                	lw	a0,88(s0)
    4748:	2451                	jal	49cc <__retarget_lock_acquire_recursive>
    474a:	8526                	mv	a0,s1
    474c:	85a2                	mv	a1,s0
    474e:	3541                	jal	45ce <__sflush_r>
    4750:	507c                	lw	a5,100(s0)
    4752:	84aa                	mv	s1,a0
    4754:	8b85                	andi	a5,a5,1
    4756:	ffc5                	bnez	a5,470e <_fflush_r+0xe>
    4758:	245e                	lhu	a5,12(s0)
    475a:	2007f793          	andi	a5,a5,512
    475e:	fbc5                	bnez	a5,470e <_fflush_r+0xe>
    4760:	4c28                	lw	a0,88(s0)
    4762:	24b5                	jal	49ce <__retarget_lock_release_recursive>
    4764:	b76d                	j	470e <_fflush_r+0xe>
    4766:	00001797          	auipc	a5,0x1
    476a:	03e78793          	addi	a5,a5,62 # 57a4 <__sf_fake_stdout>
    476e:	00f41463          	bne	s0,a5,4776 <_fflush_r+0x76>
    4772:	4480                	lw	s0,8(s1)
    4774:	b7c1                	j	4734 <_fflush_r+0x34>
    4776:	00001797          	auipc	a5,0x1
    477a:	00e78793          	addi	a5,a5,14 # 5784 <__sf_fake_stderr>
    477e:	faf41be3          	bne	s0,a5,4734 <_fflush_r+0x34>
    4782:	44c0                	lw	s0,12(s1)
    4784:	bf45                	j	4734 <_fflush_r+0x34>

00004786 <std>:
std():
    4786:	1141                	addi	sp,sp,-16
    4788:	c422                	sw	s0,8(sp)
    478a:	c606                	sw	ra,12(sp)
    478c:	842a                	mv	s0,a0
    478e:	a54e                	sh	a1,12(a0)
    4790:	a572                	sh	a2,14(a0)
    4792:	00052023          	sw	zero,0(a0)
    4796:	00052223          	sw	zero,4(a0)
    479a:	00052423          	sw	zero,8(a0)
    479e:	06052223          	sw	zero,100(a0)
    47a2:	00052823          	sw	zero,16(a0)
    47a6:	00052a23          	sw	zero,20(a0)
    47aa:	00052c23          	sw	zero,24(a0)
    47ae:	4621                	li	a2,8
    47b0:	4581                	li	a1,0
    47b2:	05c50513          	addi	a0,a0,92
    47b6:	f56fc0ef          	jal	ra,f0c <memset>
    47ba:	00001797          	auipc	a5,0x1
    47be:	83678793          	addi	a5,a5,-1994 # 4ff0 <__sread>
    47c2:	d05c                	sw	a5,36(s0)
    47c4:	00001797          	auipc	a5,0x1
    47c8:	85678793          	addi	a5,a5,-1962 # 501a <__swrite>
    47cc:	d41c                	sw	a5,40(s0)
    47ce:	00001797          	auipc	a5,0x1
    47d2:	89278793          	addi	a5,a5,-1902 # 5060 <__sseek>
    47d6:	d45c                	sw	a5,44(s0)
    47d8:	00001797          	auipc	a5,0x1
    47dc:	8b678793          	addi	a5,a5,-1866 # 508e <__sclose>
    47e0:	40b2                	lw	ra,12(sp)
    47e2:	d000                	sw	s0,32(s0)
    47e4:	d81c                	sw	a5,48(s0)
    47e6:	4422                	lw	s0,8(sp)
    47e8:	0141                	addi	sp,sp,16
    47ea:	8082                	ret

000047ec <_cleanup_r>:
_cleanup_r():
    47ec:	00000597          	auipc	a1,0x0
    47f0:	f1458593          	addi	a1,a1,-236 # 4700 <_fflush_r>
    47f4:	a2bd                	j	4962 <_fwalk_reent>

000047f6 <__sfmoreglue>:
__sfmoreglue():
    47f6:	1141                	addi	sp,sp,-16
    47f8:	c226                	sw	s1,4(sp)
    47fa:	06800793          	li	a5,104
    47fe:	fff58493          	addi	s1,a1,-1
    4802:	02f484b3          	mul	s1,s1,a5
    4806:	c04a                	sw	s2,0(sp)
    4808:	892e                	mv	s2,a1
    480a:	c422                	sw	s0,8(sp)
    480c:	c606                	sw	ra,12(sp)
    480e:	07448593          	addi	a1,s1,116
    4812:	2e69                	jal	4bac <_malloc_r>
    4814:	842a                	mv	s0,a0
    4816:	cd01                	beqz	a0,482e <__sfmoreglue+0x38>
    4818:	00052023          	sw	zero,0(a0)
    481c:	01252223          	sw	s2,4(a0)
    4820:	0531                	addi	a0,a0,12
    4822:	c408                	sw	a0,8(s0)
    4824:	06848613          	addi	a2,s1,104
    4828:	4581                	li	a1,0
    482a:	ee2fc0ef          	jal	ra,f0c <memset>
    482e:	40b2                	lw	ra,12(sp)
    4830:	8522                	mv	a0,s0
    4832:	4422                	lw	s0,8(sp)
    4834:	4492                	lw	s1,4(sp)
    4836:	4902                	lw	s2,0(sp)
    4838:	0141                	addi	sp,sp,16
    483a:	8082                	ret

0000483c <__sfp_lock_acquire>:
__sfp_lock_acquire():
    483c:	84018513          	addi	a0,gp,-1984 # 20000ee8 <__lock___sfp_recursive_mutex>
    4840:	a271                	j	49cc <__retarget_lock_acquire_recursive>

00004842 <__sfp_lock_release>:
__sfp_lock_release():
    4842:	84018513          	addi	a0,gp,-1984 # 20000ee8 <__lock___sfp_recursive_mutex>
    4846:	a261                	j	49ce <__retarget_lock_release_recursive>

00004848 <__sinit_lock_acquire>:
__sinit_lock_acquire():
    4848:	84418513          	addi	a0,gp,-1980 # 20000eec <__lock___sinit_recursive_mutex>
    484c:	a241                	j	49cc <__retarget_lock_acquire_recursive>

0000484e <__sinit_lock_release>:
__sinit_lock_release():
    484e:	84418513          	addi	a0,gp,-1980 # 20000eec <__lock___sinit_recursive_mutex>
    4852:	aab5                	j	49ce <__retarget_lock_release_recursive>

00004854 <__sinit>:
__sinit():
    4854:	1141                	addi	sp,sp,-16
    4856:	c422                	sw	s0,8(sp)
    4858:	c606                	sw	ra,12(sp)
    485a:	842a                	mv	s0,a0
    485c:	37f5                	jal	4848 <__sinit_lock_acquire>
    485e:	4c1c                	lw	a5,24(s0)
    4860:	c789                	beqz	a5,486a <__sinit+0x16>
    4862:	4422                	lw	s0,8(sp)
    4864:	40b2                	lw	ra,12(sp)
    4866:	0141                	addi	sp,sp,16
    4868:	b7dd                	j	484e <__sinit_lock_release>
    486a:	00000797          	auipc	a5,0x0
    486e:	f8278793          	addi	a5,a5,-126 # 47ec <_cleanup_r>
    4872:	d41c                	sw	a5,40(s0)
    4874:	04042423          	sw	zero,72(s0)
    4878:	04042623          	sw	zero,76(s0)
    487c:	04042823          	sw	zero,80(s0)
    4880:	8101a783          	lw	a5,-2032(gp) # 20000eb8 <_global_impure_ptr>
    4884:	00879463          	bne	a5,s0,488c <__sinit+0x38>
    4888:	4785                	li	a5,1
    488a:	cc1c                	sw	a5,24(s0)
    488c:	8522                	mv	a0,s0
    488e:	203d                	jal	48bc <__sfp>
    4890:	c048                	sw	a0,4(s0)
    4892:	8522                	mv	a0,s0
    4894:	2025                	jal	48bc <__sfp>
    4896:	c408                	sw	a0,8(s0)
    4898:	8522                	mv	a0,s0
    489a:	200d                	jal	48bc <__sfp>
    489c:	c448                	sw	a0,12(s0)
    489e:	4048                	lw	a0,4(s0)
    48a0:	4601                	li	a2,0
    48a2:	4591                	li	a1,4
    48a4:	35cd                	jal	4786 <std>
    48a6:	4408                	lw	a0,8(s0)
    48a8:	4605                	li	a2,1
    48aa:	45a5                	li	a1,9
    48ac:	3de9                	jal	4786 <std>
    48ae:	4448                	lw	a0,12(s0)
    48b0:	4609                	li	a2,2
    48b2:	45c9                	li	a1,18
    48b4:	3dc9                	jal	4786 <std>
    48b6:	4785                	li	a5,1
    48b8:	cc1c                	sw	a5,24(s0)
    48ba:	b765                	j	4862 <__sinit+0xe>

000048bc <__sfp>:
__sfp():
    48bc:	1141                	addi	sp,sp,-16
    48be:	c226                	sw	s1,4(sp)
    48c0:	c04a                	sw	s2,0(sp)
    48c2:	c606                	sw	ra,12(sp)
    48c4:	c422                	sw	s0,8(sp)
    48c6:	892a                	mv	s2,a0
    48c8:	3f95                	jal	483c <__sfp_lock_acquire>
    48ca:	8101a483          	lw	s1,-2032(gp) # 20000eb8 <_global_impure_ptr>
    48ce:	4c9c                	lw	a5,24(s1)
    48d0:	e399                	bnez	a5,48d6 <__sfp+0x1a>
    48d2:	8526                	mv	a0,s1
    48d4:	3741                	jal	4854 <__sinit>
    48d6:	04848493          	addi	s1,s1,72
    48da:	4480                	lw	s0,8(s1)
    48dc:	40dc                	lw	a5,4(s1)
    48de:	17fd                	addi	a5,a5,-1
    48e0:	0007d663          	bgez	a5,48ec <__sfp+0x30>
    48e4:	409c                	lw	a5,0(s1)
    48e6:	c3bd                	beqz	a5,494c <__sfp+0x90>
    48e8:	4084                	lw	s1,0(s1)
    48ea:	bfc5                	j	48da <__sfp+0x1e>
    48ec:	00c41703          	lh	a4,12(s0)
    48f0:	eb39                	bnez	a4,4946 <__sfp+0x8a>
    48f2:	77c1                	lui	a5,0xffff0
    48f4:	0785                	addi	a5,a5,1 # ffff0001 <_eusrstack+0xdffed001>
    48f6:	c45c                	sw	a5,12(s0)
    48f8:	05840513          	addi	a0,s0,88
    48fc:	06042223          	sw	zero,100(s0)
    4900:	20e9                	jal	49ca <__retarget_lock_init_recursive>
    4902:	3781                	jal	4842 <__sfp_lock_release>
    4904:	4621                	li	a2,8
    4906:	00042023          	sw	zero,0(s0)
    490a:	00042423          	sw	zero,8(s0)
    490e:	00042223          	sw	zero,4(s0)
    4912:	00042823          	sw	zero,16(s0)
    4916:	00042a23          	sw	zero,20(s0)
    491a:	00042c23          	sw	zero,24(s0)
    491e:	4581                	li	a1,0
    4920:	05c40513          	addi	a0,s0,92
    4924:	de8fc0ef          	jal	ra,f0c <memset>
    4928:	02042a23          	sw	zero,52(s0)
    492c:	02042c23          	sw	zero,56(s0)
    4930:	04042423          	sw	zero,72(s0)
    4934:	04042623          	sw	zero,76(s0)
    4938:	40b2                	lw	ra,12(sp)
    493a:	8522                	mv	a0,s0
    493c:	4422                	lw	s0,8(sp)
    493e:	4492                	lw	s1,4(sp)
    4940:	4902                	lw	s2,0(sp)
    4942:	0141                	addi	sp,sp,16
    4944:	8082                	ret
    4946:	06840413          	addi	s0,s0,104
    494a:	bf51                	j	48de <__sfp+0x22>
    494c:	4591                	li	a1,4
    494e:	854a                	mv	a0,s2
    4950:	355d                	jal	47f6 <__sfmoreglue>
    4952:	c088                	sw	a0,0(s1)
    4954:	842a                	mv	s0,a0
    4956:	f949                	bnez	a0,48e8 <__sfp+0x2c>
    4958:	35ed                	jal	4842 <__sfp_lock_release>
    495a:	47b1                	li	a5,12
    495c:	00f92023          	sw	a5,0(s2)
    4960:	bfe1                	j	4938 <__sfp+0x7c>

00004962 <_fwalk_reent>:
_fwalk_reent():
    4962:	7179                	addi	sp,sp,-48
    4964:	d422                	sw	s0,40(sp)
    4966:	d04a                	sw	s2,32(sp)
    4968:	ce4e                	sw	s3,28(sp)
    496a:	cc52                	sw	s4,24(sp)
    496c:	c85a                	sw	s6,16(sp)
    496e:	c65e                	sw	s7,12(sp)
    4970:	d606                	sw	ra,44(sp)
    4972:	d226                	sw	s1,36(sp)
    4974:	ca56                	sw	s5,20(sp)
    4976:	892a                	mv	s2,a0
    4978:	8a2e                	mv	s4,a1
    497a:	04850413          	addi	s0,a0,72
    497e:	4981                	li	s3,0
    4980:	4b05                	li	s6,1
    4982:	5bfd                	li	s7,-1
    4984:	4404                	lw	s1,8(s0)
    4986:	00442a83          	lw	s5,4(s0)
    498a:	1afd                	addi	s5,s5,-1 # ffff <_data_lma+0xa077>
    498c:	020ad063          	bgez	s5,49ac <_fwalk_reent+0x4a>
    4990:	4000                	lw	s0,0(s0)
    4992:	f86d                	bnez	s0,4984 <_fwalk_reent+0x22>
    4994:	50b2                	lw	ra,44(sp)
    4996:	5422                	lw	s0,40(sp)
    4998:	5492                	lw	s1,36(sp)
    499a:	5902                	lw	s2,32(sp)
    499c:	4a62                	lw	s4,24(sp)
    499e:	4ad2                	lw	s5,20(sp)
    49a0:	4b42                	lw	s6,16(sp)
    49a2:	4bb2                	lw	s7,12(sp)
    49a4:	854e                	mv	a0,s3
    49a6:	49f2                	lw	s3,28(sp)
    49a8:	6145                	addi	sp,sp,48
    49aa:	8082                	ret
    49ac:	24de                	lhu	a5,12(s1)
    49ae:	00fb7b63          	bgeu	s6,a5,49c4 <_fwalk_reent+0x62>
    49b2:	00e49783          	lh	a5,14(s1)
    49b6:	01778763          	beq	a5,s7,49c4 <_fwalk_reent+0x62>
    49ba:	85a6                	mv	a1,s1
    49bc:	854a                	mv	a0,s2
    49be:	9a02                	jalr	s4
    49c0:	00a9e9b3          	or	s3,s3,a0
    49c4:	06848493          	addi	s1,s1,104
    49c8:	b7c9                	j	498a <_fwalk_reent+0x28>

000049ca <__retarget_lock_init_recursive>:
__retarget_lock_init_recursive():
    49ca:	8082                	ret

000049cc <__retarget_lock_acquire_recursive>:
__retarget_lock_acquire_recursive():
    49cc:	8082                	ret

000049ce <__retarget_lock_release_recursive>:
__retarget_lock_release_recursive():
    49ce:	8082                	ret

000049d0 <__swhatbuf_r>:
__swhatbuf_r():
    49d0:	7159                	addi	sp,sp,-112
    49d2:	d4a2                	sw	s0,104(sp)
    49d4:	842e                	mv	s0,a1
    49d6:	00e59583          	lh	a1,14(a1)
    49da:	d2a6                	sw	s1,100(sp)
    49dc:	d0ca                	sw	s2,96(sp)
    49de:	d686                	sw	ra,108(sp)
    49e0:	84b2                	mv	s1,a2
    49e2:	8936                	mv	s2,a3
    49e4:	0205d263          	bgez	a1,4a08 <__swhatbuf_r+0x38>
    49e8:	245e                	lhu	a5,12(s0)
    49ea:	0807f793          	andi	a5,a5,128
    49ee:	eb8d                	bnez	a5,4a20 <__swhatbuf_r+0x50>
    49f0:	40000713          	li	a4,1024
    49f4:	50b6                	lw	ra,108(sp)
    49f6:	5426                	lw	s0,104(sp)
    49f8:	00f92023          	sw	a5,0(s2)
    49fc:	c098                	sw	a4,0(s1)
    49fe:	5906                	lw	s2,96(sp)
    4a00:	5496                	lw	s1,100(sp)
    4a02:	4501                	li	a0,0
    4a04:	6165                	addi	sp,sp,112
    4a06:	8082                	ret
    4a08:	0030                	addi	a2,sp,8
    4a0a:	2df1                	jal	50e6 <_fstat_r>
    4a0c:	fc054ee3          	bltz	a0,49e8 <__swhatbuf_r+0x18>
    4a10:	4732                	lw	a4,12(sp)
    4a12:	67bd                	lui	a5,0xf
    4a14:	8ff9                	and	a5,a5,a4
    4a16:	7779                	lui	a4,0xffffe
    4a18:	97ba                	add	a5,a5,a4
    4a1a:	0017b793          	seqz	a5,a5
    4a1e:	bfc9                	j	49f0 <__swhatbuf_r+0x20>
    4a20:	4781                	li	a5,0
    4a22:	04000713          	li	a4,64
    4a26:	b7f9                	j	49f4 <__swhatbuf_r+0x24>

00004a28 <__smakebuf_r>:
__smakebuf_r():
    4a28:	25de                	lhu	a5,12(a1)
    4a2a:	7179                	addi	sp,sp,-48
    4a2c:	d422                	sw	s0,40(sp)
    4a2e:	d606                	sw	ra,44(sp)
    4a30:	d226                	sw	s1,36(sp)
    4a32:	d04a                	sw	s2,32(sp)
    4a34:	ce4e                	sw	s3,28(sp)
    4a36:	8b89                	andi	a5,a5,2
    4a38:	842e                	mv	s0,a1
    4a3a:	cf91                	beqz	a5,4a56 <__smakebuf_r+0x2e>
    4a3c:	04740793          	addi	a5,s0,71
    4a40:	c01c                	sw	a5,0(s0)
    4a42:	c81c                	sw	a5,16(s0)
    4a44:	4785                	li	a5,1
    4a46:	c85c                	sw	a5,20(s0)
    4a48:	50b2                	lw	ra,44(sp)
    4a4a:	5422                	lw	s0,40(sp)
    4a4c:	5492                	lw	s1,36(sp)
    4a4e:	5902                	lw	s2,32(sp)
    4a50:	49f2                	lw	s3,28(sp)
    4a52:	6145                	addi	sp,sp,48
    4a54:	8082                	ret
    4a56:	0074                	addi	a3,sp,12
    4a58:	0030                	addi	a2,sp,8
    4a5a:	84aa                	mv	s1,a0
    4a5c:	3f95                	jal	49d0 <__swhatbuf_r>
    4a5e:	49a2                	lw	s3,8(sp)
    4a60:	892a                	mv	s2,a0
    4a62:	8526                	mv	a0,s1
    4a64:	85ce                	mv	a1,s3
    4a66:	2299                	jal	4bac <_malloc_r>
    4a68:	e919                	bnez	a0,4a7e <__smakebuf_r+0x56>
    4a6a:	00c41783          	lh	a5,12(s0)
    4a6e:	2007f713          	andi	a4,a5,512
    4a72:	fb79                	bnez	a4,4a48 <__smakebuf_r+0x20>
    4a74:	9bf1                	andi	a5,a5,-4
    4a76:	0027e793          	ori	a5,a5,2
    4a7a:	a45e                	sh	a5,12(s0)
    4a7c:	b7c1                	j	4a3c <__smakebuf_r+0x14>
    4a7e:	00000797          	auipc	a5,0x0
    4a82:	d6e78793          	addi	a5,a5,-658 # 47ec <_cleanup_r>
    4a86:	d49c                	sw	a5,40(s1)
    4a88:	245e                	lhu	a5,12(s0)
    4a8a:	c008                	sw	a0,0(s0)
    4a8c:	c808                	sw	a0,16(s0)
    4a8e:	0807e793          	ori	a5,a5,128
    4a92:	a45e                	sh	a5,12(s0)
    4a94:	47b2                	lw	a5,12(sp)
    4a96:	01342a23          	sw	s3,20(s0)
    4a9a:	cb99                	beqz	a5,4ab0 <__smakebuf_r+0x88>
    4a9c:	00e41583          	lh	a1,14(s0)
    4aa0:	8526                	mv	a0,s1
    4aa2:	25b5                	jal	510e <_isatty_r>
    4aa4:	c511                	beqz	a0,4ab0 <__smakebuf_r+0x88>
    4aa6:	245e                	lhu	a5,12(s0)
    4aa8:	9bf1                	andi	a5,a5,-4
    4aaa:	0017e793          	ori	a5,a5,1
    4aae:	a45e                	sh	a5,12(s0)
    4ab0:	245e                	lhu	a5,12(s0)
    4ab2:	0127e533          	or	a0,a5,s2
    4ab6:	a44a                	sh	a0,12(s0)
    4ab8:	bf41                	j	4a48 <__smakebuf_r+0x20>

00004aba <_free_r>:
_free_r():
    4aba:	cdd1                	beqz	a1,4b56 <_free_r+0x9c>
    4abc:	ffc5a783          	lw	a5,-4(a1)
    4ac0:	1101                	addi	sp,sp,-32
    4ac2:	cc22                	sw	s0,24(sp)
    4ac4:	ce06                	sw	ra,28(sp)
    4ac6:	ffc58413          	addi	s0,a1,-4
    4aca:	0007d363          	bgez	a5,4ad0 <_free_r+0x16>
    4ace:	943e                	add	s0,s0,a5
    4ad0:	c62a                	sw	a0,12(sp)
    4ad2:	2555                	jal	5176 <__malloc_lock>
    4ad4:	84c18713          	addi	a4,gp,-1972 # 20000ef4 <__malloc_free_list>
    4ad8:	431c                	lw	a5,0(a4)
    4ada:	4532                	lw	a0,12(sp)
    4adc:	eb81                	bnez	a5,4aec <_free_r+0x32>
    4ade:	00042223          	sw	zero,4(s0)
    4ae2:	c300                	sw	s0,0(a4)
    4ae4:	4462                	lw	s0,24(sp)
    4ae6:	40f2                	lw	ra,28(sp)
    4ae8:	6105                	addi	sp,sp,32
    4aea:	ad51                	j	517e <__malloc_unlock>
    4aec:	00f47d63          	bgeu	s0,a5,4b06 <_free_r+0x4c>
    4af0:	4010                	lw	a2,0(s0)
    4af2:	00c406b3          	add	a3,s0,a2
    4af6:	00d79663          	bne	a5,a3,4b02 <_free_r+0x48>
    4afa:	4394                	lw	a3,0(a5)
    4afc:	43dc                	lw	a5,4(a5)
    4afe:	96b2                	add	a3,a3,a2
    4b00:	c014                	sw	a3,0(s0)
    4b02:	c05c                	sw	a5,4(s0)
    4b04:	bff9                	j	4ae2 <_free_r+0x28>
    4b06:	873e                	mv	a4,a5
    4b08:	43dc                	lw	a5,4(a5)
    4b0a:	c399                	beqz	a5,4b10 <_free_r+0x56>
    4b0c:	fef47de3          	bgeu	s0,a5,4b06 <_free_r+0x4c>
    4b10:	4314                	lw	a3,0(a4)
    4b12:	00d70633          	add	a2,a4,a3
    4b16:	00861f63          	bne	a2,s0,4b34 <_free_r+0x7a>
    4b1a:	4010                	lw	a2,0(s0)
    4b1c:	96b2                	add	a3,a3,a2
    4b1e:	c314                	sw	a3,0(a4)
    4b20:	00d70633          	add	a2,a4,a3
    4b24:	fcc790e3          	bne	a5,a2,4ae4 <_free_r+0x2a>
    4b28:	4390                	lw	a2,0(a5)
    4b2a:	43dc                	lw	a5,4(a5)
    4b2c:	96b2                	add	a3,a3,a2
    4b2e:	c314                	sw	a3,0(a4)
    4b30:	c35c                	sw	a5,4(a4)
    4b32:	bf4d                	j	4ae4 <_free_r+0x2a>
    4b34:	00c47563          	bgeu	s0,a2,4b3e <_free_r+0x84>
    4b38:	47b1                	li	a5,12
    4b3a:	c11c                	sw	a5,0(a0)
    4b3c:	b765                	j	4ae4 <_free_r+0x2a>
    4b3e:	4010                	lw	a2,0(s0)
    4b40:	00c406b3          	add	a3,s0,a2
    4b44:	00d79663          	bne	a5,a3,4b50 <_free_r+0x96>
    4b48:	4394                	lw	a3,0(a5)
    4b4a:	43dc                	lw	a5,4(a5)
    4b4c:	96b2                	add	a3,a3,a2
    4b4e:	c014                	sw	a3,0(s0)
    4b50:	c05c                	sw	a5,4(s0)
    4b52:	c340                	sw	s0,4(a4)
    4b54:	bf41                	j	4ae4 <_free_r+0x2a>
    4b56:	8082                	ret

00004b58 <sbrk_aligned>:
sbrk_aligned():
    4b58:	1141                	addi	sp,sp,-16
    4b5a:	c04a                	sw	s2,0(sp)
    4b5c:	84818913          	addi	s2,gp,-1976 # 20000ef0 <__malloc_sbrk_start>
    4b60:	00092783          	lw	a5,0(s2)
    4b64:	c422                	sw	s0,8(sp)
    4b66:	c226                	sw	s1,4(sp)
    4b68:	c606                	sw	ra,12(sp)
    4b6a:	84aa                	mv	s1,a0
    4b6c:	842e                	mv	s0,a1
    4b6e:	e789                	bnez	a5,4b78 <sbrk_aligned+0x20>
    4b70:	4581                	li	a1,0
    4b72:	2999                	jal	4fc8 <_sbrk_r>
    4b74:	00a92023          	sw	a0,0(s2)
    4b78:	85a2                	mv	a1,s0
    4b7a:	8526                	mv	a0,s1
    4b7c:	21b1                	jal	4fc8 <_sbrk_r>
    4b7e:	597d                	li	s2,-1
    4b80:	01251a63          	bne	a0,s2,4b94 <sbrk_aligned+0x3c>
    4b84:	547d                	li	s0,-1
    4b86:	40b2                	lw	ra,12(sp)
    4b88:	8522                	mv	a0,s0
    4b8a:	4422                	lw	s0,8(sp)
    4b8c:	4492                	lw	s1,4(sp)
    4b8e:	4902                	lw	s2,0(sp)
    4b90:	0141                	addi	sp,sp,16
    4b92:	8082                	ret
    4b94:	00350413          	addi	s0,a0,3
    4b98:	9871                	andi	s0,s0,-4
    4b9a:	fe8506e3          	beq	a0,s0,4b86 <sbrk_aligned+0x2e>
    4b9e:	40a405b3          	sub	a1,s0,a0
    4ba2:	8526                	mv	a0,s1
    4ba4:	2115                	jal	4fc8 <_sbrk_r>
    4ba6:	ff2510e3          	bne	a0,s2,4b86 <sbrk_aligned+0x2e>
    4baa:	bfe9                	j	4b84 <sbrk_aligned+0x2c>

00004bac <_malloc_r>:
_malloc_r():
    4bac:	1101                	addi	sp,sp,-32
    4bae:	ca26                	sw	s1,20(sp)
    4bb0:	00358493          	addi	s1,a1,3
    4bb4:	98f1                	andi	s1,s1,-4
    4bb6:	c84a                	sw	s2,16(sp)
    4bb8:	04a1                	addi	s1,s1,8
    4bba:	47b1                	li	a5,12
    4bbc:	ce06                	sw	ra,28(sp)
    4bbe:	cc22                	sw	s0,24(sp)
    4bc0:	c64e                	sw	s3,12(sp)
    4bc2:	892a                	mv	s2,a0
    4bc4:	0af4f4b3          	maxu	s1,s1,a5
    4bc8:	0004c463          	bltz	s1,4bd0 <_malloc_r+0x24>
    4bcc:	00b4fd63          	bgeu	s1,a1,4be6 <_malloc_r+0x3a>
    4bd0:	47b1                	li	a5,12
    4bd2:	00f92023          	sw	a5,0(s2)
    4bd6:	4501                	li	a0,0
    4bd8:	40f2                	lw	ra,28(sp)
    4bda:	4462                	lw	s0,24(sp)
    4bdc:	44d2                	lw	s1,20(sp)
    4bde:	4942                	lw	s2,16(sp)
    4be0:	49b2                	lw	s3,12(sp)
    4be2:	6105                	addi	sp,sp,32
    4be4:	8082                	ret
    4be6:	2b41                	jal	5176 <__malloc_lock>
    4be8:	84c18993          	addi	s3,gp,-1972 # 20000ef4 <__malloc_free_list>
    4bec:	0009a783          	lw	a5,0(s3)
    4bf0:	843e                	mv	s0,a5
    4bf2:	e431                	bnez	s0,4c3e <_malloc_r+0x92>
    4bf4:	85a6                	mv	a1,s1
    4bf6:	854a                	mv	a0,s2
    4bf8:	3785                	jal	4b58 <sbrk_aligned>
    4bfa:	57fd                	li	a5,-1
    4bfc:	842a                	mv	s0,a0
    4bfe:	0af51663          	bne	a0,a5,4caa <_malloc_r+0xfe>
    4c02:	0009a403          	lw	s0,0(s3)
    4c06:	87a2                	mv	a5,s0
    4c08:	ebc1                	bnez	a5,4c98 <_malloc_r+0xec>
    4c0a:	00042983          	lw	s3,0(s0)
    4c0e:	4581                	li	a1,0
    4c10:	854a                	mv	a0,s2
    4c12:	99a2                	add	s3,s3,s0
    4c14:	2e55                	jal	4fc8 <_sbrk_r>
    4c16:	08a99463          	bne	s3,a0,4c9e <_malloc_r+0xf2>
    4c1a:	401c                	lw	a5,0(s0)
    4c1c:	048d                	addi	s1,s1,3
    4c1e:	854a                	mv	a0,s2
    4c20:	8c9d                	sub	s1,s1,a5
    4c22:	98f1                	andi	s1,s1,-4
    4c24:	47b1                	li	a5,12
    4c26:	04a1                	addi	s1,s1,8
    4c28:	0af4f4b3          	maxu	s1,s1,a5
    4c2c:	85a6                	mv	a1,s1
    4c2e:	372d                	jal	4b58 <sbrk_aligned>
    4c30:	57fd                	li	a5,-1
    4c32:	06f50663          	beq	a0,a5,4c9e <_malloc_r+0xf2>
    4c36:	401c                	lw	a5,0(s0)
    4c38:	97a6                	add	a5,a5,s1
    4c3a:	c01c                	sw	a5,0(s0)
    4c3c:	a015                	j	4c60 <_malloc_r+0xb4>
    4c3e:	4014                	lw	a3,0(s0)
    4c40:	8e85                	sub	a3,a3,s1
    4c42:	0406c863          	bltz	a3,4c92 <_malloc_r+0xe6>
    4c46:	472d                	li	a4,11
    4c48:	02d77d63          	bgeu	a4,a3,4c82 <_malloc_r+0xd6>
    4c4c:	c004                	sw	s1,0(s0)
    4c4e:	00940733          	add	a4,s0,s1
    4c52:	02879663          	bne	a5,s0,4c7e <_malloc_r+0xd2>
    4c56:	00e9a023          	sw	a4,0(s3)
    4c5a:	405c                	lw	a5,4(s0)
    4c5c:	c314                	sw	a3,0(a4)
    4c5e:	c35c                	sw	a5,4(a4)
    4c60:	854a                	mv	a0,s2
    4c62:	2b31                	jal	517e <__malloc_unlock>
    4c64:	00b40513          	addi	a0,s0,11
    4c68:	00440793          	addi	a5,s0,4
    4c6c:	9961                	andi	a0,a0,-8
    4c6e:	40f50733          	sub	a4,a0,a5
    4c72:	f6f503e3          	beq	a0,a5,4bd8 <_malloc_r+0x2c>
    4c76:	943a                	add	s0,s0,a4
    4c78:	8f89                	sub	a5,a5,a0
    4c7a:	c01c                	sw	a5,0(s0)
    4c7c:	bfb1                	j	4bd8 <_malloc_r+0x2c>
    4c7e:	c3d8                	sw	a4,4(a5)
    4c80:	bfe9                	j	4c5a <_malloc_r+0xae>
    4c82:	4058                	lw	a4,4(s0)
    4c84:	00879563          	bne	a5,s0,4c8e <_malloc_r+0xe2>
    4c88:	00e9a023          	sw	a4,0(s3)
    4c8c:	bfd1                	j	4c60 <_malloc_r+0xb4>
    4c8e:	c3d8                	sw	a4,4(a5)
    4c90:	bfc1                	j	4c60 <_malloc_r+0xb4>
    4c92:	87a2                	mv	a5,s0
    4c94:	4040                	lw	s0,4(s0)
    4c96:	bfb1                	j	4bf2 <_malloc_r+0x46>
    4c98:	843e                	mv	s0,a5
    4c9a:	43dc                	lw	a5,4(a5)
    4c9c:	b7b5                	j	4c08 <_malloc_r+0x5c>
    4c9e:	47b1                	li	a5,12
    4ca0:	00f92023          	sw	a5,0(s2)
    4ca4:	854a                	mv	a0,s2
    4ca6:	29e1                	jal	517e <__malloc_unlock>
    4ca8:	b73d                	j	4bd6 <_malloc_r+0x2a>
    4caa:	c104                	sw	s1,0(a0)
    4cac:	bf55                	j	4c60 <_malloc_r+0xb4>

00004cae <__sfputc_r>:
__sfputc_r():
    4cae:	461c                	lw	a5,8(a2)
    4cb0:	17fd                	addi	a5,a5,-1
    4cb2:	c61c                	sw	a5,8(a2)
    4cb4:	0007da63          	bgez	a5,4cc8 <__sfputc_r+0x1a>
    4cb8:	4e18                	lw	a4,24(a2)
    4cba:	00e7c563          	blt	a5,a4,4cc4 <__sfputc_r+0x16>
    4cbe:	47a9                	li	a5,10
    4cc0:	00f59463          	bne	a1,a5,4cc8 <__sfputc_r+0x1a>
    4cc4:	f60ff06f          	j	4424 <__swbuf_r>
    4cc8:	421c                	lw	a5,0(a2)
    4cca:	852e                	mv	a0,a1
    4ccc:	00178713          	addi	a4,a5,1
    4cd0:	c218                	sw	a4,0(a2)
    4cd2:	a38c                	sb	a1,0(a5)
    4cd4:	8082                	ret

00004cd6 <__sfputs_r>:
__sfputs_r():
    4cd6:	1101                	addi	sp,sp,-32
    4cd8:	cc22                	sw	s0,24(sp)
    4cda:	ca26                	sw	s1,20(sp)
    4cdc:	c84a                	sw	s2,16(sp)
    4cde:	c64e                	sw	s3,12(sp)
    4ce0:	c452                	sw	s4,8(sp)
    4ce2:	ce06                	sw	ra,28(sp)
    4ce4:	892a                	mv	s2,a0
    4ce6:	89ae                	mv	s3,a1
    4ce8:	8432                	mv	s0,a2
    4cea:	00d604b3          	add	s1,a2,a3
    4cee:	5a7d                	li	s4,-1
    4cf0:	00941463          	bne	s0,s1,4cf8 <__sfputs_r+0x22>
    4cf4:	4501                	li	a0,0
    4cf6:	a801                	j	4d06 <__sfputs_r+0x30>
    4cf8:	200c                	lbu	a1,0(s0)
    4cfa:	864e                	mv	a2,s3
    4cfc:	854a                	mv	a0,s2
    4cfe:	3f45                	jal	4cae <__sfputc_r>
    4d00:	0405                	addi	s0,s0,1
    4d02:	ff4517e3          	bne	a0,s4,4cf0 <__sfputs_r+0x1a>
    4d06:	40f2                	lw	ra,28(sp)
    4d08:	4462                	lw	s0,24(sp)
    4d0a:	44d2                	lw	s1,20(sp)
    4d0c:	4942                	lw	s2,16(sp)
    4d0e:	49b2                	lw	s3,12(sp)
    4d10:	4a22                	lw	s4,8(sp)
    4d12:	6105                	addi	sp,sp,32
    4d14:	8082                	ret

00004d16 <_vfiprintf_r>:
_vfiprintf_r():
    4d16:	7135                	addi	sp,sp,-160
    4d18:	cd22                	sw	s0,152(sp)
    4d1a:	cb26                	sw	s1,148(sp)
    4d1c:	c94a                	sw	s2,144(sp)
    4d1e:	c74e                	sw	s3,140(sp)
    4d20:	cf06                	sw	ra,156(sp)
    4d22:	c552                	sw	s4,136(sp)
    4d24:	c356                	sw	s5,132(sp)
    4d26:	c15a                	sw	s6,128(sp)
    4d28:	dede                	sw	s7,124(sp)
    4d2a:	dce2                	sw	s8,120(sp)
    4d2c:	89aa                	mv	s3,a0
    4d2e:	842e                	mv	s0,a1
    4d30:	8932                	mv	s2,a2
    4d32:	84b6                	mv	s1,a3
    4d34:	c509                	beqz	a0,4d3e <_vfiprintf_r+0x28>
    4d36:	4d1c                	lw	a5,24(a0)
    4d38:	e399                	bnez	a5,4d3e <_vfiprintf_r+0x28>
    4d3a:	b1bff0ef          	jal	ra,4854 <__sinit>
    4d3e:	00001797          	auipc	a5,0x1
    4d42:	a8678793          	addi	a5,a5,-1402 # 57c4 <__sf_fake_stdin>
    4d46:	04f41763          	bne	s0,a5,4d94 <_vfiprintf_r+0x7e>
    4d4a:	0049a403          	lw	s0,4(s3)
    4d4e:	507c                	lw	a5,100(s0)
    4d50:	8b85                	andi	a5,a5,1
    4d52:	e799                	bnez	a5,4d60 <_vfiprintf_r+0x4a>
    4d54:	245e                	lhu	a5,12(s0)
    4d56:	2007f793          	andi	a5,a5,512
    4d5a:	e399                	bnez	a5,4d60 <_vfiprintf_r+0x4a>
    4d5c:	4c28                	lw	a0,88(s0)
    4d5e:	31bd                	jal	49cc <__retarget_lock_acquire_recursive>
    4d60:	245e                	lhu	a5,12(s0)
    4d62:	8ba1                	andi	a5,a5,8
    4d64:	c399                	beqz	a5,4d6a <_vfiprintf_r+0x54>
    4d66:	481c                	lw	a5,16(s0)
    4d68:	efb9                	bnez	a5,4dc6 <_vfiprintf_r+0xb0>
    4d6a:	85a2                	mv	a1,s0
    4d6c:	854e                	mv	a0,s3
    4d6e:	f72ff0ef          	jal	ra,44e0 <__swsetup_r>
    4d72:	c931                	beqz	a0,4dc6 <_vfiprintf_r+0xb0>
    4d74:	507c                	lw	a5,100(s0)
    4d76:	8b85                	andi	a5,a5,1
    4d78:	c3a1                	beqz	a5,4db8 <_vfiprintf_r+0xa2>
    4d7a:	557d                	li	a0,-1
    4d7c:	40fa                	lw	ra,156(sp)
    4d7e:	446a                	lw	s0,152(sp)
    4d80:	44da                	lw	s1,148(sp)
    4d82:	494a                	lw	s2,144(sp)
    4d84:	49ba                	lw	s3,140(sp)
    4d86:	4a2a                	lw	s4,136(sp)
    4d88:	4a9a                	lw	s5,132(sp)
    4d8a:	4b0a                	lw	s6,128(sp)
    4d8c:	5bf6                	lw	s7,124(sp)
    4d8e:	5c66                	lw	s8,120(sp)
    4d90:	610d                	addi	sp,sp,160
    4d92:	8082                	ret
    4d94:	00001797          	auipc	a5,0x1
    4d98:	a1078793          	addi	a5,a5,-1520 # 57a4 <__sf_fake_stdout>
    4d9c:	00f41563          	bne	s0,a5,4da6 <_vfiprintf_r+0x90>
    4da0:	0089a403          	lw	s0,8(s3)
    4da4:	b76d                	j	4d4e <_vfiprintf_r+0x38>
    4da6:	00001797          	auipc	a5,0x1
    4daa:	9de78793          	addi	a5,a5,-1570 # 5784 <__sf_fake_stderr>
    4dae:	faf410e3          	bne	s0,a5,4d4e <_vfiprintf_r+0x38>
    4db2:	00c9a403          	lw	s0,12(s3)
    4db6:	bf61                	j	4d4e <_vfiprintf_r+0x38>
    4db8:	245e                	lhu	a5,12(s0)
    4dba:	2007f793          	andi	a5,a5,512
    4dbe:	ffd5                	bnez	a5,4d7a <_vfiprintf_r+0x64>
    4dc0:	4c28                	lw	a0,88(s0)
    4dc2:	3131                	jal	49ce <__retarget_lock_release_recursive>
    4dc4:	bf5d                	j	4d7a <_vfiprintf_r+0x64>
    4dc6:	02000793          	li	a5,32
    4dca:	02f104a3          	sb	a5,41(sp)
    4dce:	03000793          	li	a5,48
    4dd2:	d202                	sw	zero,36(sp)
    4dd4:	02f10523          	sb	a5,42(sp)
    4dd8:	c626                	sw	s1,12(sp)
    4dda:	02500b93          	li	s7,37
    4dde:	00001a97          	auipc	s5,0x1
    4de2:	a06a8a93          	addi	s5,s5,-1530 # 57e4 <__sf_fake_stdin+0x20>
    4de6:	4b29                	li	s6,10
    4de8:	84ca                	mv	s1,s2
    4dea:	209c                	lbu	a5,0(s1)
    4dec:	c399                	beqz	a5,4df2 <_vfiprintf_r+0xdc>
    4dee:	09779963          	bne	a5,s7,4e80 <_vfiprintf_r+0x16a>
    4df2:	41248c33          	sub	s8,s1,s2
    4df6:	01248d63          	beq	s1,s2,4e10 <_vfiprintf_r+0xfa>
    4dfa:	86e2                	mv	a3,s8
    4dfc:	864a                	mv	a2,s2
    4dfe:	85a2                	mv	a1,s0
    4e00:	854e                	mv	a0,s3
    4e02:	3dd1                	jal	4cd6 <__sfputs_r>
    4e04:	57fd                	li	a5,-1
    4e06:	18f50663          	beq	a0,a5,4f92 <_vfiprintf_r+0x27c>
    4e0a:	5792                	lw	a5,36(sp)
    4e0c:	97e2                	add	a5,a5,s8
    4e0e:	d23e                	sw	a5,36(sp)
    4e10:	209c                	lbu	a5,0(s1)
    4e12:	18078063          	beqz	a5,4f92 <_vfiprintf_r+0x27c>
    4e16:	57fd                	li	a5,-1
    4e18:	00148913          	addi	s2,s1,1
    4e1c:	c802                	sw	zero,16(sp)
    4e1e:	ce02                	sw	zero,28(sp)
    4e20:	ca3e                	sw	a5,20(sp)
    4e22:	cc02                	sw	zero,24(sp)
    4e24:	040109a3          	sb	zero,83(sp)
    4e28:	d482                	sw	zero,104(sp)
    4e2a:	00094583          	lbu	a1,0(s2)
    4e2e:	4615                	li	a2,5
    4e30:	8556                	mv	a0,s5
    4e32:	2635                	jal	515e <memchr>
    4e34:	47c2                	lw	a5,16(sp)
    4e36:	00190493          	addi	s1,s2,1
    4e3a:	e529                	bnez	a0,4e84 <_vfiprintf_r+0x16e>
    4e3c:	0107f713          	andi	a4,a5,16
    4e40:	c709                	beqz	a4,4e4a <_vfiprintf_r+0x134>
    4e42:	02000713          	li	a4,32
    4e46:	04e109a3          	sb	a4,83(sp)
    4e4a:	0087f713          	andi	a4,a5,8
    4e4e:	c709                	beqz	a4,4e58 <_vfiprintf_r+0x142>
    4e50:	02b00713          	li	a4,43
    4e54:	04e109a3          	sb	a4,83(sp)
    4e58:	00094683          	lbu	a3,0(s2)
    4e5c:	02a00713          	li	a4,42
    4e60:	02e68963          	beq	a3,a4,4e92 <_vfiprintf_r+0x17c>
    4e64:	47f2                	lw	a5,28(sp)
    4e66:	84ca                	mv	s1,s2
    4e68:	4681                	li	a3,0
    4e6a:	4625                	li	a2,9
    4e6c:	2098                	lbu	a4,0(s1)
    4e6e:	00148593          	addi	a1,s1,1
    4e72:	fd070713          	addi	a4,a4,-48 # ffffdfd0 <_eusrstack+0xdfffafd0>
    4e76:	06e67263          	bgeu	a2,a4,4eda <_vfiprintf_r+0x1c4>
    4e7a:	c685                	beqz	a3,4ea2 <_vfiprintf_r+0x18c>
    4e7c:	ce3e                	sw	a5,28(sp)
    4e7e:	a015                	j	4ea2 <_vfiprintf_r+0x18c>
    4e80:	0485                	addi	s1,s1,1
    4e82:	b7a5                	j	4dea <_vfiprintf_r+0xd4>
    4e84:	41550533          	sub	a0,a0,s5
    4e88:	28a797b3          	bset	a5,a5,a0
    4e8c:	8926                	mv	s2,s1
    4e8e:	c83e                	sw	a5,16(sp)
    4e90:	bf69                	j	4e2a <_vfiprintf_r+0x114>
    4e92:	4732                	lw	a4,12(sp)
    4e94:	00470693          	addi	a3,a4,4
    4e98:	4318                	lw	a4,0(a4)
    4e9a:	c636                	sw	a3,12(sp)
    4e9c:	02074863          	bltz	a4,4ecc <_vfiprintf_r+0x1b6>
    4ea0:	ce3a                	sw	a4,28(sp)
    4ea2:	2098                	lbu	a4,0(s1)
    4ea4:	02e00793          	li	a5,46
    4ea8:	04f71c63          	bne	a4,a5,4f00 <_vfiprintf_r+0x1ea>
    4eac:	3098                	lbu	a4,1(s1)
    4eae:	02a00793          	li	a5,42
    4eb2:	02f71a63          	bne	a4,a5,4ee6 <_vfiprintf_r+0x1d0>
    4eb6:	47b2                	lw	a5,12(sp)
    4eb8:	0489                	addi	s1,s1,2
    4eba:	00478713          	addi	a4,a5,4
    4ebe:	439c                	lw	a5,0(a5)
    4ec0:	c63a                	sw	a4,12(sp)
    4ec2:	577d                	li	a4,-1
    4ec4:	0ae7e7b3          	max	a5,a5,a4
    4ec8:	ca3e                	sw	a5,20(sp)
    4eca:	a81d                	j	4f00 <_vfiprintf_r+0x1ea>
    4ecc:	40e00733          	neg	a4,a4
    4ed0:	0027e793          	ori	a5,a5,2
    4ed4:	ce3a                	sw	a4,28(sp)
    4ed6:	c83e                	sw	a5,16(sp)
    4ed8:	b7e9                	j	4ea2 <_vfiprintf_r+0x18c>
    4eda:	036787b3          	mul	a5,a5,s6
    4ede:	84ae                	mv	s1,a1
    4ee0:	4685                	li	a3,1
    4ee2:	97ba                	add	a5,a5,a4
    4ee4:	b761                	j	4e6c <_vfiprintf_r+0x156>
    4ee6:	0485                	addi	s1,s1,1
    4ee8:	ca02                	sw	zero,20(sp)
    4eea:	4681                	li	a3,0
    4eec:	4781                	li	a5,0
    4eee:	4625                	li	a2,9
    4ef0:	2098                	lbu	a4,0(s1)
    4ef2:	00148593          	addi	a1,s1,1
    4ef6:	fd070713          	addi	a4,a4,-48
    4efa:	06e67263          	bgeu	a2,a4,4f5e <_vfiprintf_r+0x248>
    4efe:	f6e9                	bnez	a3,4ec8 <_vfiprintf_r+0x1b2>
    4f00:	208c                	lbu	a1,0(s1)
    4f02:	460d                	li	a2,3
    4f04:	00001517          	auipc	a0,0x1
    4f08:	8e850513          	addi	a0,a0,-1816 # 57ec <__sf_fake_stdin+0x28>
    4f0c:	2c89                	jal	515e <memchr>
    4f0e:	cd11                	beqz	a0,4f2a <_vfiprintf_r+0x214>
    4f10:	00001797          	auipc	a5,0x1
    4f14:	8dc78793          	addi	a5,a5,-1828 # 57ec <__sf_fake_stdin+0x28>
    4f18:	8d1d                	sub	a0,a0,a5
    4f1a:	47c2                	lw	a5,16(sp)
    4f1c:	04000713          	li	a4,64
    4f20:	00a71733          	sll	a4,a4,a0
    4f24:	8fd9                	or	a5,a5,a4
    4f26:	0485                	addi	s1,s1,1
    4f28:	c83e                	sw	a5,16(sp)
    4f2a:	208c                	lbu	a1,0(s1)
    4f2c:	4619                	li	a2,6
    4f2e:	00001517          	auipc	a0,0x1
    4f32:	8c250513          	addi	a0,a0,-1854 # 57f0 <__sf_fake_stdin+0x2c>
    4f36:	00148913          	addi	s2,s1,1
    4f3a:	02b10423          	sb	a1,40(sp)
    4f3e:	2405                	jal	515e <memchr>
    4f40:	c935                	beqz	a0,4fb4 <_vfiprintf_r+0x29e>
    4f42:	00000793          	li	a5,0
    4f46:	e795                	bnez	a5,4f72 <_vfiprintf_r+0x25c>
    4f48:	4742                	lw	a4,16(sp)
    4f4a:	47b2                	lw	a5,12(sp)
    4f4c:	10077713          	andi	a4,a4,256
    4f50:	cf09                	beqz	a4,4f6a <_vfiprintf_r+0x254>
    4f52:	0791                	addi	a5,a5,4
    4f54:	c63e                	sw	a5,12(sp)
    4f56:	5792                	lw	a5,36(sp)
    4f58:	97d2                	add	a5,a5,s4
    4f5a:	d23e                	sw	a5,36(sp)
    4f5c:	b571                	j	4de8 <_vfiprintf_r+0xd2>
    4f5e:	036787b3          	mul	a5,a5,s6
    4f62:	84ae                	mv	s1,a1
    4f64:	4685                	li	a3,1
    4f66:	97ba                	add	a5,a5,a4
    4f68:	b761                	j	4ef0 <_vfiprintf_r+0x1da>
    4f6a:	079d                	addi	a5,a5,7
    4f6c:	9be1                	andi	a5,a5,-8
    4f6e:	07a1                	addi	a5,a5,8
    4f70:	b7d5                	j	4f54 <_vfiprintf_r+0x23e>
    4f72:	0078                	addi	a4,sp,12
    4f74:	00000697          	auipc	a3,0x0
    4f78:	d6268693          	addi	a3,a3,-670 # 4cd6 <__sfputs_r>
    4f7c:	8622                	mv	a2,s0
    4f7e:	080c                	addi	a1,sp,16
    4f80:	854e                	mv	a0,s3
    4f82:	00000097          	auipc	ra,0x0
    4f86:	000000e7          	jalr	zero # 0 <_sinit>
    4f8a:	57fd                	li	a5,-1
    4f8c:	8a2a                	mv	s4,a0
    4f8e:	fcf514e3          	bne	a0,a5,4f56 <_vfiprintf_r+0x240>
    4f92:	507c                	lw	a5,100(s0)
    4f94:	8b85                	andi	a5,a5,1
    4f96:	eb81                	bnez	a5,4fa6 <_vfiprintf_r+0x290>
    4f98:	245e                	lhu	a5,12(s0)
    4f9a:	2007f793          	andi	a5,a5,512
    4f9e:	e781                	bnez	a5,4fa6 <_vfiprintf_r+0x290>
    4fa0:	4c28                	lw	a0,88(s0)
    4fa2:	a2dff0ef          	jal	ra,49ce <__retarget_lock_release_recursive>
    4fa6:	245e                	lhu	a5,12(s0)
    4fa8:	0407f793          	andi	a5,a5,64
    4fac:	dc0797e3          	bnez	a5,4d7a <_vfiprintf_r+0x64>
    4fb0:	5512                	lw	a0,36(sp)
    4fb2:	b3e9                	j	4d7c <_vfiprintf_r+0x66>
    4fb4:	0078                	addi	a4,sp,12
    4fb6:	00000697          	auipc	a3,0x0
    4fba:	d2068693          	addi	a3,a3,-736 # 4cd6 <__sfputs_r>
    4fbe:	8622                	mv	a2,s0
    4fc0:	080c                	addi	a1,sp,16
    4fc2:	854e                	mv	a0,s3
    4fc4:	24f1                	jal	5290 <_printf_i>
    4fc6:	b7d1                	j	4f8a <_vfiprintf_r+0x274>

00004fc8 <_sbrk_r>:
_sbrk_r():
    4fc8:	1141                	addi	sp,sp,-16
    4fca:	c422                	sw	s0,8(sp)
    4fcc:	842a                	mv	s0,a0
    4fce:	852e                	mv	a0,a1
    4fd0:	8401a823          	sw	zero,-1968(gp) # 20000ef8 <errno>
    4fd4:	c606                	sw	ra,12(sp)
    4fd6:	b80fc0ef          	jal	ra,1356 <_sbrk>
    4fda:	57fd                	li	a5,-1
    4fdc:	00f51663          	bne	a0,a5,4fe8 <_sbrk_r+0x20>
    4fe0:	8501a783          	lw	a5,-1968(gp) # 20000ef8 <errno>
    4fe4:	c391                	beqz	a5,4fe8 <_sbrk_r+0x20>
    4fe6:	c01c                	sw	a5,0(s0)
    4fe8:	40b2                	lw	ra,12(sp)
    4fea:	4422                	lw	s0,8(sp)
    4fec:	0141                	addi	sp,sp,16
    4fee:	8082                	ret

00004ff0 <__sread>:
__sread():
    4ff0:	1141                	addi	sp,sp,-16
    4ff2:	c422                	sw	s0,8(sp)
    4ff4:	842e                	mv	s0,a1
    4ff6:	00e59583          	lh	a1,14(a1)
    4ffa:	c606                	sw	ra,12(sp)
    4ffc:	2331                	jal	5508 <_read_r>
    4ffe:	00054963          	bltz	a0,5010 <__sread+0x20>
    5002:	487c                	lw	a5,84(s0)
    5004:	97aa                	add	a5,a5,a0
    5006:	c87c                	sw	a5,84(s0)
    5008:	40b2                	lw	ra,12(sp)
    500a:	4422                	lw	s0,8(sp)
    500c:	0141                	addi	sp,sp,16
    500e:	8082                	ret
    5010:	245e                	lhu	a5,12(s0)
    5012:	48c79793          	bclri	a5,a5,0xc
    5016:	a45e                	sh	a5,12(s0)
    5018:	bfc5                	j	5008 <__sread+0x18>

0000501a <__swrite>:
__swrite():
    501a:	25de                	lhu	a5,12(a1)
    501c:	1101                	addi	sp,sp,-32
    501e:	cc22                	sw	s0,24(sp)
    5020:	ca26                	sw	s1,20(sp)
    5022:	c84a                	sw	s2,16(sp)
    5024:	c64e                	sw	s3,12(sp)
    5026:	ce06                	sw	ra,28(sp)
    5028:	1007f793          	andi	a5,a5,256
    502c:	84aa                	mv	s1,a0
    502e:	842e                	mv	s0,a1
    5030:	8932                	mv	s2,a2
    5032:	89b6                	mv	s3,a3
    5034:	c791                	beqz	a5,5040 <__swrite+0x26>
    5036:	00e59583          	lh	a1,14(a1)
    503a:	4689                	li	a3,2
    503c:	4601                	li	a2,0
    503e:	28dd                	jal	5134 <_lseek_r>
    5040:	245e                	lhu	a5,12(s0)
    5042:	00e41583          	lh	a1,14(s0)
    5046:	40f2                	lw	ra,28(sp)
    5048:	48c79793          	bclri	a5,a5,0xc
    504c:	a45e                	sh	a5,12(s0)
    504e:	4462                	lw	s0,24(sp)
    5050:	86ce                	mv	a3,s3
    5052:	864a                	mv	a2,s2
    5054:	49b2                	lw	s3,12(sp)
    5056:	4942                	lw	s2,16(sp)
    5058:	8526                	mv	a0,s1
    505a:	44d2                	lw	s1,20(sp)
    505c:	6105                	addi	sp,sp,32
    505e:	a81d                	j	5094 <_write_r>

00005060 <__sseek>:
__sseek():
    5060:	1141                	addi	sp,sp,-16
    5062:	c422                	sw	s0,8(sp)
    5064:	842e                	mv	s0,a1
    5066:	00e59583          	lh	a1,14(a1)
    506a:	c606                	sw	ra,12(sp)
    506c:	20e1                	jal	5134 <_lseek_r>
    506e:	577d                	li	a4,-1
    5070:	245e                	lhu	a5,12(s0)
    5072:	00e51963          	bne	a0,a4,5084 <__sseek+0x24>
    5076:	48c79793          	bclri	a5,a5,0xc
    507a:	a45e                	sh	a5,12(s0)
    507c:	40b2                	lw	ra,12(sp)
    507e:	4422                	lw	s0,8(sp)
    5080:	0141                	addi	sp,sp,16
    5082:	8082                	ret
    5084:	28c79793          	bseti	a5,a5,0xc
    5088:	c868                	sw	a0,84(s0)
    508a:	a45e                	sh	a5,12(s0)
    508c:	bfc5                	j	507c <__sseek+0x1c>

0000508e <__sclose>:
__sclose():
    508e:	00e59583          	lh	a1,14(a1)
    5092:	a03d                	j	50c0 <_close_r>

00005094 <_write_r>:
_write_r():
    5094:	1141                	addi	sp,sp,-16
    5096:	c422                	sw	s0,8(sp)
    5098:	842a                	mv	s0,a0
    509a:	852e                	mv	a0,a1
    509c:	85b2                	mv	a1,a2
    509e:	8636                	mv	a2,a3
    50a0:	8401a823          	sw	zero,-1968(gp) # 20000ef8 <errno>
    50a4:	c606                	sw	ra,12(sp)
    50a6:	a8afc0ef          	jal	ra,1330 <_write>
    50aa:	57fd                	li	a5,-1
    50ac:	00f51663          	bne	a0,a5,50b8 <_write_r+0x24>
    50b0:	8501a783          	lw	a5,-1968(gp) # 20000ef8 <errno>
    50b4:	c391                	beqz	a5,50b8 <_write_r+0x24>
    50b6:	c01c                	sw	a5,0(s0)
    50b8:	40b2                	lw	ra,12(sp)
    50ba:	4422                	lw	s0,8(sp)
    50bc:	0141                	addi	sp,sp,16
    50be:	8082                	ret

000050c0 <_close_r>:
_close_r():
    50c0:	1141                	addi	sp,sp,-16
    50c2:	c422                	sw	s0,8(sp)
    50c4:	842a                	mv	s0,a0
    50c6:	852e                	mv	a0,a1
    50c8:	8401a823          	sw	zero,-1968(gp) # 20000ef8 <errno>
    50cc:	c606                	sw	ra,12(sp)
    50ce:	2195                	jal	5532 <_close>
    50d0:	57fd                	li	a5,-1
    50d2:	00f51663          	bne	a0,a5,50de <_close_r+0x1e>
    50d6:	8501a783          	lw	a5,-1968(gp) # 20000ef8 <errno>
    50da:	c391                	beqz	a5,50de <_close_r+0x1e>
    50dc:	c01c                	sw	a5,0(s0)
    50de:	40b2                	lw	ra,12(sp)
    50e0:	4422                	lw	s0,8(sp)
    50e2:	0141                	addi	sp,sp,16
    50e4:	8082                	ret

000050e6 <_fstat_r>:
_fstat_r():
    50e6:	1141                	addi	sp,sp,-16
    50e8:	c422                	sw	s0,8(sp)
    50ea:	842a                	mv	s0,a0
    50ec:	852e                	mv	a0,a1
    50ee:	85b2                	mv	a1,a2
    50f0:	8401a823          	sw	zero,-1968(gp) # 20000ef8 <errno>
    50f4:	c606                	sw	ra,12(sp)
    50f6:	21a1                	jal	553e <_fstat>
    50f8:	57fd                	li	a5,-1
    50fa:	00f51663          	bne	a0,a5,5106 <_fstat_r+0x20>
    50fe:	8501a783          	lw	a5,-1968(gp) # 20000ef8 <errno>
    5102:	c391                	beqz	a5,5106 <_fstat_r+0x20>
    5104:	c01c                	sw	a5,0(s0)
    5106:	40b2                	lw	ra,12(sp)
    5108:	4422                	lw	s0,8(sp)
    510a:	0141                	addi	sp,sp,16
    510c:	8082                	ret

0000510e <_isatty_r>:
_isatty_r():
    510e:	1141                	addi	sp,sp,-16
    5110:	c422                	sw	s0,8(sp)
    5112:	842a                	mv	s0,a0
    5114:	852e                	mv	a0,a1
    5116:	8401a823          	sw	zero,-1968(gp) # 20000ef8 <errno>
    511a:	c606                	sw	ra,12(sp)
    511c:	213d                	jal	554a <_isatty>
    511e:	57fd                	li	a5,-1
    5120:	00f51663          	bne	a0,a5,512c <_isatty_r+0x1e>
    5124:	8501a783          	lw	a5,-1968(gp) # 20000ef8 <errno>
    5128:	c391                	beqz	a5,512c <_isatty_r+0x1e>
    512a:	c01c                	sw	a5,0(s0)
    512c:	40b2                	lw	ra,12(sp)
    512e:	4422                	lw	s0,8(sp)
    5130:	0141                	addi	sp,sp,16
    5132:	8082                	ret

00005134 <_lseek_r>:
_lseek_r():
    5134:	1141                	addi	sp,sp,-16
    5136:	c422                	sw	s0,8(sp)
    5138:	842a                	mv	s0,a0
    513a:	852e                	mv	a0,a1
    513c:	85b2                	mv	a1,a2
    513e:	8636                	mv	a2,a3
    5140:	8401a823          	sw	zero,-1968(gp) # 20000ef8 <errno>
    5144:	c606                	sw	ra,12(sp)
    5146:	2901                	jal	5556 <_lseek>
    5148:	57fd                	li	a5,-1
    514a:	00f51663          	bne	a0,a5,5156 <_lseek_r+0x22>
    514e:	8501a783          	lw	a5,-1968(gp) # 20000ef8 <errno>
    5152:	c391                	beqz	a5,5156 <_lseek_r+0x22>
    5154:	c01c                	sw	a5,0(s0)
    5156:	40b2                	lw	ra,12(sp)
    5158:	4422                	lw	s0,8(sp)
    515a:	0141                	addi	sp,sp,16
    515c:	8082                	ret

0000515e <memchr>:
memchr():
    515e:	0ff5f593          	zext.b	a1,a1
    5162:	962a                	add	a2,a2,a0
    5164:	00c51463          	bne	a0,a2,516c <memchr+0xe>
    5168:	4501                	li	a0,0
    516a:	8082                	ret
    516c:	211c                	lbu	a5,0(a0)
    516e:	feb78ee3          	beq	a5,a1,516a <memchr+0xc>
    5172:	0505                	addi	a0,a0,1
    5174:	bfc5                	j	5164 <memchr+0x6>

00005176 <__malloc_lock>:
__malloc_lock():
    5176:	83c18513          	addi	a0,gp,-1988 # 20000ee4 <__lock___malloc_recursive_mutex>
    517a:	853ff06f          	j	49cc <__retarget_lock_acquire_recursive>

0000517e <__malloc_unlock>:
__malloc_unlock():
    517e:	83c18513          	addi	a0,gp,-1988 # 20000ee4 <__lock___malloc_recursive_mutex>
    5182:	84dff06f          	j	49ce <__retarget_lock_release_recursive>

00005186 <_printf_common>:
_printf_common():
    5186:	7179                	addi	sp,sp,-48
    5188:	ca56                	sw	s5,20(sp)
    518a:	499c                	lw	a5,16(a1)
    518c:	8aba                	mv	s5,a4
    518e:	4598                	lw	a4,8(a1)
    5190:	d422                	sw	s0,40(sp)
    5192:	d04a                	sw	s2,32(sp)
    5194:	ce4e                	sw	s3,28(sp)
    5196:	cc52                	sw	s4,24(sp)
    5198:	d606                	sw	ra,44(sp)
    519a:	d226                	sw	s1,36(sp)
    519c:	c85a                	sw	s6,16(sp)
    519e:	c65e                	sw	s7,12(sp)
    51a0:	0ae7e7b3          	max	a5,a5,a4
    51a4:	c21c                	sw	a5,0(a2)
    51a6:	0435c703          	lbu	a4,67(a1)
    51aa:	89aa                	mv	s3,a0
    51ac:	842e                	mv	s0,a1
    51ae:	8932                	mv	s2,a2
    51b0:	8a36                	mv	s4,a3
    51b2:	c319                	beqz	a4,51b8 <_printf_common+0x32>
    51b4:	0785                	addi	a5,a5,1
    51b6:	c21c                	sw	a5,0(a2)
    51b8:	401c                	lw	a5,0(s0)
    51ba:	0207f793          	andi	a5,a5,32
    51be:	c791                	beqz	a5,51ca <_printf_common+0x44>
    51c0:	00092783          	lw	a5,0(s2)
    51c4:	0789                	addi	a5,a5,2
    51c6:	00f92023          	sw	a5,0(s2)
    51ca:	4004                	lw	s1,0(s0)
    51cc:	8899                	andi	s1,s1,6
    51ce:	e891                	bnez	s1,51e2 <_printf_common+0x5c>
    51d0:	01940b13          	addi	s6,s0,25
    51d4:	5bfd                	li	s7,-1
    51d6:	445c                	lw	a5,12(s0)
    51d8:	00092703          	lw	a4,0(s2)
    51dc:	8f99                	sub	a5,a5,a4
    51de:	04f4cc63          	blt	s1,a5,5236 <_printf_common+0xb0>
    51e2:	04344783          	lbu	a5,67(s0)
    51e6:	00f036b3          	snez	a3,a5
    51ea:	401c                	lw	a5,0(s0)
    51ec:	0207f793          	andi	a5,a5,32
    51f0:	eba5                	bnez	a5,5260 <_printf_common+0xda>
    51f2:	04340613          	addi	a2,s0,67
    51f6:	85d2                	mv	a1,s4
    51f8:	854e                	mv	a0,s3
    51fa:	9a82                	jalr	s5
    51fc:	57fd                	li	a5,-1
    51fe:	04f50363          	beq	a0,a5,5244 <_printf_common+0xbe>
    5202:	401c                	lw	a5,0(s0)
    5204:	4711                	li	a4,4
    5206:	4481                	li	s1,0
    5208:	8b99                	andi	a5,a5,6
    520a:	00e79963          	bne	a5,a4,521c <_printf_common+0x96>
    520e:	00092783          	lw	a5,0(s2)
    5212:	4444                	lw	s1,12(s0)
    5214:	8c9d                	sub	s1,s1,a5
    5216:	4781                	li	a5,0
    5218:	0af4e4b3          	max	s1,s1,a5
    521c:	441c                	lw	a5,8(s0)
    521e:	4818                	lw	a4,16(s0)
    5220:	00f75463          	bge	a4,a5,5228 <_printf_common+0xa2>
    5224:	8f99                	sub	a5,a5,a4
    5226:	94be                	add	s1,s1,a5
    5228:	4901                	li	s2,0
    522a:	0469                	addi	s0,s0,26
    522c:	5b7d                	li	s6,-1
    522e:	05249863          	bne	s1,s2,527e <_printf_common+0xf8>
    5232:	4501                	li	a0,0
    5234:	a809                	j	5246 <_printf_common+0xc0>
    5236:	4685                	li	a3,1
    5238:	865a                	mv	a2,s6
    523a:	85d2                	mv	a1,s4
    523c:	854e                	mv	a0,s3
    523e:	9a82                	jalr	s5
    5240:	01751e63          	bne	a0,s7,525c <_printf_common+0xd6>
    5244:	557d                	li	a0,-1
    5246:	50b2                	lw	ra,44(sp)
    5248:	5422                	lw	s0,40(sp)
    524a:	5492                	lw	s1,36(sp)
    524c:	5902                	lw	s2,32(sp)
    524e:	49f2                	lw	s3,28(sp)
    5250:	4a62                	lw	s4,24(sp)
    5252:	4ad2                	lw	s5,20(sp)
    5254:	4b42                	lw	s6,16(sp)
    5256:	4bb2                	lw	s7,12(sp)
    5258:	6145                	addi	sp,sp,48
    525a:	8082                	ret
    525c:	0485                	addi	s1,s1,1
    525e:	bfa5                	j	51d6 <_printf_common+0x50>
    5260:	00d40733          	add	a4,s0,a3
    5264:	03000613          	li	a2,48
    5268:	04c701a3          	sb	a2,67(a4)
    526c:	04544703          	lbu	a4,69(s0)
    5270:	00168793          	addi	a5,a3,1
    5274:	97a2                	add	a5,a5,s0
    5276:	0689                	addi	a3,a3,2
    5278:	04e781a3          	sb	a4,67(a5)
    527c:	bf9d                	j	51f2 <_printf_common+0x6c>
    527e:	4685                	li	a3,1
    5280:	8622                	mv	a2,s0
    5282:	85d2                	mv	a1,s4
    5284:	854e                	mv	a0,s3
    5286:	9a82                	jalr	s5
    5288:	fb650ee3          	beq	a0,s6,5244 <_printf_common+0xbe>
    528c:	0905                	addi	s2,s2,1
    528e:	b745                	j	522e <_printf_common+0xa8>

00005290 <_printf_i>:
_printf_i():
    5290:	7179                	addi	sp,sp,-48
    5292:	d422                	sw	s0,40(sp)
    5294:	d04a                	sw	s2,32(sp)
    5296:	ce4e                	sw	s3,28(sp)
    5298:	cc52                	sw	s4,24(sp)
    529a:	d606                	sw	ra,44(sp)
    529c:	d226                	sw	s1,36(sp)
    529e:	ca56                	sw	s5,20(sp)
    52a0:	c85a                	sw	s6,16(sp)
    52a2:	0185c803          	lbu	a6,24(a1)
    52a6:	07800793          	li	a5,120
    52aa:	892a                	mv	s2,a0
    52ac:	842e                	mv	s0,a1
    52ae:	89b2                	mv	s3,a2
    52b0:	8a36                	mv	s4,a3
    52b2:	0307e263          	bltu	a5,a6,52d6 <_printf_i+0x46>
    52b6:	06200793          	li	a5,98
    52ba:	04358693          	addi	a3,a1,67
    52be:	0307e163          	bltu	a5,a6,52e0 <_printf_i+0x50>
    52c2:	1c080b63          	beqz	a6,5498 <_printf_i+0x208>
    52c6:	05800793          	li	a5,88
    52ca:	00000617          	auipc	a2,0x0
    52ce:	52e60613          	addi	a2,a2,1326 # 57f8 <__sf_fake_stdin+0x34>
    52d2:	14f80763          	beq	a6,a5,5420 <_printf_i+0x190>
    52d6:	04240493          	addi	s1,s0,66
    52da:	05040123          	sb	a6,66(s0)
    52de:	a815                	j	5312 <_printf_i+0x82>
    52e0:	f9d80793          	addi	a5,a6,-99
    52e4:	0ff7f793          	zext.b	a5,a5
    52e8:	4655                	li	a2,21
    52ea:	fef666e3          	bltu	a2,a5,52d6 <_printf_i+0x46>
    52ee:	00000617          	auipc	a2,0x0
    52f2:	53260613          	addi	a2,a2,1330 # 5820 <__sf_fake_stdin+0x5c>
    52f6:	20c7c7b3          	sh2add	a5,a5,a2
    52fa:	439c                	lw	a5,0(a5)
    52fc:	97b2                	add	a5,a5,a2
    52fe:	8782                	jr	a5
    5300:	431c                	lw	a5,0(a4)
    5302:	04258493          	addi	s1,a1,66
    5306:	00478693          	addi	a3,a5,4
    530a:	439c                	lw	a5,0(a5)
    530c:	c314                	sw	a3,0(a4)
    530e:	04f58123          	sb	a5,66(a1)
    5312:	4785                	li	a5,1
    5314:	a265                	j	54bc <_printf_i+0x22c>
    5316:	4190                	lw	a2,0(a1)
    5318:	431c                	lw	a5,0(a4)
    531a:	08067513          	andi	a0,a2,128
    531e:	00478593          	addi	a1,a5,4
    5322:	c129                	beqz	a0,5364 <_printf_i+0xd4>
    5324:	439c                	lw	a5,0(a5)
    5326:	c30c                	sw	a1,0(a4)
    5328:	4058                	lw	a4,4(s0)
    532a:	1207de63          	bgez	a5,5466 <_printf_i+0x1d6>
    532e:	02d00593          	li	a1,45
    5332:	04b401a3          	sb	a1,67(s0)
    5336:	c418                	sw	a4,8(s0)
    5338:	02075e63          	bgez	a4,5374 <_printf_i+0xe4>
    533c:	40f007b3          	neg	a5,a5
    5340:	00000617          	auipc	a2,0x0
    5344:	4b860613          	addi	a2,a2,1208 # 57f8 <__sf_fake_stdin+0x34>
    5348:	4829                	li	a6,10
    534a:	84b6                	mv	s1,a3
    534c:	0307f733          	remu	a4,a5,a6
    5350:	14fd                	addi	s1,s1,-1
    5352:	9732                	add	a4,a4,a2
    5354:	2318                	lbu	a4,0(a4)
    5356:	a098                	sb	a4,0(s1)
    5358:	873e                	mv	a4,a5
    535a:	0307d7b3          	divu	a5,a5,a6
    535e:	ff0777e3          	bgeu	a4,a6,534c <_printf_i+0xbc>
    5362:	a085                	j	53c2 <_printf_i+0x132>
    5364:	439c                	lw	a5,0(a5)
    5366:	04067513          	andi	a0,a2,64
    536a:	c30c                	sw	a1,0(a4)
    536c:	dd55                	beqz	a0,5328 <_printf_i+0x98>
    536e:	60579793          	sext.h	a5,a5
    5372:	bf5d                	j	5328 <_printf_i+0x98>
    5374:	9a6d                	andi	a2,a2,-5
    5376:	c010                	sw	a2,0(s0)
    5378:	b7d1                	j	533c <_printf_i+0xac>
    537a:	4190                	lw	a2,0(a1)
    537c:	431c                	lw	a5,0(a4)
    537e:	08067513          	andi	a0,a2,128
    5382:	00478593          	addi	a1,a5,4
    5386:	c501                	beqz	a0,538e <_printf_i+0xfe>
    5388:	c30c                	sw	a1,0(a4)
    538a:	439c                	lw	a5,0(a5)
    538c:	a031                	j	5398 <_printf_i+0x108>
    538e:	04067613          	andi	a2,a2,64
    5392:	c30c                	sw	a1,0(a4)
    5394:	da7d                	beqz	a2,538a <_printf_i+0xfa>
    5396:	239e                	lhu	a5,0(a5)
    5398:	06f00713          	li	a4,111
    539c:	00000617          	auipc	a2,0x0
    53a0:	45c60613          	addi	a2,a2,1116 # 57f8 <__sf_fake_stdin+0x34>
    53a4:	0ae81f63          	bne	a6,a4,5462 <_printf_i+0x1d2>
    53a8:	4821                	li	a6,8
    53aa:	040401a3          	sb	zero,67(s0)
    53ae:	4058                	lw	a4,4(s0)
    53b0:	c418                	sw	a4,8(s0)
    53b2:	f8074ce3          	bltz	a4,534a <_printf_i+0xba>
    53b6:	400c                	lw	a1,0(s0)
    53b8:	99ed                	andi	a1,a1,-5
    53ba:	c00c                	sw	a1,0(s0)
    53bc:	f7d9                	bnez	a5,534a <_printf_i+0xba>
    53be:	84b6                	mv	s1,a3
    53c0:	f749                	bnez	a4,534a <_printf_i+0xba>
    53c2:	47a1                	li	a5,8
    53c4:	00f81e63          	bne	a6,a5,53e0 <_printf_i+0x150>
    53c8:	401c                	lw	a5,0(s0)
    53ca:	8b85                	andi	a5,a5,1
    53cc:	cb91                	beqz	a5,53e0 <_printf_i+0x150>
    53ce:	4058                	lw	a4,4(s0)
    53d0:	481c                	lw	a5,16(s0)
    53d2:	00e7c763          	blt	a5,a4,53e0 <_printf_i+0x150>
    53d6:	03000793          	li	a5,48
    53da:	fef48fa3          	sb	a5,-1(s1)
    53de:	14fd                	addi	s1,s1,-1
    53e0:	8e85                	sub	a3,a3,s1
    53e2:	c814                	sw	a3,16(s0)
    53e4:	8752                	mv	a4,s4
    53e6:	86ce                	mv	a3,s3
    53e8:	0070                	addi	a2,sp,12
    53ea:	85a2                	mv	a1,s0
    53ec:	854a                	mv	a0,s2
    53ee:	3b61                	jal	5186 <_printf_common>
    53f0:	5afd                	li	s5,-1
    53f2:	0d551963          	bne	a0,s5,54c4 <_printf_i+0x234>
    53f6:	557d                	li	a0,-1
    53f8:	50b2                	lw	ra,44(sp)
    53fa:	5422                	lw	s0,40(sp)
    53fc:	5492                	lw	s1,36(sp)
    53fe:	5902                	lw	s2,32(sp)
    5400:	49f2                	lw	s3,28(sp)
    5402:	4a62                	lw	s4,24(sp)
    5404:	4ad2                	lw	s5,20(sp)
    5406:	4b42                	lw	s6,16(sp)
    5408:	6145                	addi	sp,sp,48
    540a:	8082                	ret
    540c:	419c                	lw	a5,0(a1)
    540e:	0207e793          	ori	a5,a5,32
    5412:	c19c                	sw	a5,0(a1)
    5414:	07800813          	li	a6,120
    5418:	00000617          	auipc	a2,0x0
    541c:	3f460613          	addi	a2,a2,1012 # 580c <__sf_fake_stdin+0x48>
    5420:	050402a3          	sb	a6,69(s0)
    5424:	400c                	lw	a1,0(s0)
    5426:	431c                	lw	a5,0(a4)
    5428:	0805f813          	andi	a6,a1,128
    542c:	00478513          	addi	a0,a5,4
    5430:	00080563          	beqz	a6,543a <_printf_i+0x1aa>
    5434:	c308                	sw	a0,0(a4)
    5436:	439c                	lw	a5,0(a5)
    5438:	a039                	j	5446 <_printf_i+0x1b6>
    543a:	0405f813          	andi	a6,a1,64
    543e:	c308                	sw	a0,0(a4)
    5440:	fe080be3          	beqz	a6,5436 <_printf_i+0x1a6>
    5444:	239e                	lhu	a5,0(a5)
    5446:	0015f713          	andi	a4,a1,1
    544a:	c701                	beqz	a4,5452 <_printf_i+0x1c2>
    544c:	0205e593          	ori	a1,a1,32
    5450:	c00c                	sw	a1,0(s0)
    5452:	c399                	beqz	a5,5458 <_printf_i+0x1c8>
    5454:	4841                	li	a6,16
    5456:	bf91                	j	53aa <_printf_i+0x11a>
    5458:	4018                	lw	a4,0(s0)
    545a:	fdf77713          	andi	a4,a4,-33
    545e:	c018                	sw	a4,0(s0)
    5460:	bfd5                	j	5454 <_printf_i+0x1c4>
    5462:	4829                	li	a6,10
    5464:	b799                	j	53aa <_printf_i+0x11a>
    5466:	00000617          	auipc	a2,0x0
    546a:	39260613          	addi	a2,a2,914 # 57f8 <__sf_fake_stdin+0x34>
    546e:	4829                	li	a6,10
    5470:	bf3d                	j	53ae <_printf_i+0x11e>
    5472:	4190                	lw	a2,0(a1)
    5474:	431c                	lw	a5,0(a4)
    5476:	49cc                	lw	a1,20(a1)
    5478:	08067813          	andi	a6,a2,128
    547c:	00478513          	addi	a0,a5,4
    5480:	00080663          	beqz	a6,548c <_printf_i+0x1fc>
    5484:	c308                	sw	a0,0(a4)
    5486:	439c                	lw	a5,0(a5)
    5488:	c38c                	sw	a1,0(a5)
    548a:	a039                	j	5498 <_printf_i+0x208>
    548c:	c308                	sw	a0,0(a4)
    548e:	04067613          	andi	a2,a2,64
    5492:	439c                	lw	a5,0(a5)
    5494:	da75                	beqz	a2,5488 <_printf_i+0x1f8>
    5496:	a38e                	sh	a1,0(a5)
    5498:	00042823          	sw	zero,16(s0)
    549c:	84b6                	mv	s1,a3
    549e:	b799                	j	53e4 <_printf_i+0x154>
    54a0:	431c                	lw	a5,0(a4)
    54a2:	41d0                	lw	a2,4(a1)
    54a4:	4581                	li	a1,0
    54a6:	00478693          	addi	a3,a5,4
    54aa:	c314                	sw	a3,0(a4)
    54ac:	4384                	lw	s1,0(a5)
    54ae:	8526                	mv	a0,s1
    54b0:	317d                	jal	515e <memchr>
    54b2:	c501                	beqz	a0,54ba <_printf_i+0x22a>
    54b4:	409507b3          	sub	a5,a0,s1
    54b8:	c05c                	sw	a5,4(s0)
    54ba:	405c                	lw	a5,4(s0)
    54bc:	c81c                	sw	a5,16(s0)
    54be:	040401a3          	sb	zero,67(s0)
    54c2:	b70d                	j	53e4 <_printf_i+0x154>
    54c4:	4814                	lw	a3,16(s0)
    54c6:	8626                	mv	a2,s1
    54c8:	85ce                	mv	a1,s3
    54ca:	854a                	mv	a0,s2
    54cc:	9a02                	jalr	s4
    54ce:	f35504e3          	beq	a0,s5,53f6 <_printf_i+0x166>
    54d2:	401c                	lw	a5,0(s0)
    54d4:	8b89                	andi	a5,a5,2
    54d6:	e785                	bnez	a5,54fe <_printf_i+0x26e>
    54d8:	4448                	lw	a0,12(s0)
    54da:	47b2                	lw	a5,12(sp)
    54dc:	0af56533          	max	a0,a0,a5
    54e0:	bf21                	j	53f8 <_printf_i+0x168>
    54e2:	4685                	li	a3,1
    54e4:	8656                	mv	a2,s5
    54e6:	85ce                	mv	a1,s3
    54e8:	854a                	mv	a0,s2
    54ea:	9a02                	jalr	s4
    54ec:	f16505e3          	beq	a0,s6,53f6 <_printf_i+0x166>
    54f0:	0485                	addi	s1,s1,1
    54f2:	445c                	lw	a5,12(s0)
    54f4:	4732                	lw	a4,12(sp)
    54f6:	8f99                	sub	a5,a5,a4
    54f8:	fef4c5e3          	blt	s1,a5,54e2 <_printf_i+0x252>
    54fc:	bff1                	j	54d8 <_printf_i+0x248>
    54fe:	4481                	li	s1,0
    5500:	01940a93          	addi	s5,s0,25
    5504:	5b7d                	li	s6,-1
    5506:	b7f5                	j	54f2 <_printf_i+0x262>

00005508 <_read_r>:
_read_r():
    5508:	1141                	addi	sp,sp,-16
    550a:	c422                	sw	s0,8(sp)
    550c:	842a                	mv	s0,a0
    550e:	852e                	mv	a0,a1
    5510:	85b2                	mv	a1,a2
    5512:	8636                	mv	a2,a3
    5514:	8401a823          	sw	zero,-1968(gp) # 20000ef8 <errno>
    5518:	c606                	sw	ra,12(sp)
    551a:	20a1                	jal	5562 <_read>
    551c:	57fd                	li	a5,-1
    551e:	00f51663          	bne	a0,a5,552a <_read_r+0x22>
    5522:	8501a783          	lw	a5,-1968(gp) # 20000ef8 <errno>
    5526:	c391                	beqz	a5,552a <_read_r+0x22>
    5528:	c01c                	sw	a5,0(s0)
    552a:	40b2                	lw	ra,12(sp)
    552c:	4422                	lw	s0,8(sp)
    552e:	0141                	addi	sp,sp,16
    5530:	8082                	ret

00005532 <_close>:
_close():
    5532:	05800793          	li	a5,88
    5536:	84f1a823          	sw	a5,-1968(gp) # 20000ef8 <errno>
    553a:	557d                	li	a0,-1
    553c:	8082                	ret

0000553e <_fstat>:
_fstat():
    553e:	05800793          	li	a5,88
    5542:	84f1a823          	sw	a5,-1968(gp) # 20000ef8 <errno>
    5546:	557d                	li	a0,-1
    5548:	8082                	ret

0000554a <_isatty>:
_isatty():
    554a:	05800793          	li	a5,88
    554e:	84f1a823          	sw	a5,-1968(gp) # 20000ef8 <errno>
    5552:	4501                	li	a0,0
    5554:	8082                	ret

00005556 <_lseek>:
_lseek():
    5556:	05800793          	li	a5,88
    555a:	84f1a823          	sw	a5,-1968(gp) # 20000ef8 <errno>
    555e:	557d                	li	a0,-1
    5560:	8082                	ret

00005562 <_read>:
_read():
    5562:	05800793          	li	a5,88
    5566:	84f1a823          	sw	a5,-1968(gp) # 20000ef8 <errno>
    556a:	557d                	li	a0,-1
    556c:	8082                	ret
    556e:	0000                	unimp
    5570:	bcfc                	sb	a5,31(s1)
    5572:	ffff                	.2byte	0xffff
    5574:	bd14                	sb	a3,25(a0)
    5576:	ffff                	.2byte	0xffff
    5578:	bd38                	sb	a4,27(a0)
    557a:	ffff                	.2byte	0xffff
    557c:	bd42                	sh	s0,60(a0)
    557e:	ffff                	.2byte	0xffff
    5580:	bd58                	sb	a4,29(a0)
    5582:	ffff                	.2byte	0xffff
    5584:	202a                	lhu	a0,2(s0)
    5586:	0000                	unimp
    5588:	37354843          	.4byte	0x37354843
    558c:	5f32                	lw	t5,44(sp)
    558e:	4c42                	lw	s8,16(sp)
    5590:	5f45                	li	t5,-15
    5592:	4550                	lw	a2,12(a0)
    5594:	4952                	lw	s2,20(sp)
    5596:	4c5f 4249 565f      	.byte	0x5f, 0x4c, 0x49, 0x42, 0x5f, 0x56
    559c:	2e31                	jal	58b8 <TMOS_CB_PeriodicProcessEvent+0x1e>
    559e:	0031                	c.nop	12
    55a0:	6568                	.2byte	0x6568
    55a2:	6461                	lui	s0,0x18
    55a4:	6620                	.2byte	0x6620
    55a6:	6c69                	lui	s8,0x1a
    55a8:	2065                	jal	5650 <_read+0xee>
    55aa:	7265                	lui	tp,0xffff9
    55ac:	6f72                	.2byte	0x6f72
    55ae:	2e72                	lhu	a2,30(a2)
    55b0:	2e2e                	lhu	a1,26(a2)
    55b2:	0000                	unimp
    55b4:	494c                	lw	a1,20(a0)
    55b6:	2042                	lhu	s0,4(s0)
    55b8:	6e69                	lui	t3,0x1a
    55ba:	7469                	lui	s0,0xffffa
    55bc:	6520                	.2byte	0x6520
    55be:	7272                	.2byte	0x7272
    55c0:	6320726f          	jal	tp,cbf2 <_data_lma+0x6c6a>
    55c4:	3a65646f          	jal	s0,5b96a <_data_lma+0x559e2>
    55c8:	2520                	lbu	s0,10(a0)
    55ca:	2078                	lbu	a4,6(s0)
    55cc:	2e2e                	lhu	a1,26(a2)
    55ce:	0a2e                	slli	s4,s4,0xb
    55d0:	0000                	unimp
    55d2:	0000                	unimp
    55d4:	736c                	.2byte	0x736c
    55d6:	4669                	li	a2,26
    55d8:	7172                	.2byte	0x7172
    55da:	3d20                	lbu	s0,27(a0)
    55dc:	2520                	lbu	s0,10(a0)
    55de:	0a64                	addi	s1,sp,284
    55e0:	0000                	unimp
    55e2:	0000                	unimp
    55e4:	5852                	lw	a6,52(sp)
    55e6:	6d20                	.2byte	0x6d20
    55e8:	2e65646f          	jal	s0,5b8ce <_data_lma+0x55946>
    55ec:	74617473          	csrrci	s0,0x746,2
    55f0:	2065                	jal	5698 <__clz_tab+0x14>
    55f2:	203d                	jal	5620 <_read+0xbe>
    55f4:	7825                	lui	a6,0xfffe9
    55f6:	000a                	c.slli	zero,0x2
    55f8:	7874                	.2byte	0x7874
    55fa:	7220                	.2byte	0x7220
    55fc:	6365                	lui	t1,0x19
    55fe:	2c76                	lhu	a3,30(s0)
    5600:	7372                	.2byte	0x7372
    5602:	253a6973          	csrrsi	s2,0x253,20
    5606:	0a64                	addi	s1,sp,284
    5608:	0000                	unimp
    560a:	0000                	unimp
    560c:	656c                	.2byte	0x656c
    560e:	3a6e                	lhu	a1,54(a2)
    5610:	6425                	lui	s0,0x9
    5612:	002d                	c.nop	11
    5614:	7825                	lui	a6,0xfffe9
    5616:	0020                	addi	s0,sp,8
    5618:	20637263          	bgeu	t1,t1,581c <__sf_fake_stdin+0x58>
    561c:	7265                	lui	tp,0xffff9
    561e:	6f72                	.2byte	0x6f72
    5620:	0072                	c.slli	zero,0x1c
    5622:	0000                	unimp
    5624:	616d                	addi	sp,sp,240
    5626:	6374                	.2byte	0x6374
    5628:	2068                	lbu	a0,6(s0)
    562a:	7974                	.2byte	0x7974
    562c:	6570                	.2byte	0x6570
    562e:	6520                	.2byte	0x6520
    5630:	7272                	.2byte	0x7272
    5632:	0000726f          	jal	tp,c632 <_data_lma+0x66aa>
    5636:	0000                	unimp
    5638:	7872                	.2byte	0x7872
    563a:	7220                	.2byte	0x7220
    563c:	6365                	lui	t1,0x19
    563e:	2c76                	lhu	a3,30(s0)
    5640:	7220                	.2byte	0x7220
    5642:	3a697373          	csrrci	t1,0x3a6,18
    5646:	2520                	lbu	s0,10(a0)
    5648:	0a64                	addi	s1,sp,284
    564a:	0000                	unimp
    564c:	6672                	.2byte	0x6672
    564e:	3220                	lbu	s0,3(a2)
    5650:	342e                	lhu	a1,42(s0)
    5652:	6e692067          	.4byte	0x6e692067
    5656:	7469                	lui	s0,0xffffa
    5658:	203a                	lhu	a4,2(s0)
    565a:	7825                	lui	a6,0xfffe9
    565c:	000a                	c.slli	zero,0x2
    565e:	0000                	unimp
    5660:	72617473          	csrrci	s0,0x726,2
    5664:	2e74                	lbu	a3,30(a2)
	...

00005668 <VER_LIB>:
    5668:	4843 3735 5f32 4c42 5f45 4550 4952 4c5f     CH572_BLE_PERI_L
    5678:	4249 565f 2e31 2e31 0030 0000               IB_V1.1.0...

00005684 <__clz_tab>:
    5684:	0100 0202 0303 0303 0404 0404 0404 0404     ................
    5694:	0505 0505 0505 0505 0505 0505 0505 0505     ................
    56a4:	0606 0606 0606 0606 0606 0606 0606 0606     ................
    56b4:	0606 0606 0606 0606 0606 0606 0606 0606     ................
    56c4:	0707 0707 0707 0707 0707 0707 0707 0707     ................
    56d4:	0707 0707 0707 0707 0707 0707 0707 0707     ................
    56e4:	0707 0707 0707 0707 0707 0707 0707 0707     ................
    56f4:	0707 0707 0707 0707 0707 0707 0707 0707     ................
    5704:	0808 0808 0808 0808 0808 0808 0808 0808     ................
    5714:	0808 0808 0808 0808 0808 0808 0808 0808     ................
    5724:	0808 0808 0808 0808 0808 0808 0808 0808     ................
    5734:	0808 0808 0808 0808 0808 0808 0808 0808     ................
    5744:	0808 0808 0808 0808 0808 0808 0808 0808     ................
    5754:	0808 0808 0808 0808 0808 0808 0808 0808     ................
    5764:	0808 0808 0808 0808 0808 0808 0808 0808     ................
    5774:	0808 0808 0808 0808 0808 0808 0808 0808     ................

00005784 <__sf_fake_stderr>:
	...

000057a4 <__sf_fake_stdout>:
	...

000057c4 <__sf_fake_stdin>:
	...
    57e4:	2d23 2b30 0020 0000 6c68 004c 6665 4567     #-0+ ...hlL.efgE
    57f4:	4746 0000 3130 3332 3534 3736 3938 4241     FG..0123456789AB
    5804:	4443 4645 0000 0000 3130 3332 3534 3736     CDEF....01234567
    5814:	3938 6261 6463 6665 0000 0000 fae0 ffff     89abcdef........
    5824:	faf6 ffff fab6 ffff fab6 ffff fab6 ffff     ................
    5834:	fab6 ffff faf6 ffff fab6 ffff fab6 ffff     ................
    5844:	fab6 ffff fab6 ffff fc52 ffff fb5a ffff     ........R...Z...
    5854:	fbec ffff fab6 ffff fab6 ffff fc80 ffff     ................
    5864:	fab6 ffff fb5a ffff fab6 ffff fab6 ffff     ....Z...........
    5874:	fbf4 ffff                                   ....

Disassembly of section .vector_handler:

00005878 <BB_IRQHandler>:
ENDOCE_IRQHandler():
F:/private/nanoCH57x-private/doc/CH572EVT/EVT/EXAM/SRC/Startup/startup_CH572.S:111
	j 1b
    5878:	a001                	j	5878 <BB_IRQHandler>

Disassembly of section .highcode_fast:

0000587a <tmosFindTask>:
tmosFindTask():
    587a:	6ac18793          	addi	a5,gp,1708 # 20001d54 <taskHead>
    587e:	439c                	lw	a5,0(a5)
    5880:	e399                	bnez	a5,5886 <tmosFindTask+0xc>
    5882:	853e                	mv	a0,a5
    5884:	8082                	ret
    5886:	0027d703          	lhu	a4,2(a5)
    588a:	00b71663          	bne	a4,a1,5896 <tmosFindTask+0x1c>
    588e:	0007c703          	lbu	a4,0(a5)
    5892:	fea708e3          	beq	a4,a0,5882 <tmosFindTask+0x8>
    5896:	47dc                	lw	a5,12(a5)
    5898:	b7e5                	j	5880 <tmosFindTask+0x6>

0000589a <TMOS_CB_PeriodicProcessEvent>:
TMOS_CB_PeriodicProcessEvent():
    589a:	0ff5f793          	zext.b	a5,a1
    589e:	c3d9                	beqz	a5,5924 <TMOS_CB_PeriodicProcessEvent+0x8a>
    58a0:	1101                	addi	sp,sp,-32
    58a2:	cc22                	sw	s0,24(sp)
    58a4:	ca26                	sw	s1,20(sp)
    58a6:	ce06                	sw	ra,28(sp)
    58a8:	c84a                	sw	s2,16(sp)
    58aa:	c64e                	sw	s3,12(sp)
    58ac:	c452                	sw	s4,8(sp)
    58ae:	84ae                	mv	s1,a1
    58b0:	4401                	li	s0,0
    58b2:	4721                	li	a4,8
    58b4:	4084d7b3          	sra	a5,s1,s0
    58b8:	8b85                	andi	a5,a5,1
    58ba:	c3a5                	beqz	a5,591a <TMOS_CB_PeriodicProcessEvent+0x80>
    58bc:	050e                	slli	a0,a0,0x3
    58be:	008507b3          	add	a5,a0,s0
    58c2:	4531                	li	a0,12
    58c4:	02a787b3          	mul	a5,a5,a0
    58c8:	6e418713          	addi	a4,gp,1764 # 20001d8c <cbTimersHead>
    58cc:	00072983          	lw	s3,0(a4)
    58d0:	4505                	li	a0,1
    58d2:	00851533          	sll	a0,a0,s0
    58d6:	01051913          	slli	s2,a0,0x10
    58da:	01095913          	srli	s2,s2,0x10
    58de:	8a3a                	mv	s4,a4
    58e0:	99be                	add	s3,s3,a5
    58e2:	0009a783          	lw	a5,0(s3)
    58e6:	c781                	beqz	a5,58ee <TMOS_CB_PeriodicProcessEvent+0x54>
    58e8:	0049a503          	lw	a0,4(s3)
    58ec:	9782                	jalr	a5
    58ee:	4731                	li	a4,12
    58f0:	02e40433          	mul	s0,s0,a4
    58f4:	000a2783          	lw	a5,0(s4)
    58f8:	943e                	add	s0,s0,a5
    58fa:	441c                	lw	a5,8(s0)
    58fc:	e789                	bnez	a5,5906 <TMOS_CB_PeriodicProcessEvent+0x6c>
    58fe:	0009a023          	sw	zero,0(s3)
    5902:	0009a223          	sw	zero,4(s3)
    5906:	40f2                	lw	ra,28(sp)
    5908:	4462                	lw	s0,24(sp)
    590a:	0124c533          	xor	a0,s1,s2
    590e:	49b2                	lw	s3,12(sp)
    5910:	44d2                	lw	s1,20(sp)
    5912:	4942                	lw	s2,16(sp)
    5914:	4a22                	lw	s4,8(sp)
    5916:	6105                	addi	sp,sp,32
    5918:	8082                	ret
    591a:	0405                	addi	s0,s0,1 # ffffa001 <_eusrstack+0xdfff7001>
    591c:	f8e41ce3          	bne	s0,a4,58b4 <TMOS_CB_PeriodicProcessEvent+0x1a>
    5920:	4901                	li	s2,0
    5922:	b7d5                	j	5906 <TMOS_CB_PeriodicProcessEvent+0x6c>
    5924:	4501                	li	a0,0
    5926:	8082                	ret

00005928 <tmos_strlen>:
tmos_strlen():
    5928:	e000e7b7          	lui	a5,0xe000e
    592c:	4398                	lw	a4,0(a5)
    592e:	002006b7          	lui	a3,0x200
    5932:	18d7a023          	sw	a3,384(a5) # e000e180 <_eusrstack+0xc000b180>
    5936:	8f75                	and	a4,a4,a3
    5938:	0000100f          	fence.i
    593c:	4781                	li	a5,0
    593e:	00f506b3          	add	a3,a0,a5
    5942:	00068683          	lb	a3,0(a3) # 200000 <_data_lma+0x1fa078>
    5946:	e699                	bnez	a3,5954 <tmos_strlen+0x2c>
    5948:	e000e6b7          	lui	a3,0xe000e
    594c:	10e6a023          	sw	a4,256(a3) # e000e100 <_eusrstack+0xc000b100>
    5950:	853e                	mv	a0,a5
    5952:	8082                	ret
    5954:	0785                	addi	a5,a5,1
    5956:	b7e5                	j	593e <tmos_strlen+0x16>

00005958 <tmos_revmemcpy>:
tmos_revmemcpy():
    5958:	e000e737          	lui	a4,0xe000e
    595c:	431c                	lw	a5,0(a4)
    595e:	002006b7          	lui	a3,0x200
    5962:	18d72023          	sw	a3,384(a4) # e000e180 <_eusrstack+0xc000b180>
    5966:	8ff5                	and	a5,a5,a3
    5968:	0000100f          	fence.i
    596c:	fff60713          	addi	a4,a2,-1
    5970:	95ba                	add	a1,a1,a4
    5972:	962a                	add	a2,a2,a0
    5974:	00c51763          	bne	a0,a2,5982 <tmos_revmemcpy+0x2a>
    5978:	e000e737          	lui	a4,0xe000e
    597c:	10f72023          	sw	a5,256(a4) # e000e100 <_eusrstack+0xc000b100>
    5980:	8082                	ret
    5982:	15fd                	addi	a1,a1,-1
    5984:	0015c703          	lbu	a4,1(a1)
    5988:	0505                	addi	a0,a0,1
    598a:	fee50fa3          	sb	a4,-1(a0)
    598e:	b7dd                	j	5974 <tmos_revmemcpy+0x1c>

00005990 <tmos_isbufset>:
tmos_isbufset():
    5990:	e000e737          	lui	a4,0xe000e
    5994:	431c                	lw	a5,0(a4)
    5996:	002006b7          	lui	a3,0x200
    599a:	18d72023          	sw	a3,384(a4) # e000e180 <_eusrstack+0xc000b180>
    599e:	8ff5                	and	a5,a5,a3
    59a0:	0000100f          	fence.i
    59a4:	c501                	beqz	a0,59ac <tmos_isbufset+0x1c>
    59a6:	00c50733          	add	a4,a0,a2
    59aa:	e619                	bnez	a2,59b8 <tmos_isbufset+0x28>
    59ac:	e000e737          	lui	a4,0xe000e
    59b0:	10f72023          	sw	a5,256(a4) # e000e100 <_eusrstack+0xc000b100>
    59b4:	4501                	li	a0,0
    59b6:	8082                	ret
    59b8:	0505                	addi	a0,a0,1
    59ba:	fff54683          	lbu	a3,-1(a0)
    59be:	feb697e3          	bne	a3,a1,59ac <tmos_isbufset+0x1c>
    59c2:	fee51be3          	bne	a0,a4,59b8 <tmos_isbufset+0x28>
    59c6:	e000e737          	lui	a4,0xe000e
    59ca:	10f72023          	sw	a5,256(a4) # e000e100 <_eusrstack+0xc000b100>
    59ce:	4505                	li	a0,1
    59d0:	8082                	ret

000059d2 <tmos_start_periodic_callback_task>:
tmos_start_periodic_callback_task():
    59d2:	7179                	addi	sp,sp,-48
    59d4:	e000e7b7          	lui	a5,0xe000e
    59d8:	d422                	sw	s0,40(sp)
    59da:	4380                	lw	s0,0(a5)
    59dc:	00200837          	lui	a6,0x200
    59e0:	d606                	sw	ra,44(sp)
    59e2:	d226                	sw	s1,36(sp)
    59e4:	d04a                	sw	s2,32(sp)
    59e6:	ce4e                	sw	s3,28(sp)
    59e8:	cc52                	sw	s4,24(sp)
    59ea:	ca56                	sw	s5,20(sp)
    59ec:	c85a                	sw	s6,16(sp)
    59ee:	c65e                	sw	s7,12(sp)
    59f0:	c462                	sw	s8,8(sp)
    59f2:	01047433          	and	s0,s0,a6
    59f6:	1907a023          	sw	a6,384(a5) # e000e180 <_eusrstack+0xc000b180>
    59fa:	0000100f          	fence.i
    59fe:	e105                	bnez	a0,5a1e <tmos_start_periodic_callback_task+0x4c>
    5a00:	1087a023          	sw	s0,256(a5)
    5a04:	4509                	li	a0,2
    5a06:	50b2                	lw	ra,44(sp)
    5a08:	5422                	lw	s0,40(sp)
    5a0a:	5492                	lw	s1,36(sp)
    5a0c:	5902                	lw	s2,32(sp)
    5a0e:	49f2                	lw	s3,28(sp)
    5a10:	4a62                	lw	s4,24(sp)
    5a12:	4ad2                	lw	s5,20(sp)
    5a14:	4b42                	lw	s6,16(sp)
    5a16:	4bb2                	lw	s7,12(sp)
    5a18:	4c22                	lw	s8,8(sp)
    5a1a:	6145                	addi	sp,sp,48
    5a1c:	8082                	ret
    5a1e:	6a418793          	addi	a5,gp,1700 # 20001d4c <fnGetClockCBs>
    5a22:	439c                	lw	a5,0(a5)
    5a24:	8aba                	mv	s5,a4
    5a26:	8a36                	mv	s4,a3
    5a28:	8bb2                	mv	s7,a2
    5a2a:	8b2e                	mv	s6,a1
    5a2c:	89aa                	mv	s3,a0
    5a2e:	9782                	jalr	a5
    5a30:	6e418793          	addi	a5,gp,1764 # 20001d8c <cbTimersHead>
    5a34:	4398                	lw	a4,0(a5)
    5a36:	893e                	mv	s2,a5
    5a38:	4481                	li	s1,0
    5a3a:	46b1                	li	a3,12
    5a3c:	47a1                	li	a5,8
    5a3e:	02d48c33          	mul	s8,s1,a3
    5a42:	01870633          	add	a2,a4,s8
    5a46:	4210                	lw	a2,0(a2)
    5a48:	ee3d                	bnez	a2,5ac6 <tmos_start_periodic_callback_task+0xf4>
    5a4a:	65c1                	lui	a1,0x10
    5a4c:	f0058593          	addi	a1,a1,-256 # ff00 <_data_lma+0x9f78>
    5a50:	4541                	li	a0,16
    5a52:	2e15                	jal	5d86 <tmos_memory_allocate>
    5a54:	ed11                	bnez	a0,5a70 <tmos_start_periodic_callback_task+0x9e>
    5a56:	6b018793          	addi	a5,gp,1712 # 20001d58 <ble>
    5a5a:	579c                	lw	a5,40(a5)
    5a5c:	c781                	beqz	a5,5a64 <tmos_start_periodic_callback_task+0x92>
    5a5e:	4581                	li	a1,0
    5a60:	4511                	li	a0,4
    5a62:	9782                	jalr	a5
    5a64:	e000e7b7          	lui	a5,0xe000e
    5a68:	1087a023          	sw	s0,256(a5) # e000e100 <_eusrstack+0xc000b100>
    5a6c:	452d                	li	a0,11
    5a6e:	bf61                	j	5a06 <tmos_start_periodic_callback_task+0x34>
    5a70:	6ac18793          	addi	a5,gp,1708 # 20001d54 <taskHead>
    5a74:	4398                	lw	a4,0(a5)
    5a76:	e721                	bnez	a4,5abe <tmos_start_periodic_callback_task+0xec>
    5a78:	6aa1a623          	sw	a0,1708(gp) # 20001d54 <taskHead>
    5a7c:	00050023          	sb	zero,0(a0)
    5a80:	00092783          	lw	a5,0(s2)
    5a84:	4705                	li	a4,1
    5a86:	00971733          	sll	a4,a4,s1
    5a8a:	00052623          	sw	zero,12(a0)
    5a8e:	01752423          	sw	s7,8(a0)
    5a92:	00e51123          	sh	a4,2(a0)
    5a96:	01552223          	sw	s5,4(a0)
    5a9a:	97e2                	add	a5,a5,s8
    5a9c:	0137a023          	sw	s3,0(a5)
    5aa0:	0167a223          	sw	s6,4(a5)
    5aa4:	0157a423          	sw	s5,8(a5)
    5aa8:	000a0463          	beqz	s4,5ab0 <tmos_start_periodic_callback_task+0xde>
    5aac:	009a0023          	sb	s1,0(s4)
    5ab0:	e000e7b7          	lui	a5,0xe000e
    5ab4:	1087a023          	sw	s0,256(a5) # e000e100 <_eusrstack+0xc000b100>
    5ab8:	4501                	li	a0,0
    5aba:	b7b1                	j	5a06 <tmos_start_periodic_callback_task+0x34>
    5abc:	873e                	mv	a4,a5
    5abe:	475c                	lw	a5,12(a4)
    5ac0:	fff5                	bnez	a5,5abc <tmos_start_periodic_callback_task+0xea>
    5ac2:	c748                	sw	a0,12(a4)
    5ac4:	bf65                	j	5a7c <tmos_start_periodic_callback_task+0xaa>
    5ac6:	0485                	addi	s1,s1,1
    5ac8:	f6f49be3          	bne	s1,a5,5a3e <tmos_start_periodic_callback_task+0x6c>
    5acc:	e000e7b7          	lui	a5,0xe000e
    5ad0:	1087a023          	sw	s0,256(a5) # e000e100 <_eusrstack+0xc000b100>
    5ad4:	4521                	li	a0,8
    5ad6:	bf05                	j	5a06 <tmos_start_periodic_callback_task+0x34>

00005ad8 <tmos_set_event>:
tmos_set_event():
    5ad8:	e000e7b7          	lui	a5,0xe000e
    5adc:	4398                	lw	a4,0(a5)
    5ade:	002006b7          	lui	a3,0x200
    5ae2:	18d7a023          	sw	a3,384(a5) # e000e180 <_eusrstack+0xc000b180>
    5ae6:	8f75                	and	a4,a4,a3
    5ae8:	0000100f          	fence.i
    5aec:	67d1c683          	lbu	a3,1661(gp) # 20001d25 <gTmosPara+0x1>
    5af0:	02d57363          	bgeu	a0,a3,5b16 <tmos_set_event+0x3e>
    5af4:	6801a223          	sw	zero,1668(gp) # 20001d2c <gTmosPara+0x8>
    5af8:	6a818613          	addi	a2,gp,1704 # 20001d50 <EventsArr>
    5afc:	00151693          	slli	a3,a0,0x1
    5b00:	4208                	lw	a0,0(a2)
    5b02:	9536                	add	a0,a0,a3
    5b04:	00055683          	lhu	a3,0(a0)
    5b08:	8dd5                	or	a1,a1,a3
    5b0a:	00b51023          	sh	a1,0(a0)
    5b0e:	10e7a023          	sw	a4,256(a5)
    5b12:	4501                	li	a0,0
    5b14:	8082                	ret
    5b16:	10e7a023          	sw	a4,256(a5)
    5b1a:	450d                	li	a0,3
    5b1c:	8082                	ret

00005b1e <tmos_update_periodic_callback_timer>:
tmos_update_periodic_callback_timer():
    5b1e:	1101                	addi	sp,sp,-32
    5b20:	e000e7b7          	lui	a5,0xe000e
    5b24:	ca26                	sw	s1,20(sp)
    5b26:	4384                	lw	s1,0(a5)
    5b28:	00200737          	lui	a4,0x200
    5b2c:	ce06                	sw	ra,28(sp)
    5b2e:	cc22                	sw	s0,24(sp)
    5b30:	c84a                	sw	s2,16(sp)
    5b32:	c64e                	sw	s3,12(sp)
    5b34:	8cf9                	and	s1,s1,a4
    5b36:	18e7a023          	sw	a4,384(a5) # e000e180 <_eusrstack+0xc000b180>
    5b3a:	0000100f          	fence.i
    5b3e:	479d                	li	a5,7
    5b40:	04a7e863          	bltu	a5,a0,5b90 <tmos_update_periodic_callback_timer+0x72>
    5b44:	4731                	li	a4,12
    5b46:	02e50733          	mul	a4,a0,a4
    5b4a:	6e418793          	addi	a5,gp,1764 # 20001d8c <cbTimersHead>
    5b4e:	439c                	lw	a5,0(a5)
    5b50:	97ba                	add	a5,a5,a4
    5b52:	439c                	lw	a5,0(a5)
    5b54:	cf95                	beqz	a5,5b90 <tmos_update_periodic_callback_timer+0x72>
    5b56:	4405                	li	s0,1
    5b58:	00a41433          	sll	s0,s0,a0
    5b5c:	0442                	slli	s0,s0,0x10
    5b5e:	8041                	srli	s0,s0,0x10
    5b60:	892e                	mv	s2,a1
    5b62:	4501                	li	a0,0
    5b64:	85a2                	mv	a1,s0
    5b66:	3b11                	jal	587a <tmosFindTask>
    5b68:	89aa                	mv	s3,a0
    5b6a:	c519                	beqz	a0,5b78 <tmos_update_periodic_callback_timer+0x5a>
    5b6c:	85a2                	mv	a1,s0
    5b6e:	4501                	li	a0,0
    5b70:	91cfc0ef          	jal	ra,1c8c <tmos_clear_event>
    5b74:	0129a423          	sw	s2,8(s3)
    5b78:	e000e7b7          	lui	a5,0xe000e
    5b7c:	1097a023          	sw	s1,256(a5) # e000e100 <_eusrstack+0xc000b100>
    5b80:	4501                	li	a0,0
    5b82:	40f2                	lw	ra,28(sp)
    5b84:	4462                	lw	s0,24(sp)
    5b86:	44d2                	lw	s1,20(sp)
    5b88:	4942                	lw	s2,16(sp)
    5b8a:	49b2                	lw	s3,12(sp)
    5b8c:	6105                	addi	sp,sp,32
    5b8e:	8082                	ret
    5b90:	e000e7b7          	lui	a5,0xe000e
    5b94:	1097a023          	sw	s1,256(a5) # e000e100 <_eusrstack+0xc000b100>
    5b98:	4509                	li	a0,2
    5b9a:	b7e5                	j	5b82 <tmos_update_periodic_callback_timer+0x64>

00005b9c <BLE_SetPHYTxMode>:
BLE_SetPHYTxMode():
    5b9c:	82818793          	addi	a5,gp,-2008 # 20000ed0 <gPaControl>
    5ba0:	439c                	lw	a5,0(a5)
    5ba2:	cb99                	beqz	a5,5bb8 <BLE_SetPHYTxMode+0x1c>
    5ba4:	4b94                	lw	a3,16(a5)
    5ba6:	4bd0                	lw	a2,20(a5)
    5ba8:	4298                	lw	a4,0(a3)
    5baa:	8f51                	or	a4,a4,a2
    5bac:	c298                	sw	a4,0(a3)
    5bae:	4394                	lw	a3,0(a5)
    5bb0:	479c                	lw	a5,8(a5)
    5bb2:	4298                	lw	a4,0(a3)
    5bb4:	8fd9                	or	a5,a5,a4
    5bb6:	c29c                	sw	a5,0(a3)
    5bb8:	70018793          	addi	a5,gp,1792 # 20001da8 <gptrBBReg>
    5bbc:	4705                	li	a4,1
    5bbe:	439c                	lw	a5,0(a5)
    5bc0:	02e51263          	bne	a0,a4,5be4 <BLE_SetPHYTxMode+0x48>
    5bc4:	4398                	lw	a4,0(a5)
    5bc6:	fa0006b7          	lui	a3,0xfa000
    5bca:	16fd                	addi	a3,a3,-1 # f9ffffff <_eusrstack+0xd9ffcfff>
    5bcc:	cff77713          	andi	a4,a4,-769
    5bd0:	c398                	sw	a4,0(a5)
    5bd2:	53d8                	lw	a4,36(a5)
    5bd4:	00259513          	slli	a0,a1,0x2
    5bd8:	0ca50513          	addi	a0,a0,202
    5bdc:	8f75                	and	a4,a4,a3
    5bde:	d3d8                	sw	a4,36(a5)
    5be0:	f3cfc06f          	j	231c <ble_ll_set_timeout>
    5be4:	4398                	lw	a4,0(a5)
    5be6:	fa0006b7          	lui	a3,0xfa000
    5bea:	16fd                	addi	a3,a3,-1 # f9ffffff <_eusrstack+0xd9ffcfff>
    5bec:	cff77713          	andi	a4,a4,-769
    5bf0:	10076713          	ori	a4,a4,256
    5bf4:	c398                	sw	a4,0(a5)
    5bf6:	53d8                	lw	a4,36(a5)
    5bf8:	00359513          	slli	a0,a1,0x3
    5bfc:	0ee50513          	addi	a0,a0,238
    5c00:	8f75                	and	a4,a4,a3
    5c02:	020006b7          	lui	a3,0x2000
    5c06:	8f55                	or	a4,a4,a3
    5c08:	d3d8                	sw	a4,36(a5)
    5c0a:	bfd9                	j	5be0 <BLE_SetPHYTxMode+0x44>

00005c0c <BLE_SetPHYRxMode>:
BLE_SetPHYRxMode():
    5c0c:	82818793          	addi	a5,gp,-2008 # 20000ed0 <gPaControl>
    5c10:	439c                	lw	a5,0(a5)
    5c12:	cf89                	beqz	a5,5c2c <BLE_SetPHYRxMode+0x20>
    5c14:	43d4                	lw	a3,4(a5)
    5c16:	0087a803          	lw	a6,8(a5)
    5c1a:	4298                	lw	a4,0(a3)
    5c1c:	01076733          	or	a4,a4,a6
    5c20:	c298                	sw	a4,0(a3)
    5c22:	47d4                	lw	a3,12(a5)
    5c24:	4bdc                	lw	a5,20(a5)
    5c26:	4298                	lw	a4,0(a3)
    5c28:	8fd9                	or	a5,a5,a4
    5c2a:	c29c                	sw	a5,0(a3)
    5c2c:	72c18713          	addi	a4,gp,1836 # 20001dd4 <gptrRFENDReg>
    5c30:	0595                	addi	a1,a1,5
    5c32:	70018793          	addi	a5,gp,1792 # 20001da8 <gptrBBReg>
    5c36:	4314                	lw	a3,0(a4)
    5c38:	05c2                	slli	a1,a1,0x10
    5c3a:	4705                	li	a4,1
    5c3c:	439c                	lw	a5,0(a5)
    5c3e:	81c1                	srli	a1,a1,0x10
    5c40:	04e51e63          	bne	a0,a4,5c9c <BLE_SetPHYRxMode+0x90>
    5c44:	4398                	lw	a4,0(a5)
    5c46:	fa000537          	lui	a0,0xfa000
    5c4a:	157d                	addi	a0,a0,-1 # f9ffffff <_eusrstack+0xd9ffcfff>
    5c4c:	cff77713          	andi	a4,a4,-769
    5c50:	c398                	sw	a4,0(a5)
    5c52:	53d8                	lw	a4,36(a5)
    5c54:	058e                	slli	a1,a1,0x3
    5c56:	8f69                	and	a4,a4,a0
    5c58:	d3d8                	sw	a4,36(a5)
    5c5a:	7281c703          	lbu	a4,1832(gp) # 20001dd0 <gTuneFilter2M>
    5c5e:	01f77513          	andi	a0,a4,31
    5c62:	4ab8                	lw	a4,80(a3)
    5c64:	9b01                	andi	a4,a4,-32
    5c66:	8f49                	or	a4,a4,a0
    5c68:	cab8                	sw	a4,80(a3)
    5c6a:	4bd8                	lw	a4,20(a5)
    5c6c:	fc077713          	andi	a4,a4,-64
    5c70:	00d76713          	ori	a4,a4,13
    5c74:	cbd8                	sw	a4,20(a5)
    5c76:	07f00713          	li	a4,127
    5c7a:	00e78f23          	sb	a4,30(a5)
    5c7e:	4fd8                	lw	a4,28(a5)
    5c80:	c0077713          	andi	a4,a4,-1024
    5c84:	0a076713          	ori	a4,a4,160
    5c88:	cfd8                	sw	a4,28(a5)
    5c8a:	03c58593          	addi	a1,a1,60
    5c8e:	70b19623          	sh	a1,1804(gp) # 20001db4 <gBleIPPara+0x8>
    5c92:	c601                	beqz	a2,5c9a <BLE_SetPHYRxMode+0x8e>
    5c94:	0606                	slli	a2,a2,0x1
    5c96:	70c19623          	sh	a2,1804(gp) # 20001db4 <gBleIPPara+0x8>
    5c9a:	8082                	ret
    5c9c:	4398                	lw	a4,0(a5)
    5c9e:	fa000537          	lui	a0,0xfa000
    5ca2:	157d                	addi	a0,a0,-1 # f9ffffff <_eusrstack+0xd9ffcfff>
    5ca4:	cff77713          	andi	a4,a4,-769
    5ca8:	10076713          	ori	a4,a4,256
    5cac:	c398                	sw	a4,0(a5)
    5cae:	53d8                	lw	a4,36(a5)
    5cb0:	0592                	slli	a1,a1,0x4
    5cb2:	8f69                	and	a4,a4,a0
    5cb4:	02000537          	lui	a0,0x2000
    5cb8:	8f49                	or	a4,a4,a0
    5cba:	d3d8                	sw	a4,36(a5)
    5cbc:	7291c703          	lbu	a4,1833(gp) # 20001dd1 <gTuneFilter>
    5cc0:	01f77513          	andi	a0,a4,31
    5cc4:	4ab8                	lw	a4,80(a3)
    5cc6:	9b01                	andi	a4,a4,-32
    5cc8:	8f49                	or	a4,a4,a0
    5cca:	cab8                	sw	a4,80(a3)
    5ccc:	4bd8                	lw	a4,20(a5)
    5cce:	fc077713          	andi	a4,a4,-64
    5cd2:	00b76713          	ori	a4,a4,11
    5cd6:	cbd8                	sw	a4,20(a5)
    5cd8:	07800713          	li	a4,120
    5cdc:	00e78f23          	sb	a4,30(a5)
    5ce0:	4fd8                	lw	a4,28(a5)
    5ce2:	c0077713          	andi	a4,a4,-1024
    5ce6:	09c76713          	ori	a4,a4,156
    5cea:	cfd8                	sw	a4,28(a5)
    5cec:	bf79                	j	5c8a <BLE_SetPHYRxMode+0x7e>

00005cee <ble_ll_hw_api_shut>:
ble_ll_hw_api_shut():
    5cee:	1141                	addi	sp,sp,-16
    5cf0:	4501                	li	a0,0
    5cf2:	c606                	sw	ra,12(sp)
    5cf4:	226d                	jal	5e9e <LLE_DevSetMode>
    5cf6:	82818793          	addi	a5,gp,-2008 # 20000ed0 <gPaControl>
    5cfa:	439c                	lw	a5,0(a5)
    5cfc:	cb99                	beqz	a5,5d12 <ble_ll_hw_api_shut+0x24>
    5cfe:	43d4                	lw	a3,4(a5)
    5d00:	4790                	lw	a2,8(a5)
    5d02:	4298                	lw	a4,0(a3)
    5d04:	8f51                	or	a4,a4,a2
    5d06:	c298                	sw	a4,0(a3)
    5d08:	4b94                	lw	a3,16(a5)
    5d0a:	4bdc                	lw	a5,20(a5)
    5d0c:	4298                	lw	a4,0(a3)
    5d0e:	8fd9                	or	a5,a5,a4
    5d10:	c29c                	sw	a5,0(a3)
    5d12:	72018793          	addi	a5,gp,1824 # 20001dc8 <gptrLLEReg>
    5d16:	439c                	lw	a5,0(a5)
    5d18:	4bb8                	lw	a4,80(a5)
    5d1a:	8ff77713          	andi	a4,a4,-1793
    5d1e:	cbb8                	sw	a4,80(a5)
    5d20:	4398                	lw	a4,0(a5)
    5d22:	00876713          	ori	a4,a4,8
    5d26:	c398                	sw	a4,0(a5)
    5d28:	40b2                	lw	ra,12(sp)
    5d2a:	700184a3          	sb	zero,1801(gp) # 20001db1 <gBleIPPara+0x5>
    5d2e:	0141                	addi	sp,sp,16
    5d30:	8082                	ret

00005d32 <phy_status_clear>:
phy_status_clear():
    5d32:	72018793          	addi	a5,gp,1824 # 20001dc8 <gptrLLEReg>
    5d36:	439c                	lw	a5,0(a5)
    5d38:	439c                	lw	a5,0(a5)
    5d3a:	8b8d                	andi	a5,a5,3
    5d3c:	c7a1                	beqz	a5,5d84 <phy_status_clear+0x52>
    5d3e:	1141                	addi	sp,sp,-16
    5d40:	c606                	sw	ra,12(sp)
    5d42:	7091c703          	lbu	a4,1801(gp) # 20001db1 <gBleIPPara+0x5>
    5d46:	478d                	li	a5,3
    5d48:	00f71963          	bne	a4,a5,5d5a <phy_status_clear+0x28>
    5d4c:	83018793          	addi	a5,gp,-2000 # 20000ed8 <rfStatusCBs>
    5d50:	439c                	lw	a5,0(a5)
    5d52:	4601                	li	a2,0
    5d54:	4581                	li	a1,0
    5d56:	4545                	li	a0,17
    5d58:	9782                	jalr	a5
    5d5a:	70418793          	addi	a5,gp,1796 # 20001dac <gBleIPPara>
    5d5e:	0057c783          	lbu	a5,5(a5)
    5d62:	4721                	li	a4,8
    5d64:	0ff7f793          	zext.b	a5,a5
    5d68:	00e79963          	bne	a5,a4,5d7a <phy_status_clear+0x48>
    5d6c:	02000593          	li	a1,32
    5d70:	82c1c503          	lbu	a0,-2004(gp) # 20000ed4 <gRfTaskId>
    5d74:	70f18523          	sb	a5,1802(gp) # 20001db2 <gBleIPPara+0x6>
    5d78:	3385                	jal	5ad8 <tmos_set_event>
    5d7a:	40b2                	lw	ra,12(sp)
    5d7c:	70018e23          	sb	zero,1820(gp) # 20001dc4 <tmosSign>
    5d80:	0141                	addi	sp,sp,16
    5d82:	b7b5                	j	5cee <ble_ll_hw_api_shut>
    5d84:	8082                	ret

00005d86 <tmos_memory_allocate>:
tmos_memory_allocate():
    5d86:	1141                	addi	sp,sp,-16
    5d88:	e000e7b7          	lui	a5,0xe000e
    5d8c:	c422                	sw	s0,8(sp)
    5d8e:	4380                	lw	s0,0(a5)
    5d90:	00200737          	lui	a4,0x200
    5d94:	c606                	sw	ra,12(sp)
    5d96:	8c79                	and	s0,s0,a4
    5d98:	18e7a023          	sw	a4,384(a5) # e000e180 <_eusrstack+0xc000b180>
    5d9c:	0000100f          	fence.i
    5da0:	c111                	beqz	a0,5da4 <tmos_memory_allocate+0x1e>
    5da2:	e599                	bnez	a1,5db0 <tmos_memory_allocate+0x2a>
    5da4:	e000e7b7          	lui	a5,0xe000e
    5da8:	1087a023          	sw	s0,256(a5) # e000e100 <_eusrstack+0xc000b100>
    5dac:	4501                	li	a0,0
    5dae:	a879                	j	5e4c <tmos_memory_allocate+0xc6>
    5db0:	00350793          	addi	a5,a0,3 # 2000003 <_data_lma+0x1ffa07b>
    5db4:	07c2                	slli	a5,a5,0x10
    5db6:	83c1                	srli	a5,a5,0x10
    5db8:	9bf1                	andi	a5,a5,-4
    5dba:	07c2                	slli	a5,a5,0x10
    5dbc:	83c1                	srli	a5,a5,0x10
    5dbe:	03400713          	li	a4,52
    5dc2:	02f76363          	bltu	a4,a5,5de8 <tmos_memory_allocate+0x62>
    5dc6:	7a018713          	addi	a4,gp,1952 # 20001e48 <MemCtlStart>
    5dca:	4308                	lw	a0,0(a4)
    5dcc:	79818713          	addi	a4,gp,1944 # 20001e40 <MemCtlEnd>
    5dd0:	4314                	lw	a3,0(a4)
    5dd2:	00a69e63          	bne	a3,a0,5dee <tmos_memory_allocate+0x68>
    5dd6:	6b018713          	addi	a4,gp,1712 # 20001d58 <ble>
    5dda:	5718                	lw	a4,40(a4)
    5ddc:	d761                	beqz	a4,5da4 <tmos_memory_allocate+0x1e>
    5dde:	07c2                	slli	a5,a5,0x10
    5de0:	8ddd                	or	a1,a1,a5
    5de2:	4505                	li	a0,1
    5de4:	9702                	jalr	a4
    5de6:	bf7d                	j	5da4 <tmos_memory_allocate+0x1e>
    5de8:	79c18713          	addi	a4,gp,1948 # 20001e44 <MemCtlPartition>
    5dec:	bff9                	j	5dca <tmos_memory_allocate+0x44>
    5dee:	00655703          	lhu	a4,6(a0)
    5df2:	e32d                	bnez	a4,5e54 <tmos_memory_allocate+0xce>
    5df4:	00455703          	lhu	a4,4(a0)
    5df8:	04f76e63          	bltu	a4,a5,5e54 <tmos_memory_allocate+0xce>
    5dfc:	40f706b3          	sub	a3,a4,a5
    5e00:	4621                	li	a2,8
    5e02:	02d67863          	bgeu	a2,a3,5e32 <tmos_memory_allocate+0xac>
    5e06:	00052803          	lw	a6,0(a0)
    5e0a:	00878693          	addi	a3,a5,8
    5e0e:	8f1d                	sub	a4,a4,a5
    5e10:	96aa                	add	a3,a3,a0
    5e12:	1761                	addi	a4,a4,-8 # 1ffff8 <_data_lma+0x1fa070>
    5e14:	6801d603          	lhu	a2,1664(gp) # 20001d28 <gTmosPara+0x4>
    5e18:	00069323          	sh	zero,6(a3) # 2000006 <_data_lma+0x1ffa07e>
    5e1c:	00e69223          	sh	a4,4(a3)
    5e20:	0106a023          	sw	a6,0(a3)
    5e24:	c114                	sw	a3,0(a0)
    5e26:	00f51223          	sh	a5,4(a0)
    5e2a:	ff860713          	addi	a4,a2,-8
    5e2e:	68e19023          	sh	a4,1664(gp) # 20001d28 <gTmosPara+0x4>
    5e32:	00b51323          	sh	a1,6(a0)
    5e36:	6801d583          	lhu	a1,1664(gp) # 20001d28 <gTmosPara+0x4>
    5e3a:	40f587b3          	sub	a5,a1,a5
    5e3e:	68f19023          	sh	a5,1664(gp) # 20001d28 <gTmosPara+0x4>
    5e42:	e000e7b7          	lui	a5,0xe000e
    5e46:	1087a023          	sw	s0,256(a5) # e000e100 <_eusrstack+0xc000b100>
    5e4a:	0521                	addi	a0,a0,8
    5e4c:	40b2                	lw	ra,12(sp)
    5e4e:	4422                	lw	s0,8(sp)
    5e50:	0141                	addi	sp,sp,16
    5e52:	8082                	ret
    5e54:	4108                	lw	a0,0(a0)
    5e56:	bfb5                	j	5dd2 <tmos_memory_allocate+0x4c>

Disassembly of section .highcode_lp:

00005e58 <BB_DevInit>:
BB_DevInit():
    5e58:	70018793          	addi	a5,gp,1792 # 20001da8 <gptrBBReg>
    5e5c:	4394                	lw	a3,0(a5)
    5e5e:	000207b7          	lui	a5,0x20
    5e62:	20c78793          	addi	a5,a5,524 # 2020c <_data_lma+0x1a284>
    5e66:	de9c                	sw	a5,56(a3)
    5e68:	05000793          	li	a5,80
    5e6c:	dedc                	sw	a5,60(a3)
    5e6e:	e000e737          	lui	a4,0xe000e
    5e72:	47d1                	li	a5,20
    5e74:	04f709a3          	sb	a5,83(a4) # e000e053 <_eusrstack+0xc000b053>
    5e78:	1fffa797          	auipc	a5,0x1fffa
    5e7c:	5b478793          	addi	a5,a5,1460 # 2000042c <BB_IRQLibFunction>
    5e80:	0017e793          	ori	a5,a5,1
    5e84:	d77c                	sw	a5,108(a4)
    5e86:	6c41c783          	lbu	a5,1732(gp) # 20001d6c <ble+0x14>
    5e8a:	0407e793          	ori	a5,a5,64
    5e8e:	01979713          	slli	a4,a5,0x19
    5e92:	5adc                	lw	a5,52(a3)
    5e94:	079e                	slli	a5,a5,0x7
    5e96:	839d                	srli	a5,a5,0x7
    5e98:	8fd9                	or	a5,a5,a4
    5e9a:	dadc                	sw	a5,52(a3)
    5e9c:	8082                	ret

00005e9e <LLE_DevSetMode>:
LLE_DevSetMode():
    5e9e:	70018793          	addi	a5,gp,1792 # 20001da8 <gptrBBReg>
    5ea2:	439c                	lw	a5,0(a5)
    5ea4:	72c18713          	addi	a4,gp,1836 # 20001dd4 <gptrRFENDReg>
    5ea8:	4310                	lw	a2,0(a4)
    5eaa:	fffd0737          	lui	a4,0xfffd0
    5eae:	fff70693          	addi	a3,a4,-1 # fffcffff <_eusrstack+0xdffccfff>
    5eb2:	4398                	lw	a4,0(a5)
    5eb4:	8f75                	and	a4,a4,a3
    5eb6:	c50d                	beqz	a0,5ee0 <LLE_DevSetMode+0x42>
    5eb8:	c398                	sw	a4,0(a5)
    5eba:	4398                	lw	a4,0(a5)
    5ebc:	8f75                	and	a4,a4,a3
    5ebe:	000206b7          	lui	a3,0x20
    5ec2:	8f55                	or	a4,a4,a3
    5ec4:	c398                	sw	a4,0(a5)
    5ec6:	461c                	lw	a5,8(a2)
    5ec8:	00330737          	lui	a4,0x330
    5ecc:	8fd9                	or	a5,a5,a4
    5ece:	c61c                	sw	a5,8(a2)
    5ed0:	72018793          	addi	a5,gp,1824 # 20001dc8 <gptrLLEReg>
    5ed4:	439c                	lw	a5,0(a5)
    5ed6:	00030737          	lui	a4,0x30
    5eda:	8d59                	or	a0,a0,a4
    5edc:	cba8                	sw	a0,80(a5)
    5ede:	8082                	ret
    5ee0:	66c1                	lui	a3,0x10
    5ee2:	8f55                	or	a4,a4,a3
    5ee4:	c398                	sw	a4,0(a5)
    5ee6:	461c                	lw	a5,8(a2)
    5ee8:	ffce0737          	lui	a4,0xffce0
    5eec:	177d                	addi	a4,a4,-1 # ffcdffff <_eusrstack+0xdfcdcfff>
    5eee:	8ff9                	and	a5,a5,a4
    5ef0:	bff9                	j	5ece <LLE_DevSetMode+0x30>

00005ef2 <LLE_DevInit>:
LLE_DevInit():
    5ef2:	70018e23          	sb	zero,1820(gp) # 20001dc4 <tmosSign>
    5ef6:	7201a223          	sw	zero,1828(gp) # 20001dcc <pfnHandle>
    5efa:	72018793          	addi	a5,gp,1824 # 20001dc8 <gptrLLEReg>
    5efe:	439c                	lw	a5,0(a5)
    5f00:	08c00713          	li	a4,140
    5f04:	07600693          	li	a3,118
    5f08:	cbd8                	sw	a4,20(a5)
    5f0a:	cfd4                	sw	a3,28(a5)
    5f0c:	d3d8                	sw	a4,36(a5)
    5f0e:	06c00613          	li	a2,108
    5f12:	d7d0                	sw	a2,44(a5)
    5f14:	dbd8                	sw	a4,52(a5)
    5f16:	dfd0                	sw	a2,60(a5)
    5f18:	c3f8                	sw	a4,68(a5)
    5f1a:	c7f4                	sw	a3,76(a5)
    5f1c:	07800713          	li	a4,120
    5f20:	00e79323          	sh	a4,6(a5)
    5f24:	70418713          	addi	a4,gp,1796 # 20001dac <gBleIPPara>
    5f28:	4b58                	lw	a4,20(a4)
    5f2a:	0407aa23          	sw	zero,84(a5)
    5f2e:	dff8                	sw	a4,124(a5)
    5f30:	577d                	li	a4,-1
    5f32:	c798                	sw	a4,8(a5)
    5f34:	00160737          	lui	a4,0x160
    5f38:	073d                	addi	a4,a4,15 # 16000f <_data_lma+0x15a087>
    5f3a:	c7d8                	sw	a4,12(a5)
    5f3c:	e000e737          	lui	a4,0xe000e
    5f40:	47d5                	li	a5,21
    5f42:	04f70923          	sb	a5,82(a4) # e000e052 <_eusrstack+0xc000b052>
    5f46:	1fffa797          	auipc	a5,0x1fffa
    5f4a:	7ae78793          	addi	a5,a5,1966 # 200006f4 <LLE_IRQFIOFHandler>
    5f4e:	0017e793          	ori	a5,a5,1
    5f52:	d73c                	sw	a5,104(a4)
    5f54:	8082                	ret

00005f56 <RFEND_WaitTune>:
RFEND_WaitTune():
    5f56:	72018793          	addi	a5,gp,1824 # 20001dc8 <gptrLLEReg>
    5f5a:	4398                	lw	a4,0(a5)
    5f5c:	6789                	lui	a5,0x2
    5f5e:	f4078793          	addi	a5,a5,-192 # 1f40 <tmos_idle+0xc2>
    5f62:	d37c                	sw	a5,100(a4)
    5f64:	72c18793          	addi	a5,gp,1836 # 20001dd4 <gptrRFENDReg>
    5f68:	439c                	lw	a5,0(a5)
    5f6a:	0907a683          	lw	a3,144(a5)
    5f6e:	00569613          	slli	a2,a3,0x5
    5f72:	00065863          	bgez	a2,5f82 <RFEND_WaitTune+0x2c>
    5f76:	0907a683          	lw	a3,144(a5)
    5f7a:	00669613          	slli	a2,a3,0x6
    5f7e:	00064463          	bltz	a2,5f86 <RFEND_WaitTune+0x30>
    5f82:	5374                	lw	a3,100(a4)
    5f84:	f2fd                	bnez	a3,5f6a <RFEND_WaitTune+0x14>
    5f86:	8082                	ret
