
TMR.elf:     file format elf32-littleriscv
TMR.elf
architecture: riscv:rv32, flags 0x00000112:
EXEC_P, HAS_SYMS, D_PAGED
start address 0x00000000

Program Header:
0x70000003 off    0x0000bf74 vaddr 0x00000000 paddr 0x00000000 align 2**0
         filesz 0x00000051 memsz 0x00000000 flags r--
    LOAD off    0x00001000 vaddr 0x00000000 paddr 0x00000000 align 2**12
         filesz 0x00000004 memsz 0x00000004 flags r-x
    LOAD off    0x00002000 vaddr 0x20000000 paddr 0x00000004 align 2**12
         filesz 0x000006fc memsz 0x000006fc flags r-x
    LOAD off    0x00002700 vaddr 0x00000700 paddr 0x00000700 align 2**12
         filesz 0x0000187e memsz 0x00001880 flags rwx
    LOAD off    0x000046fc vaddr 0x200006fc paddr 0x00001f80 align 2**12
         filesz 0x00000070 memsz 0x0000008c flags rw-

Sections:
Idx Name                 Size      VMA       LMA       File off  Algn  Flags
  0 .init                00000004  00000000  00000000  00001000  2**1  CONTENTS, ALLOC, LOAD, READONLY, CODE
  1 .highcode_initlalign 00000000  00000004  00000004  0000476c  2**0  CONTENTS
  2 .highcodelalign      00000000  00000004  00000004  0000476c  2**0  CONTENTS
  3 .highcode            000006fc  20000000  00000004  00002000  2**1  CONTENTS, ALLOC, LOAD, READONLY, CODE
  4 .text                0000187c  00000700  00000700  00002700  2**2  CONTENTS, ALLOC, LOAD, READONLY, CODE
  5 .vector_handler      00000002  00001f7c  00001f7c  00003f7c  2**0  CONTENTS, ALLOC, LOAD, READONLY, CODE
  6 .fini                00000002  00001f7e  00001f7e  00003f7e  2**0  ALLOC, CODE
  7 .dlalign             00000000  00001f80  00001f80  0000476c  2**0  CONTENTS
  8 .data                00000070  200006fc  00001f80  000046fc  2**2  CONTENTS, ALLOC, LOAD, DATA
  9 .bss                 0000001c  2000076c  00001ff0  0000476c  2**2  ALLOC
 10 .stack               00000000  20003000  20003000  0000476c  2**0  CONTENTS
 11 .debug_info          00002331  00000000  00000000  0000476c  2**0  CONTENTS, READONLY, DEBUGGING, OCTETS
 12 .debug_abbrev        00000b07  00000000  00000000  00006a9d  2**0  CONTENTS, READONLY, DEBUGGING, OCTETS
 13 .debug_aranges       00000208  00000000  00000000  000075a8  2**3  CONTENTS, READONLY, DEBUGGING, OCTETS
 14 .debug_rnglists      000002ab  00000000  00000000  000077b0  2**0  CONTENTS, READONLY, DEBUGGING, OCTETS
 15 .debug_line          000031e4  00000000  00000000  00007a5b  2**0  CONTENTS, READONLY, DEBUGGING, OCTETS
 16 .debug_str           00000dfe  00000000  00000000  0000ac3f  2**0  CONTENTS, READONLY, DEBUGGING, OCTETS
 17 .debug_line_str      000004d3  00000000  00000000  0000ba3d  2**0  CONTENTS, READONLY, DEBUGGING, OCTETS
 18 .comment             00000064  00000000  00000000  0000bf10  2**0  CONTENTS, READONLY
 19 .riscv.attributes    00000051  00000000  00000000  0000bf74  2**0  CONTENTS, READONLY
 20 .debug_frame         00000420  00000000  00000000  0000bfc8  2**2  CONTENTS, READONLY, DEBUGGING, OCTETS
 21 .debug_loclists      00000d88  00000000  00000000  0000c3e8  2**0  CONTENTS, READONLY, DEBUGGING, OCTETS
SYMBOL TABLE:
00000000 l    d  .init	00000000 .init
00000004 l    d  .highcode_initlalign	00000000 .highcode_initlalign
00000004 l    d  .highcodelalign	00000000 .highcodelalign
20000000 l    d  .highcode	00000000 .highcode
00000700 l    d  .text	00000000 .text
00001f7c l    d  .vector_handler	00000000 .vector_handler
00001f7e l    d  .fini	00000000 .fini
00001f80 l    d  .dlalign	00000000 .dlalign
200006fc l    d  .data	00000000 .data
2000076c l    d  .bss	00000000 .bss
20003000 l    d  .stack	00000000 .stack
00000000 l    d  .debug_info	00000000 .debug_info
00000000 l    d  .debug_abbrev	00000000 .debug_abbrev
00000000 l    d  .debug_aranges	00000000 .debug_aranges
00000000 l    d  .debug_rnglists	00000000 .debug_rnglists
00000000 l    d  .debug_line	00000000 .debug_line
00000000 l    d  .debug_str	00000000 .debug_str
00000000 l    d  .debug_line_str	00000000 .debug_line_str
00000000 l    d  .comment	00000000 .comment
00000000 l    d  .riscv.attributes	00000000 .riscv.attributes
00000000 l    d  .debug_frame	00000000 .debug_frame
00000000 l    d  .debug_loclists	00000000 .debug_loclists
00000000 l    df *ABS*	00000000 startup_CH572.o
00001f7c l       .vector_handler	00000000 ENDOCE_IRQHandler
00000000 l    df *ABS*	00000000 Main.c
00000000 l    df *ABS*	00000000 CH57x_sys.c
20000760 l     O .data	00000004 curbrk.0
00000000 l    df *ABS*	00000000 ISP572.c
2000042e l       .highcode	00000000 .loop52
2000043c l       .highcode	00000000 .loop63
2000044a l       .highcode	00000000 .loop74
2000054a l       .highcode	00000000 .loop247
00000000 l    df *ABS*	00000000 lib_a-memset.o
00000000 l    df *ABS*	00000000 CH57x_clk.c
00000000 l    df *ABS*	00000000 CH57x_gpio.c
00000000 l    df *ABS*	00000000 CH57x_uart.c
00000000 l    df *ABS*	00000000 lib_a-printf.o
00000000 l    df *ABS*	00000000 lib_a-puts.o
00000000 l    df *ABS*	00000000 lib_a-wbuf.o
00000000 l    df *ABS*	00000000 lib_a-wsetup.o
00000000 l    df *ABS*	00000000 lib_a-fflush.o
00000000 l    df *ABS*	00000000 lib_a-findfp.o
00001054 l     F .text	00000066 std
00000000 l    df *ABS*	00000000 lib_a-fwalk.o
00000000 l    df *ABS*	00000000 lib_a-lock.o
00000000 l    df *ABS*	00000000 lib_a-makebuf.o
00000000 l    df *ABS*	00000000 lib_a-nano-freer.o
00000000 l    df *ABS*	00000000 lib_a-nano-mallocr.o
00001426 l     F .text	00000054 sbrk_aligned
00000000 l    df *ABS*	00000000 lib_a-nano-vfprintf.o
0000157c l     F .text	00000028 __sfputc_r
00000000 l    df *ABS*	00000000 lib_a-sbrkr.o
00000000 l    df *ABS*	00000000 lib_a-stdio.o
00000000 l    df *ABS*	00000000 lib_a-writer.o
00000000 l    df *ABS*	00000000 lib_a-closer.o
00000000 l    df *ABS*	00000000 lib_a-fstatr.o
00000000 l    df *ABS*	00000000 lib_a-isattyr.o
00000000 l    df *ABS*	00000000 lib_a-lseekr.o
00000000 l    df *ABS*	00000000 lib_a-memchr.o
00000000 l    df *ABS*	00000000 lib_a-mlock.o
00000000 l    df *ABS*	00000000 lib_a-nano-vfprintf_i.o
00000000 l    df *ABS*	00000000 lib_a-readr.o
00000000 l    df *ABS*	00000000 close.o
00000000 l    df *ABS*	00000000 fstat.o
00000000 l    df *ABS*	00000000 isatty.o
00000000 l    df *ABS*	00000000 lseek.o
00000000 l    df *ABS*	00000000 read.o
00000000 l    df *ABS*	00000000 lib_a-impure.o
200006fc l     O .data	00000060 impure_data
000019d8 g     F .text	00000026 _isatty_r
00000bde g     F .text	00000104 _puts_r
000019fe g     F .text	0000002a _lseek_r
2000044a g     F .highcode	0000000e FLASH_ROM_OUT
00001f7c  w      .vector_handler	00000000 CMP_IRQHandler
00000ba0 g     F .text	0000003e printf
20000f60 g       .data	00000000 __global_pointer$
0000192a g     F .text	0000002e __sseek
00001122 g     F .text	00000068 __sinit
00000cee g     F .text	000000bc __swbuf_r
200003ba g     F .highcode	0000000e mDelayuS
20000336  w    F .highcode	00000084 HardFault_Handler
000010c4 g     F .text	00000046 __sfmoreglue
00001a48 g     F .text	00000008 __malloc_unlock
00001f7c  w      .vector_handler	00000000 GPIOA_IRQHandler
00001f7c  w      .vector_handler	00000000 SysTick_Handler
00001f7c  w      .vector_handler	00000000 NMI_Handler
00001f7c  w      .vector_handler	00000000 UART_IRQHandler
000019b0 g     F .text	00000028 _fstat_r
20000784 g     O .bss	00000004 errno
2000050e g     F .highcode	00000060 FLASH_CMD_ROM_WRITE
2000076c g       .bss	00000000 _sbss
2000043c g     F .highcode	0000000e FLASH_ROM_IN
00000a10 g     F .text	00000032 UART_DefInit
00000866 g     F .text	00000050 HSECFG_Capacitance
000010ba g     F .text	0000000a _cleanup_r
00000ce2 g     F .text	0000000c puts
00001f7c  w      .vector_handler	00000000 SWI_Handler
00001e08 g     F .text	0000000c _fstat
00000004 g       .init	00000000 _einit
00001f7c  w      .vector_handler	00000000 BB_IRQHandler
00000a6a g     F .text	00000136 FLASH_EEPROM_CMD
00001f7c  w      .vector_handler	00000000 Break_Point_Handler
200004d8 g     F .highcode	00000036 FLASH_START
00001892 g     F .text	00000028 _sbrk_r
00001dd2 g     F .text	0000002a _read_r
2000041a g     F .highcode	00000014 FLASH_ROM_BEG
2000056e g     F .highcode	00000072 FLASH_CMD_ROM_ERASE
200003c8 g     F .highcode	0000001e mDelaymS
00001f7c  w      .vector_handler	00000000 Ecall_M_Mode_Handler
00001e14 g     F .text	0000000c _isatty
20000778 g     O .bss	00000001 __lock___sinit_recursive_mutex
20000768 g     O .data	00000004 _global_impure_ptr
20000458 g     F .highcode	00000048 FLASH_ROM_ADDR
000009b8 g     F .text	00000028 _sbrk
00001f7c  w      .vector_handler	00000000 RTC_IRQHandler
20000788 g       .bss	00000000 _ebss
00001f7c  w      .vector_handler	00000000 SPI_IRQHandler
20000770 g     O .bss	00000001 __lock___malloc_recursive_mutex
200004a0 g     F .highcode	00000038 FLASH_ROM_WAIT
00000a42 g     F .text	00000028 UART_Remap
00001e88 g     O .text	00000020 __sf_fake_stderr
20000000 g       .highcode	00000000 _vector_base
0000129c g     F .text	00000002 __retarget_lock_release_recursive
00001f7c  w      .vector_handler	00000000 PWMX_IRQHandler
000015a4 g     F .text	00000040 __sfputs_r
0000110a g     F .text	00000006 __sfp_lock_acquire
00001a28 g     F .text	00000018 memchr
00001388 g     F .text	0000009e _free_r
000007c2 g     F .text	00000028 DebugInit
00000000 g       .init	00000000 _start
00001e20 g     F .text	0000000c _lseek
20000000 g       .highcode	00000000 _highcode_vma_start
0000198a g     F .text	00000026 _close_r
00001f7c  w      .vector_handler	00000000 KEYSCAN_IRQHandler
200006fc g       .data	00000000 _data_vma
200000f6 g     F .highcode	00000240 SetSysClock
00001f7c  w      .vector_handler	00000000 USB_IRQHandler
00000daa g     F .text	000000f2 __swsetup_r
200006a2 g     F .highcode	0000003e FLASH_CMD_GET_UNIQUE_ID
0000118a g     F .text	000000a6 __sfp
20000630 g     F .highcode	00000012 FLASH_CMD_ROM_PWR
0000111c g     F .text	00000006 __sinit_lock_release
000018ba g     F .text	0000002a __sread
00001a40 g     F .text	00000008 __malloc_lock
00000fce g     F .text	00000086 _fflush_r
00001ec8 g     O .text	00000020 __sf_fake_stdin
0000129a g     F .text	00000002 __retarget_lock_acquire_recursive
00001f7c  w      .vector_handler	00000000 I2C_IRQHandler
000007b2 g     F .text	00000010 memset
000007ea g     F .text	0000007c main
00001298 g     F .text	00000002 __retarget_lock_init_recursive
00001958 g     F .text	00000006 __sclose
0000147a g     F .text	00000102 _malloc_r
00000004 g       .highcodelalign	00000000 _highcode_lma
00000ba0 g     F .text	0000003e iprintf
00001f7c  w      .vector_handler	00000000 LLE_IRQHandler
00000000 g       .init	00000000 _sinit
0000195e g     F .text	0000002c _write_r
200006e0 g     F .highcode	0000001a FLASH_CMD_ROM_SW_RESET
20000090 g     F .highcode	00000016 TMR_IRQHandler
00001a50 g     F .text	0000010a _printf_common
20000764 g     O .data	00000004 _impure_ptr
00000e9c g     F .text	00000132 __sflush_r
2000076c g     O .bss	00000004 Freq_LSI
00001f7c  w      .vector_handler	00000000 WDOG_BAT_IRQHandler
00001f7c  w      .vector_handler	00000000 Ecall_U_Mode_Handler
200000a6 g     F .highcode	00000050 ENCODER_IRQHandler
20003000 g       .stack	00000000 _eusrstack
000008b6 g     F .text	00000082 GPIOA_ModeCfg
0000129e g     F .text	00000058 __swhatbuf_r
00000938 g     F .text	0000005a GetSysClock
200003e6 g     F .highcode	00000034 FLASH_ROM_BEG_FF
20000642 g     F .highcode	00000060 FLASH_CMD_GET_ROM_INFO
00000992 g     F .text	00000026 _write
2000076c g       .data	00000000 _edata
20000788 g       .bss	00000000 _end
200006fc g       .highcode	00000000 _highcode_vma_end
00001f80 g       .dlalign	00000000 _data_lma
000018e4 g     F .text	00000046 __swrite
000015e4 g     F .text	000002ae _vfiprintf_r
00001230 g     F .text	00000068 _fwalk_reent
00001110 g     F .text	00000006 __sfp_lock_release
00001ea8 g     O .text	00000020 __sf_fake_stdout
00001e2c g     F .text	0000000c _read
00000700  w      .text	00000000 handle_reset
000012f6 g     F .text	00000092 __smakebuf_r
00001b5a g     F .text	00000278 _printf_i
2000077c g     O .bss	00000004 __malloc_sbrk_start
000009e0 g     F .text	00000030 UART_BaudRateCfg
2000042e g     F .highcode	0000000e FLASH_ROM_END
20000780 g     O .bss	00000004 __malloc_free_list
000015e4 g     F .text	000002ae _vfprintf_r
200005e0 g     F .highcode	00000050 FLASH_CMD_ROM_VERIFY
20000774 g     O .bss	00000001 __lock___sfp_recursive_mutex
00001dfc g     F .text	0000000c _close
00001116 g     F .text	00000006 __sinit_lock_acquire



Disassembly of section .init:

00000000 <_sinit>:
_start():
F:/private/nanoCH57x-private/doc/CH572EVT/EVT/EXAM/SRC/Startup/startup_CH572.S:18
	.section	.init,"ax",@progbits
	.global	_start
 	.global	_vector_base
	.align	1
_start:
	j	handle_reset
   0:	7000006f          	j	700 <handle_reset>

Disassembly of section .highcode:

20000000 <_highcode_vma_start>:
	...
_vector_base():
20000008:	00001f7c          	.word	0x00001f7c
2000000c:	20000336          	.word	0x20000336
20000010:	f3f9bda9          	.word	0xf3f9bda9
20000014:	00001f7c          	.word	0x00001f7c
	...
20000020:	00001f7c          	.word	0x00001f7c
20000024:	00001f7c          	.word	0x00001f7c
	...
20000030:	00001f7c          	.word	0x00001f7c
20000034:	00000000          	.word	0x00000000
20000038:	00001f7c          	.word	0x00001f7c
	...
20000044:	00001f7c          	.word	0x00001f7c
20000048:	00000000          	.word	0x00000000
2000004c:	00001f7c          	.word	0x00001f7c
20000050:	00001f7c          	.word	0x00001f7c
20000054:	00001f7c          	.word	0x00001f7c
20000058:	00001f7c          	.word	0x00001f7c
2000005c:	00000000          	.word	0x00000000
20000060:	20000090          	.word	0x20000090
	...
2000006c:	00001f7c          	.word	0x00001f7c
20000070:	00001f7c          	.word	0x00001f7c
20000074:	00001f7c          	.word	0x00001f7c
20000078:	00001f7c          	.word	0x00001f7c
2000007c:	00001f7c          	.word	0x00001f7c
20000080:	00000000          	.word	0x00000000
20000084:	00001f7c          	.word	0x00001f7c
20000088:	200000a6          	.word	0x200000a6
2000008c:	00001f7c          	.word	0x00001f7c

20000090 <TMR_IRQHandler>:
TMR_IRQHandler():
F:\private\nanoCH57x-private\doc\CH572EVT\EVT\EXAM\TMR\obj/../src/Main.c:207
 */
__INTERRUPT
__HIGH_CODE
void TMR_IRQHandler(void) // TMR0 定时中断
{
    if(TMR_GetITFlag(TMR_IT_CYC_END))
20000090:	40002737          	lui	a4,0x40002
20000094:	40674783          	lbu	a5,1030(a4) # 40002406 <_eusrstack+0x1ffff406>
20000098:	8b85                	andi	a5,a5,1
2000009a:	c781                	beqz	a5,200000a2 <TMR_IRQHandler+0x12>
F:\private\nanoCH57x-private\doc\CH572EVT\EVT\EXAM\TMR\obj/../src/Main.c:209
    {
        TMR_ClearITFlag(TMR_IT_CYC_END); // 清除中断标志
2000009c:	4785                	li	a5,1
2000009e:	40f70323          	sb	a5,1030(a4)
F:\private\nanoCH57x-private\doc\CH572EVT\EVT\EXAM\TMR\obj/../src/Main.c:228
        PRINT("DMA end\n");
        /* DMA 结束 */
        /* 用户可自行添加需要的处理 */
#endif
    }
}
200000a2:	30200073          	mret

200000a6 <ENCODER_IRQHandler>:
ENCODER_IRQHandler():
F:\private\nanoCH57x-private\doc\CH572EVT\EVT\EXAM\TMR\obj/../src/Main.c:240
 * @return  none
 */
__INTERRUPT
__HIGH_CODE
void ENCODER_IRQHandler( void )
{
200000a6:	1141                	addi	sp,sp,-16
200000a8:	c622                	sw	s0,12(sp)
F:\private\nanoCH57x-private\doc\CH572EVT\EVT\EXAM\TMR\obj/../src/Main.c:241
    if(ENC_GetITFlag(RB_IF_DIR_INC))
200000aa:	40002437          	lui	s0,0x40002
200000ae:	42244783          	lbu	a5,1058(s0) # 40002422 <_eusrstack+0x1ffff422>
200000b2:	8b85                	andi	a5,a5,1
200000b4:	cf81                	beqz	a5,200000cc <ENCODER_IRQHandler+0x26>
F:\private\nanoCH57x-private\doc\CH572EVT\EVT\EXAM\TMR\obj/../src/Main.c:243
    {
        PRINT("INC\n");
200000b6:	e0002517          	auipc	a0,0xe0002
200000ba:	db650513          	addi	a0,a0,-586 # 1e6c <_read+0x40>
200000be:	e0001097          	auipc	ra,0xe0001
200000c2:	c24080e7          	jalr	-988(ra) # ce2 <puts>
F:\private\nanoCH57x-private\doc\CH572EVT\EVT\EXAM\TMR\obj/../src/Main.c:244
        ENC_ClearITFlag(RB_IF_DIR_INC);
200000c6:	4785                	li	a5,1
200000c8:	42f40123          	sb	a5,1058(s0)
F:\private\nanoCH57x-private\doc\CH572EVT\EVT\EXAM\TMR\obj/../src/Main.c:246
    }
    if(ENC_GetITFlag(RB_IF_DIR_DEC))
200000cc:	40002437          	lui	s0,0x40002
200000d0:	42244783          	lbu	a5,1058(s0) # 40002422 <_eusrstack+0x1ffff422>
200000d4:	8b89                	andi	a5,a5,2
200000d6:	cf81                	beqz	a5,200000ee <ENCODER_IRQHandler+0x48>
F:\private\nanoCH57x-private\doc\CH572EVT\EVT\EXAM\TMR\obj/../src/Main.c:248
    {
        PRINT("DEC\n");
200000d8:	e0002517          	auipc	a0,0xe0002
200000dc:	d9850513          	addi	a0,a0,-616 # 1e70 <_read+0x44>
200000e0:	e0001097          	auipc	ra,0xe0001
200000e4:	c02080e7          	jalr	-1022(ra) # ce2 <puts>
F:\private\nanoCH57x-private\doc\CH572EVT\EVT\EXAM\TMR\obj/../src/Main.c:249
        ENC_ClearITFlag(RB_IF_DIR_DEC);
200000e8:	4789                	li	a5,2
200000ea:	42f40123          	sb	a5,1058(s0)
F:\private\nanoCH57x-private\doc\CH572EVT\EVT\EXAM\TMR\obj/../src/Main.c:251
    }
}
200000ee:	4432                	lw	s0,12(sp)
200000f0:	0141                	addi	sp,sp,16
200000f2:	30200073          	mret

200000f6 <SetSysClock>:
SetSysClock():
F:/private/nanoCH57x-private/doc/CH572EVT/EVT/EXAM/SRC/StdPeriphDriver/CH57x_sys.c:31
{
    uint16_t clk_sys_cfg;
    uint8_t i;
    uint8_t x32M_c;

    if(sc == RB_CLK_SYS_MOD)  // LSI
200000f6:	0c000793          	li	a5,192
F:/private/nanoCH57x-private/doc/CH572EVT/EVT/EXAM/SRC/StdPeriphDriver/CH57x_sys.c:26
{
200000fa:	1101                	addi	sp,sp,-32
F:/private/nanoCH57x-private/doc/CH572EVT/EVT/EXAM/SRC/StdPeriphDriver/CH57x_sys.c:31
    if(sc == RB_CLK_SYS_MOD)  // LSI
200000fc:	04f51463          	bne	a0,a5,20000144 <SetSysClock+0x4e>
__risc_v_disable_irq():
F:\private\nanoCH57x-private\doc\CH572EVT\EVT\EXAM\SRC\RVMSIS/core_riscv.h:154
 */
__attribute__((always_inline)) RV_STATIC_INLINE uint32_t __risc_v_disable_irq(void)
{
    uint32_t result;

    __asm volatile("csrrc %0, 0x800, %1" : \
20000100:	08800793          	li	a5,136
20000104:	8007b7f3          	csrrc	a5,0x800,a5
F:\private\nanoCH57x-private\doc\CH572EVT\EVT\EXAM\SRC\RVMSIS/core_riscv.h:156
                   "=r"(result): "r"(0x88) : "memory");
    return result & 0x88;
20000108:	0887f793          	andi	a5,a5,136
SetSysClock():
F:/private/nanoCH57x-private/doc/CH572EVT/EVT/EXAM/SRC/StdPeriphDriver/CH57x_sys.c:33
    {
        sys_safe_access_enable();
2000010c:	c03e                	sw	a5,0(sp)
2000010e:	0000100f          	fence.i
20000112:	400017b7          	lui	a5,0x40001
20000116:	05700713          	li	a4,87
2000011a:	04e78023          	sb	a4,64(a5) # 40001040 <_eusrstack+0x1fffe040>
2000011e:	fa800713          	li	a4,-88
20000122:	04e78023          	sb	a4,64(a5)
20000126:	0000100f          	fence.i
F:/private/nanoCH57x-private/doc/CH572EVT/EVT/EXAM/SRC/StdPeriphDriver/CH57x_sys.c:34
        R8_CLK_SYS_CFG |= RB_CLK_SYS_MOD;
2000012a:	2798                	lbu	a4,8(a5)
2000012c:	0c076713          	ori	a4,a4,192
20000130:	a798                	sb	a4,8(a5)
F:/private/nanoCH57x-private/doc/CH572EVT/EVT/EXAM/SRC/StdPeriphDriver/CH57x_sys.c:35
        sys_safe_access_disable();
20000132:	04078023          	sb	zero,64(a5)
20000136:	4782                	lw	a5,0(sp)
__risc_v_enable_irq():
F:\private\nanoCH57x-private\doc\CH572EVT\EVT\EXAM\SRC\RVMSIS/core_riscv.h:138
    __asm volatile("csrrs %0, 0x800, %1" : \
20000138:	8007a7f3          	csrrs	a5,0x800,a5
SetSysClock():
F:/private/nanoCH57x-private/doc/CH572EVT/EVT/EXAM/SRC/StdPeriphDriver/CH57x_sys.c:86
            }
        }

        sys_safe_access_enable();
        R8_CLK_SYS_CFG = sc;
        sys_safe_access_disable();
2000013c:	0000100f          	fence.i
F:/private/nanoCH57x-private/doc/CH572EVT/EVT/EXAM/SRC/StdPeriphDriver/CH57x_sys.c:88
    }
}
20000140:	6105                	addi	sp,sp,32
20000142:	8082                	ret
F:/private/nanoCH57x-private/doc/CH572EVT/EVT/EXAM/SRC/StdPeriphDriver/CH57x_sys.c:39
        if(!(R8_HFCK_PWR_CTRL & RB_CLK_XT32M_PON))
20000144:	400017b7          	lui	a5,0x40001
20000148:	27b8                	lbu	a4,10(a5)
2000014a:	8b11                	andi	a4,a4,4
2000014c:	eb69                	bnez	a4,2000021e <SetSysClock+0x128>
F:/private/nanoCH57x-private/doc/CH572EVT/EVT/EXAM/SRC/StdPeriphDriver/CH57x_sys.c:41
            x32M_c = R8_XT32M_TUNE;
2000014e:	04e7c683          	lbu	a3,78(a5) # 4000104e <_eusrstack+0x1fffe04e>
__risc_v_disable_irq():
F:\private\nanoCH57x-private\doc\CH572EVT\EVT\EXAM\SRC\RVMSIS/core_riscv.h:154
    __asm volatile("csrrc %0, 0x800, %1" : \
20000152:	08800713          	li	a4,136
SetSysClock():
F:/private/nanoCH57x-private/doc/CH572EVT/EVT/EXAM/SRC/StdPeriphDriver/CH57x_sys.c:41
20000156:	0ff6f693          	zext.b	a3,a3
__risc_v_disable_irq():
F:\private\nanoCH57x-private\doc\CH572EVT\EVT\EXAM\SRC\RVMSIS/core_riscv.h:154
2000015a:	80073673          	csrrc	a2,0x800,a4
F:\private\nanoCH57x-private\doc\CH572EVT\EVT\EXAM\SRC\RVMSIS/core_riscv.h:156
    return result & 0x88;
2000015e:	08867613          	andi	a2,a2,136
SetSysClock():
F:/private/nanoCH57x-private/doc/CH572EVT/EVT/EXAM/SRC/StdPeriphDriver/CH57x_sys.c:42
            sys_safe_access_enable();
20000162:	c232                	sw	a2,4(sp)
20000164:	0000100f          	fence.i
20000168:	05700813          	li	a6,87
2000016c:	05078023          	sb	a6,64(a5)
20000170:	fa800593          	li	a1,-88
20000174:	04b78023          	sb	a1,64(a5)
20000178:	0000100f          	fence.i
F:/private/nanoCH57x-private/doc/CH572EVT/EVT/EXAM/SRC/StdPeriphDriver/CH57x_sys.c:43
            R8_XT32M_TUNE |= 0x03;
2000017c:	04e7c603          	lbu	a2,78(a5)
20000180:	00366613          	ori	a2,a2,3
20000184:	04c78723          	sb	a2,78(a5)
F:/private/nanoCH57x-private/doc/CH572EVT/EVT/EXAM/SRC/StdPeriphDriver/CH57x_sys.c:44
            R8_HFCK_PWR_CTRL |= RB_CLK_XT32M_PON;
20000188:	27b0                	lbu	a2,10(a5)
2000018a:	00466613          	ori	a2,a2,4
2000018e:	a7b0                	sb	a2,10(a5)
F:/private/nanoCH57x-private/doc/CH572EVT/EVT/EXAM/SRC/StdPeriphDriver/CH57x_sys.c:45
            sys_safe_access_disable();
20000190:	04078023          	sb	zero,64(a5)
20000194:	4612                	lw	a2,4(sp)
__risc_v_enable_irq():
F:\private\nanoCH57x-private\doc\CH572EVT\EVT\EXAM\SRC\RVMSIS/core_riscv.h:138
    __asm volatile("csrrs %0, 0x800, %1" : \
20000196:	80062673          	csrrs	a2,0x800,a2
SetSysClock():
F:/private/nanoCH57x-private/doc/CH572EVT/EVT/EXAM/SRC/StdPeriphDriver/CH57x_sys.c:45
2000019a:	0000100f          	fence.i
F:/private/nanoCH57x-private/doc/CH572EVT/EVT/EXAM/SRC/StdPeriphDriver/CH57x_sys.c:46
            clk_sys_cfg = R8_CLK_SYS_CFG;
2000019e:	2790                	lbu	a2,8(a5)
200001a0:	0ff67613          	zext.b	a2,a2
__risc_v_disable_irq():
F:\private\nanoCH57x-private\doc\CH572EVT\EVT\EXAM\SRC\RVMSIS/core_riscv.h:154
    __asm volatile("csrrc %0, 0x800, %1" : \
200001a4:	80073773          	csrrc	a4,0x800,a4
F:\private\nanoCH57x-private\doc\CH572EVT\EVT\EXAM\SRC\RVMSIS/core_riscv.h:156
    return result & 0x88;
200001a8:	08877713          	andi	a4,a4,136
SetSysClock():
F:/private/nanoCH57x-private/doc/CH572EVT/EVT/EXAM/SRC/StdPeriphDriver/CH57x_sys.c:47
            sys_safe_access_enable();
200001ac:	c43a                	sw	a4,8(sp)
200001ae:	0000100f          	fence.i
200001b2:	05078023          	sb	a6,64(a5)
200001b6:	04b78023          	sb	a1,64(a5)
200001ba:	0000100f          	fence.i
F:/private/nanoCH57x-private/doc/CH572EVT/EVT/EXAM/SRC/StdPeriphDriver/CH57x_sys.c:48
            R8_CLK_SYS_CFG |= 0xC0;
200001be:	2798                	lbu	a4,8(a5)
200001c0:	0c076713          	ori	a4,a4,192
200001c4:	a798                	sb	a4,8(a5)
F:/private/nanoCH57x-private/doc/CH572EVT/EVT/EXAM/SRC/StdPeriphDriver/CH57x_sys.c:49
            sys_safe_access_disable();
200001c6:	04078023          	sb	zero,64(a5)
200001ca:	47a2                	lw	a5,8(sp)
__risc_v_enable_irq():
F:\private\nanoCH57x-private\doc\CH572EVT\EVT\EXAM\SRC\RVMSIS/core_riscv.h:138
    __asm volatile("csrrs %0, 0x800, %1" : \
200001cc:	8007a7f3          	csrrs	a5,0x800,a5
SetSysClock():
F:/private/nanoCH57x-private/doc/CH572EVT/EVT/EXAM/SRC/StdPeriphDriver/CH57x_sys.c:49
200001d0:	0000100f          	fence.i
200001d4:	47a5                	li	a5,9
F:/private/nanoCH57x-private/doc/CH572EVT/EVT/EXAM/SRC/StdPeriphDriver/CH57x_sys.c:52 (discriminator 3)
                __nop();
200001d6:	0001                	nop
F:/private/nanoCH57x-private/doc/CH572EVT/EVT/EXAM/SRC/StdPeriphDriver/CH57x_sys.c:50 (discriminator 3)
            for(i=0; i<9; i++)
200001d8:	17fd                	addi	a5,a5,-1
200001da:	0ff7f793          	zext.b	a5,a5
200001de:	ffe5                	bnez	a5,200001d6 <SetSysClock+0xe0>
__risc_v_disable_irq():
F:\private\nanoCH57x-private\doc\CH572EVT\EVT\EXAM\SRC\RVMSIS/core_riscv.h:154
    __asm volatile("csrrc %0, 0x800, %1" : \
200001e0:	08800793          	li	a5,136
200001e4:	8007b7f3          	csrrc	a5,0x800,a5
F:\private\nanoCH57x-private\doc\CH572EVT\EVT\EXAM\SRC\RVMSIS/core_riscv.h:156
    return result & 0x88;
200001e8:	0887f793          	andi	a5,a5,136
SetSysClock():
F:/private/nanoCH57x-private/doc/CH572EVT/EVT/EXAM/SRC/StdPeriphDriver/CH57x_sys.c:54
            sys_safe_access_enable();
200001ec:	c63e                	sw	a5,12(sp)
200001ee:	0000100f          	fence.i
200001f2:	400017b7          	lui	a5,0x40001
200001f6:	05700713          	li	a4,87
200001fa:	04e78023          	sb	a4,64(a5) # 40001040 <_eusrstack+0x1fffe040>
200001fe:	fa800713          	li	a4,-88
20000202:	04e78023          	sb	a4,64(a5)
20000206:	0000100f          	fence.i
F:/private/nanoCH57x-private/doc/CH572EVT/EVT/EXAM/SRC/StdPeriphDriver/CH57x_sys.c:55
            R8_CLK_SYS_CFG = clk_sys_cfg;
2000020a:	a790                	sb	a2,8(a5)
F:/private/nanoCH57x-private/doc/CH572EVT/EVT/EXAM/SRC/StdPeriphDriver/CH57x_sys.c:56
            R8_XT32M_TUNE = x32M_c;
2000020c:	04d78723          	sb	a3,78(a5)
F:/private/nanoCH57x-private/doc/CH572EVT/EVT/EXAM/SRC/StdPeriphDriver/CH57x_sys.c:57
            sys_safe_access_disable();
20000210:	04078023          	sb	zero,64(a5)
20000214:	47b2                	lw	a5,12(sp)
__risc_v_enable_irq():
F:\private\nanoCH57x-private\doc\CH572EVT\EVT\EXAM\SRC\RVMSIS/core_riscv.h:138
    __asm volatile("csrrs %0, 0x800, %1" : \
20000216:	8007a7f3          	csrrs	a5,0x800,a5
SetSysClock():
F:/private/nanoCH57x-private/doc/CH572EVT/EVT/EXAM/SRC/StdPeriphDriver/CH57x_sys.c:57
2000021a:	0000100f          	fence.i
F:/private/nanoCH57x-private/doc/CH572EVT/EVT/EXAM/SRC/StdPeriphDriver/CH57x_sys.c:60
        if((sc & RB_CLK_SYS_MOD) == 0x40) // PLL div
2000021e:	0c057793          	andi	a5,a0,192
20000222:	04000713          	li	a4,64
20000226:	08e79963          	bne	a5,a4,200002b8 <SetSysClock+0x1c2>
__risc_v_disable_irq():
F:\private\nanoCH57x-private\doc\CH572EVT\EVT\EXAM\SRC\RVMSIS/core_riscv.h:154
    __asm volatile("csrrc %0, 0x800, %1" : \
2000022a:	08800793          	li	a5,136
2000022e:	8007b7f3          	csrrc	a5,0x800,a5
F:\private\nanoCH57x-private\doc\CH572EVT\EVT\EXAM\SRC\RVMSIS/core_riscv.h:156
    return result & 0x88;
20000232:	0887f793          	andi	a5,a5,136
SetSysClock():
F:/private/nanoCH57x-private/doc/CH572EVT/EVT/EXAM/SRC/StdPeriphDriver/CH57x_sys.c:62
            sys_safe_access_enable();
20000236:	c83e                	sw	a5,16(sp)
20000238:	0000100f          	fence.i
2000023c:	400017b7          	lui	a5,0x40001
20000240:	05700713          	li	a4,87
20000244:	04e78023          	sb	a4,64(a5) # 40001040 <_eusrstack+0x1fffe040>
20000248:	fa800713          	li	a4,-88
2000024c:	04e78023          	sb	a4,64(a5)
20000250:	0000100f          	fence.i
F:/private/nanoCH57x-private/doc/CH572EVT/EVT/EXAM/SRC/StdPeriphDriver/CH57x_sys.c:63
            R8_HFCK_PWR_CTRL |= RB_CLK_PLL_PON;
20000254:	27b8                	lbu	a4,10(a5)
F:/private/nanoCH57x-private/doc/CH572EVT/EVT/EXAM/SRC/StdPeriphDriver/CH57x_sys.c:64
            R8_FLASH_CFG = 0X01;
20000256:	4685                	li	a3,1
F:/private/nanoCH57x-private/doc/CH572EVT/EVT/EXAM/SRC/StdPeriphDriver/CH57x_sys.c:63
            R8_HFCK_PWR_CTRL |= RB_CLK_PLL_PON;
20000258:	01076713          	ori	a4,a4,16
2000025c:	a7b8                	sb	a4,10(a5)
F:/private/nanoCH57x-private/doc/CH572EVT/EVT/EXAM/SRC/StdPeriphDriver/CH57x_sys.c:64
            R8_FLASH_CFG = 0X01;
2000025e:	40002737          	lui	a4,0x40002
20000262:	80d703a3          	sb	a3,-2041(a4) # 40001807 <_eusrstack+0x1fffe807>
F:/private/nanoCH57x-private/doc/CH572EVT/EVT/EXAM/SRC/StdPeriphDriver/CH57x_sys.c:65
            R8_FLASH_SCK |= 1<<4; //50M
20000266:	80574683          	lbu	a3,-2043(a4)
2000026a:	0106e693          	ori	a3,a3,16
2000026e:	80d702a3          	sb	a3,-2043(a4)
F:/private/nanoCH57x-private/doc/CH572EVT/EVT/EXAM/SRC/StdPeriphDriver/CH57x_sys.c:66
            sys_safe_access_disable();
20000272:	04078023          	sb	zero,64(a5)
20000276:	47c2                	lw	a5,16(sp)
__risc_v_enable_irq():
F:\private\nanoCH57x-private\doc\CH572EVT\EVT\EXAM\SRC\RVMSIS/core_riscv.h:138
    __asm volatile("csrrs %0, 0x800, %1" : \
20000278:	8007a7f3          	csrrs	a5,0x800,a5
SetSysClock():
F:/private/nanoCH57x-private/doc/CH572EVT/EVT/EXAM/SRC/StdPeriphDriver/CH57x_sys.c:80
                sys_safe_access_disable();
2000027c:	0000100f          	fence.i
__risc_v_disable_irq():
F:\private\nanoCH57x-private\doc\CH572EVT\EVT\EXAM\SRC\RVMSIS/core_riscv.h:154
    __asm volatile("csrrc %0, 0x800, %1" : \
20000280:	08800793          	li	a5,136
20000284:	8007b7f3          	csrrc	a5,0x800,a5
F:\private\nanoCH57x-private\doc\CH572EVT\EVT\EXAM\SRC\RVMSIS/core_riscv.h:156
    return result & 0x88;
20000288:	0887f793          	andi	a5,a5,136
SetSysClock():
F:/private/nanoCH57x-private/doc/CH572EVT/EVT/EXAM/SRC/StdPeriphDriver/CH57x_sys.c:84
        sys_safe_access_enable();
2000028c:	ce3e                	sw	a5,28(sp)
2000028e:	0000100f          	fence.i
20000292:	400017b7          	lui	a5,0x40001
20000296:	05700713          	li	a4,87
2000029a:	04e78023          	sb	a4,64(a5) # 40001040 <_eusrstack+0x1fffe040>
2000029e:	fa800713          	li	a4,-88
200002a2:	04e78023          	sb	a4,64(a5)
200002a6:	0000100f          	fence.i
F:/private/nanoCH57x-private/doc/CH572EVT/EVT/EXAM/SRC/StdPeriphDriver/CH57x_sys.c:85
        R8_CLK_SYS_CFG = sc;
200002aa:	0ff57513          	zext.b	a0,a0
200002ae:	a788                	sb	a0,8(a5)
F:/private/nanoCH57x-private/doc/CH572EVT/EVT/EXAM/SRC/StdPeriphDriver/CH57x_sys.c:86
        sys_safe_access_disable();
200002b0:	04078023          	sb	zero,64(a5)
200002b4:	47f2                	lw	a5,28(sp)
200002b6:	b549                	j	20000138 <SetSysClock+0x42>
F:/private/nanoCH57x-private/doc/CH572EVT/EVT/EXAM/SRC/StdPeriphDriver/CH57x_sys.c:70
            if((sc&0x1F) )
200002b8:	01f57793          	andi	a5,a0,31
200002bc:	cf9d                	beqz	a5,200002fa <SetSysClock+0x204>
__risc_v_disable_irq():
F:\private\nanoCH57x-private\doc\CH572EVT\EVT\EXAM\SRC\RVMSIS/core_riscv.h:154
    __asm volatile("csrrc %0, 0x800, %1" : \
200002be:	08800793          	li	a5,136
200002c2:	8007b7f3          	csrrc	a5,0x800,a5
F:\private\nanoCH57x-private\doc\CH572EVT\EVT\EXAM\SRC\RVMSIS/core_riscv.h:156
    return result & 0x88;
200002c6:	0887f793          	andi	a5,a5,136
SetSysClock():
F:/private/nanoCH57x-private/doc/CH572EVT/EVT/EXAM/SRC/StdPeriphDriver/CH57x_sys.c:72
                sys_safe_access_enable();
200002ca:	ca3e                	sw	a5,20(sp)
200002cc:	0000100f          	fence.i
200002d0:	400017b7          	lui	a5,0x40001
200002d4:	05700713          	li	a4,87
200002d8:	04e78023          	sb	a4,64(a5) # 40001040 <_eusrstack+0x1fffe040>
200002dc:	fa800713          	li	a4,-88
200002e0:	04e78023          	sb	a4,64(a5)
200002e4:	0000100f          	fence.i
F:/private/nanoCH57x-private/doc/CH572EVT/EVT/EXAM/SRC/StdPeriphDriver/CH57x_sys.c:73
                R8_FLASH_CFG = 0X02;
200002e8:	40002737          	lui	a4,0x40002
200002ec:	4689                	li	a3,2
200002ee:	80d703a3          	sb	a3,-2041(a4) # 40001807 <_eusrstack+0x1fffe807>
F:/private/nanoCH57x-private/doc/CH572EVT/EVT/EXAM/SRC/StdPeriphDriver/CH57x_sys.c:74
                sys_safe_access_disable();
200002f2:	04078023          	sb	zero,64(a5)
200002f6:	47d2                	lw	a5,20(sp)
__risc_v_enable_irq():
F:\private\nanoCH57x-private\doc\CH572EVT\EVT\EXAM\SRC\RVMSIS/core_riscv.h:138
    __asm volatile("csrrs %0, 0x800, %1" : \
200002f8:	b741                	j	20000278 <SetSysClock+0x182>
__risc_v_disable_irq():
F:\private\nanoCH57x-private\doc\CH572EVT\EVT\EXAM\SRC\RVMSIS/core_riscv.h:154
    __asm volatile("csrrc %0, 0x800, %1" : \
200002fa:	08800793          	li	a5,136
200002fe:	8007b7f3          	csrrc	a5,0x800,a5
F:\private\nanoCH57x-private\doc\CH572EVT\EVT\EXAM\SRC\RVMSIS/core_riscv.h:156
    return result & 0x88;
20000302:	0887f793          	andi	a5,a5,136
SetSysClock():
F:/private/nanoCH57x-private/doc/CH572EVT/EVT/EXAM/SRC/StdPeriphDriver/CH57x_sys.c:78
                sys_safe_access_enable();
20000306:	cc3e                	sw	a5,24(sp)
20000308:	0000100f          	fence.i
2000030c:	400017b7          	lui	a5,0x40001
20000310:	05700713          	li	a4,87
20000314:	04e78023          	sb	a4,64(a5) # 40001040 <_eusrstack+0x1fffe040>
20000318:	fa800713          	li	a4,-88
2000031c:	04e78023          	sb	a4,64(a5)
20000320:	0000100f          	fence.i
F:/private/nanoCH57x-private/doc/CH572EVT/EVT/EXAM/SRC/StdPeriphDriver/CH57x_sys.c:79
                R8_FLASH_CFG = 0X07;
20000324:	40002737          	lui	a4,0x40002
20000328:	469d                	li	a3,7
2000032a:	80d703a3          	sb	a3,-2041(a4) # 40001807 <_eusrstack+0x1fffe807>
F:/private/nanoCH57x-private/doc/CH572EVT/EVT/EXAM/SRC/StdPeriphDriver/CH57x_sys.c:80
                sys_safe_access_disable();
2000032e:	04078023          	sb	zero,64(a5)
20000332:	47e2                	lw	a5,24(sp)
20000334:	b791                	j	20000278 <SetSysClock+0x182>

20000336 <HardFault_Handler>:
HardFault_Handler():
F:/private/nanoCH57x-private/doc/CH572EVT/EVT/EXAM/SRC/StdPeriphDriver/CH57x_sys.c:282
 */
__INTERRUPT
__HIGH_CODE
__attribute__((weak))
void HardFault_Handler(void)
{
20000336:	1141                	addi	sp,sp,-16
F:/private/nanoCH57x-private/doc/CH572EVT/EVT/EXAM/SRC/StdPeriphDriver/CH57x_sys.c:283
    FLASH_ROM_SW_RESET();
20000338:	4681                	li	a3,0
2000033a:	4601                	li	a2,0
2000033c:	4581                	li	a1,0
2000033e:	4511                	li	a0,4
20000340:	e0000097          	auipc	ra,0xe0000
20000344:	72a080e7          	jalr	1834(ra) # a6a <FLASH_EEPROM_CMD>
__risc_v_disable_irq():
F:\private\nanoCH57x-private\doc\CH572EVT\EVT\EXAM\SRC\RVMSIS/core_riscv.h:154
    __asm volatile("csrrc %0, 0x800, %1" : \
20000348:	08800713          	li	a4,136
2000034c:	800737f3          	csrrc	a5,0x800,a4
F:\private\nanoCH57x-private\doc\CH572EVT\EVT\EXAM\SRC\RVMSIS/core_riscv.h:156
    return result & 0x88;
20000350:	0887f793          	andi	a5,a5,136
HardFault_Handler():
F:/private/nanoCH57x-private/doc/CH572EVT/EVT/EXAM/SRC/StdPeriphDriver/CH57x_sys.c:284
    sys_safe_access_enable();
20000354:	c43e                	sw	a5,8(sp)
20000356:	0000100f          	fence.i
2000035a:	400017b7          	lui	a5,0x40001
2000035e:	05700613          	li	a2,87
20000362:	04c78023          	sb	a2,64(a5) # 40001040 <_eusrstack+0x1fffe040>
20000366:	fa800693          	li	a3,-88
2000036a:	04d78023          	sb	a3,64(a5)
2000036e:	0000100f          	fence.i
F:/private/nanoCH57x-private/doc/CH572EVT/EVT/EXAM/SRC/StdPeriphDriver/CH57x_sys.c:285
    R16_INT_LSI_TUNE = 0xFFFF;
20000372:	55fd                	li	a1,-1
20000374:	b7ce                	sh	a1,44(a5)
F:/private/nanoCH57x-private/doc/CH572EVT/EVT/EXAM/SRC/StdPeriphDriver/CH57x_sys.c:286
    sys_safe_access_disable();
20000376:	04078023          	sb	zero,64(a5)
2000037a:	45a2                	lw	a1,8(sp)
__risc_v_enable_irq():
F:\private\nanoCH57x-private\doc\CH572EVT\EVT\EXAM\SRC\RVMSIS/core_riscv.h:138
    __asm volatile("csrrs %0, 0x800, %1" : \
2000037c:	8005a5f3          	csrrs	a1,0x800,a1
HardFault_Handler():
F:/private/nanoCH57x-private/doc/CH572EVT/EVT/EXAM/SRC/StdPeriphDriver/CH57x_sys.c:286
20000380:	0000100f          	fence.i
__risc_v_disable_irq():
F:\private\nanoCH57x-private\doc\CH572EVT\EVT\EXAM\SRC\RVMSIS/core_riscv.h:154
    __asm volatile("csrrc %0, 0x800, %1" : \
20000384:	80073773          	csrrc	a4,0x800,a4
F:\private\nanoCH57x-private\doc\CH572EVT\EVT\EXAM\SRC\RVMSIS/core_riscv.h:156
    return result & 0x88;
20000388:	08877713          	andi	a4,a4,136
HardFault_Handler():
F:/private/nanoCH57x-private/doc/CH572EVT/EVT/EXAM/SRC/StdPeriphDriver/CH57x_sys.c:287
    sys_safe_access_enable();
2000038c:	c63a                	sw	a4,12(sp)
2000038e:	0000100f          	fence.i
20000392:	04c78023          	sb	a2,64(a5)
20000396:	04d78023          	sb	a3,64(a5)
2000039a:	0000100f          	fence.i
F:/private/nanoCH57x-private/doc/CH572EVT/EVT/EXAM/SRC/StdPeriphDriver/CH57x_sys.c:288
    R8_RST_WDOG_CTRL |= RB_SOFTWARE_RESET;
2000039e:	0467c703          	lbu	a4,70(a5)
200003a2:	00176713          	ori	a4,a4,1
200003a6:	04e78323          	sb	a4,70(a5)
F:/private/nanoCH57x-private/doc/CH572EVT/EVT/EXAM/SRC/StdPeriphDriver/CH57x_sys.c:289
    sys_safe_access_disable();
200003aa:	04078023          	sb	zero,64(a5)
200003ae:	47b2                	lw	a5,12(sp)
__risc_v_enable_irq():
F:\private\nanoCH57x-private\doc\CH572EVT\EVT\EXAM\SRC\RVMSIS/core_riscv.h:138
    __asm volatile("csrrs %0, 0x800, %1" : \
200003b0:	8007a7f3          	csrrs	a5,0x800,a5
HardFault_Handler():
F:/private/nanoCH57x-private/doc/CH572EVT/EVT/EXAM/SRC/StdPeriphDriver/CH57x_sys.c:289
200003b4:	0000100f          	fence.i
F:/private/nanoCH57x-private/doc/CH572EVT/EVT/EXAM/SRC/StdPeriphDriver/CH57x_sys.c:290 (discriminator 1)
    while(1);
200003b8:	a001                	j	200003b8 <HardFault_Handler+0x82>

200003ba <mDelayuS>:
mDelayuS():
F:/private/nanoCH57x-private/doc/CH572EVT/EVT/EXAM/SRC/StdPeriphDriver/CH57x_sys.c:307
__HIGH_CODE
void mDelayuS(uint16_t t)
{
    uint32_t i;
#if(FREQ_SYS == 100000000)
    i = t * 25;
200003ba:	47e5                	li	a5,25
200003bc:	02f50533          	mul	a0,a0,a5
F:/private/nanoCH57x-private/doc/CH572EVT/EVT/EXAM/SRC/StdPeriphDriver/CH57x_sys.c:350 (discriminator 1)
        __nop();
    };
#else
    do
    {
        __nop();
200003c0:	0001                	nop
F:/private/nanoCH57x-private/doc/CH572EVT/EVT/EXAM/SRC/StdPeriphDriver/CH57x_sys.c:351 (discriminator 1)
    }while(--i);
200003c2:	157d                	addi	a0,a0,-1
200003c4:	fd75                	bnez	a0,200003c0 <mDelayuS+0x6>
F:/private/nanoCH57x-private/doc/CH572EVT/EVT/EXAM/SRC/StdPeriphDriver/CH57x_sys.c:353
#endif
}
200003c6:	8082                	ret

200003c8 <mDelaymS>:
mDelaymS():
F:/private/nanoCH57x-private/doc/CH572EVT/EVT/EXAM/SRC/StdPeriphDriver/CH57x_sys.c:366
 *
 * @return  none
 */
__HIGH_CODE
void mDelaymS(uint16_t t)
{
200003c8:	1141                	addi	sp,sp,-16
200003ca:	c422                	sw	s0,8(sp)
200003cc:	c606                	sw	ra,12(sp)
200003ce:	842a                	mv	s0,a0
F:/private/nanoCH57x-private/doc/CH572EVT/EVT/EXAM/SRC/StdPeriphDriver/CH57x_sys.c:369 (discriminator 1)
    do
    {
        mDelayuS(1000);
200003d0:	3e800513          	li	a0,1000
F:/private/nanoCH57x-private/doc/CH572EVT/EVT/EXAM/SRC/StdPeriphDriver/CH57x_sys.c:370 (discriminator 1)
    }while(--t);
200003d4:	147d                	addi	s0,s0,-1
F:/private/nanoCH57x-private/doc/CH572EVT/EVT/EXAM/SRC/StdPeriphDriver/CH57x_sys.c:369 (discriminator 1)
        mDelayuS(1000);
200003d6:	37d5                	jal	200003ba <mDelayuS>
F:/private/nanoCH57x-private/doc/CH572EVT/EVT/EXAM/SRC/StdPeriphDriver/CH57x_sys.c:370 (discriminator 1)
    }while(--t);
200003d8:	08044433          	zext.h	s0,s0
200003dc:	f875                	bnez	s0,200003d0 <mDelaymS+0x8>
F:/private/nanoCH57x-private/doc/CH572EVT/EVT/EXAM/SRC/StdPeriphDriver/CH57x_sys.c:371
}
200003de:	40b2                	lw	ra,12(sp)
200003e0:	4422                	lw	s0,8(sp)
200003e2:	0141                	addi	sp,sp,16
200003e4:	8082                	ret

200003e6 <FLASH_ROM_BEG_FF>:
FLASH_ROM_BEG_FF():
200003e6:	80040323          	sb	zero,-2042(s0)
200003ea:	4715                	li	a4,5
200003ec:	87a2                	mv	a5,s0
200003ee:	80e40323          	sb	a4,-2042(s0)
200003f2:	0001                	nop
200003f4:	0001                	nop
200003f6:	80a40223          	sb	a0,-2044(s0)
200003fa:	8067c703          	lbu	a4,-2042(a5)
200003fe:	0762                	slli	a4,a4,0x18
20000400:	8761                	srai	a4,a4,0x18
20000402:	fe074ce3          	bltz	a4,200003fa <FLASH_ROM_BEG_FF+0x14>
20000406:	80a78223          	sb	a0,-2044(a5)
2000040a:	8722                	mv	a4,s0
2000040c:	80674783          	lbu	a5,-2042(a4)
20000410:	07e2                	slli	a5,a5,0x18
20000412:	87e1                	srai	a5,a5,0x18
20000414:	fe07cce3          	bltz	a5,2000040c <FLASH_ROM_BEG_FF+0x26>
20000418:	8082                	ret

2000041a <FLASH_ROM_BEG>:
FLASH_ROM_BEG():
2000041a:	80040323          	sb	zero,-2042(s0)
2000041e:	4715                	li	a4,5
20000420:	80e40323          	sb	a4,-2042(s0)
20000424:	0001                	nop
20000426:	0001                	nop
20000428:	80a40223          	sb	a0,-2044(s0)
2000042c:	8082                	ret

2000042e <FLASH_ROM_END>:
FLASH_ROM_END():
2000042e:	80640783          	lb	a5,-2042(s0)
20000432:	fe07cee3          	bltz	a5,2000042e <FLASH_ROM_END>
20000436:	80040323          	sb	zero,-2042(s0)
2000043a:	8082                	ret

2000043c <FLASH_ROM_IN>:
FLASH_ROM_IN():
2000043c:	80640783          	lb	a5,-2042(s0)
20000440:	fe07cee3          	bltz	a5,2000043c <FLASH_ROM_IN>
20000444:	80444503          	lbu	a0,-2044(s0)
20000448:	8082                	ret

2000044a <FLASH_ROM_OUT>:
FLASH_ROM_OUT():
2000044a:	80640783          	lb	a5,-2042(s0)
2000044e:	fe07cee3          	bltz	a5,2000044a <FLASH_ROM_OUT>
20000452:	80a40223          	sb	a0,-2044(s0)
20000456:	8082                	ret

20000458 <FLASH_ROM_ADDR>:
FLASH_ROM_ADDR():
20000458:	1141                	addi	sp,sp,-16
2000045a:	c426                	sw	s1,8(sp)
2000045c:	c24a                	sw	s2,4(sp)
2000045e:	c04e                	sw	s3,0(sp)
20000460:	c606                	sw	ra,12(sp)
20000462:	0bf57713          	andi	a4,a0,191
20000466:	47ad                	li	a5,11
20000468:	89aa                	mv	s3,a0
2000046a:	892e                	mv	s2,a1
2000046c:	4495                	li	s1,5
2000046e:	00f70663          	beq	a4,a5,2000047a <FLASH_ROM_ADDR+0x22>
20000472:	4519                	li	a0,6
20000474:	375d                	jal	2000041a <FLASH_ROM_BEG>
20000476:	3f65                	jal	2000042e <FLASH_ROM_END>
20000478:	448d                	li	s1,3
2000047a:	854e                	mv	a0,s3
2000047c:	3f79                	jal	2000041a <FLASH_ROM_BEG>
2000047e:	59fd                	li	s3,-1
20000480:	14fd                	addi	s1,s1,-1
20000482:	01349863          	bne	s1,s3,20000492 <FLASH_ROM_ADDR+0x3a>
20000486:	40b2                	lw	ra,12(sp)
20000488:	44a2                	lw	s1,8(sp)
2000048a:	4912                	lw	s2,4(sp)
2000048c:	4982                	lw	s3,0(sp)
2000048e:	0141                	addi	sp,sp,16
20000490:	8082                	ret
20000492:	01095513          	srli	a0,s2,0x10
20000496:	0ff57513          	zext.b	a0,a0
2000049a:	3f45                	jal	2000044a <FLASH_ROM_OUT>
2000049c:	0922                	slli	s2,s2,0x8
2000049e:	b7cd                	j	20000480 <FLASH_ROM_ADDR+0x28>

200004a0 <FLASH_ROM_WAIT>:
FLASH_ROM_WAIT():
200004a0:	1101                	addi	sp,sp,-32
200004a2:	cc26                	sw	s1,24(sp)
200004a4:	ce06                	sw	ra,28(sp)
200004a6:	000804b7          	lui	s1,0x80
200004aa:	3751                	jal	2000042e <FLASH_ROM_END>
200004ac:	4515                	li	a0,5
200004ae:	37b5                	jal	2000041a <FLASH_ROM_BEG>
200004b0:	3771                	jal	2000043c <FLASH_ROM_IN>
200004b2:	3769                	jal	2000043c <FLASH_ROM_IN>
200004b4:	c62a                	sw	a0,12(sp)
200004b6:	3fa5                	jal	2000042e <FLASH_ROM_END>
200004b8:	4532                	lw	a0,12(sp)
200004ba:	00157793          	andi	a5,a0,1
200004be:	eb89                	bnez	a5,200004d0 <FLASH_ROM_WAIT+0x30>
200004c0:	00156513          	ori	a0,a0,1
200004c4:	0ff57513          	zext.b	a0,a0
200004c8:	40f2                	lw	ra,28(sp)
200004ca:	44e2                	lw	s1,24(sp)
200004cc:	6105                	addi	sp,sp,32
200004ce:	8082                	ret
200004d0:	14fd                	addi	s1,s1,-1 # 7ffff <_data_lma+0x7e07f>
200004d2:	fce9                	bnez	s1,200004ac <FLASH_ROM_WAIT+0xc>
200004d4:	4501                	li	a0,0
200004d6:	bfcd                	j	200004c8 <FLASH_ROM_WAIT+0x28>

200004d8 <FLASH_START>:
FLASH_START():
200004d8:	1141                	addi	sp,sp,-16
200004da:	c606                	sw	ra,12(sp)
200004dc:	400017b7          	lui	a5,0x40001
200004e0:	05700713          	li	a4,87
200004e4:	04e78023          	sb	a4,64(a5) # 40001040 <_eusrstack+0x1fffe040>
200004e8:	fa800713          	li	a4,-88
200004ec:	04e78023          	sb	a4,64(a5)
200004f0:	0447c703          	lbu	a4,68(a5)
200004f4:	0ff00513          	li	a0,255
200004f8:	0e076713          	ori	a4,a4,224
200004fc:	04e78223          	sb	a4,68(a5)
20000500:	4791                	li	a5,4
20000502:	80f40323          	sb	a5,-2042(s0)
20000506:	35c5                	jal	200003e6 <FLASH_ROM_BEG_FF>
20000508:	40b2                	lw	ra,12(sp)
2000050a:	0141                	addi	sp,sp,16
2000050c:	b70d                	j	2000042e <FLASH_ROM_END>

2000050e <FLASH_CMD_ROM_WRITE>:
FLASH_CMD_ROM_WRITE():
2000050e:	1101                	addi	sp,sp,-32
20000510:	cc26                	sw	s1,24(sp)
20000512:	ca4a                	sw	s2,20(sp)
20000514:	c84e                	sw	s3,16(sp)
20000516:	c652                	sw	s4,12(sp)
20000518:	ce06                	sw	ra,28(sp)
2000051a:	892a                	mv	s2,a0
2000051c:	89ae                	mv	s3,a1
2000051e:	84b2                	mv	s1,a2
20000520:	4a55                	li	s4,21
20000522:	3f5d                	jal	200004d8 <FLASH_START>
20000524:	e891                	bnez	s1,20000538 <FLASH_CMD_ROM_WRITE+0x2a>
20000526:	3721                	jal	2000042e <FLASH_ROM_END>
20000528:	40f2                	lw	ra,28(sp)
2000052a:	8526                	mv	a0,s1
2000052c:	4952                	lw	s2,20(sp)
2000052e:	44e2                	lw	s1,24(sp)
20000530:	49c2                	lw	s3,16(sp)
20000532:	4a32                	lw	s4,12(sp)
20000534:	6105                	addi	sp,sp,32
20000536:	8082                	ret
20000538:	85ca                	mv	a1,s2
2000053a:	4509                	li	a0,2
2000053c:	3f31                	jal	20000458 <FLASH_ROM_ADDR>
2000053e:	0991                	addi	s3,s3,4
20000540:	ffc9a703          	lw	a4,-4(s3)
20000544:	4791                	li	a5,4
20000546:	80e42023          	sw	a4,-2048(s0)

2000054a <.loop247>:
2000054a:	80640703          	lb	a4,-2042(s0)
2000054e:	fe074ee3          	bltz	a4,2000054a <.loop247>
20000552:	81440323          	sb	s4,-2042(s0)
20000556:	17fd                	addi	a5,a5,-1
20000558:	fbed                	bnez	a5,2000054a <.loop247>
2000055a:	14fd                	addi	s1,s1,-1
2000055c:	0911                	addi	s2,s2,4
2000055e:	c481                	beqz	s1,20000566 <.loop247+0x1c>
20000560:	0ff97793          	zext.b	a5,s2
20000564:	ffe9                	bnez	a5,2000053e <FLASH_CMD_ROM_WRITE+0x30>
20000566:	3f2d                	jal	200004a0 <FLASH_ROM_WAIT>
20000568:	fd55                	bnez	a0,20000524 <FLASH_CMD_ROM_WRITE+0x16>
2000056a:	54fd                	li	s1,-1
2000056c:	bf75                	j	20000528 <FLASH_CMD_ROM_WRITE+0x1a>

2000056e <FLASH_CMD_ROM_ERASE>:
FLASH_CMD_ROM_ERASE():
2000056e:	1101                	addi	sp,sp,-32
20000570:	cc26                	sw	s1,24(sp)
20000572:	ca4a                	sw	s2,20(sp)
20000574:	c84e                	sw	s3,16(sp)
20000576:	c652                	sw	s4,12(sp)
20000578:	c456                	sw	s5,8(sp)
2000057a:	c25a                	sw	s6,4(sp)
2000057c:	ce06                	sw	ra,28(sp)
2000057e:	892a                	mv	s2,a0
20000580:	8a32                	mv	s4,a2
20000582:	498d                	li	s3,3
20000584:	3f91                	jal	200004d8 <FLASH_START>
20000586:	64c1                	lui	s1,0x10
20000588:	6ac1                	lui	s5,0x10
2000058a:	6b05                	lui	s6,0x1
2000058c:	fff48793          	addi	a5,s1,-1 # ffff <_data_lma+0xe07f>
20000590:	0127f7b3          	and	a5,a5,s2
20000594:	e399                	bnez	a5,2000059a <FLASH_CMD_ROM_ERASE+0x2c>
20000596:	029a7163          	bgeu	s4,s1,200005b8 <FLASH_CMD_ROM_ERASE+0x4a>
2000059a:	19fd                	addi	s3,s3,-1
2000059c:	8091                	srli	s1,s1,0x4
2000059e:	fe0997e3          	bnez	s3,2000058c <FLASH_CMD_ROM_ERASE+0x1e>
200005a2:	3571                	jal	2000042e <FLASH_ROM_END>
200005a4:	4501                	li	a0,0
200005a6:	40f2                	lw	ra,28(sp)
200005a8:	44e2                	lw	s1,24(sp)
200005aa:	4952                	lw	s2,20(sp)
200005ac:	49c2                	lw	s3,16(sp)
200005ae:	4a32                	lw	s4,12(sp)
200005b0:	4aa2                	lw	s5,8(sp)
200005b2:	4b12                	lw	s6,4(sp)
200005b4:	6105                	addi	sp,sp,32
200005b6:	8082                	ret
200005b8:	0d800513          	li	a0,216
200005bc:	01548863          	beq	s1,s5,200005cc <FLASH_CMD_ROM_ERASE+0x5e>
200005c0:	02000513          	li	a0,32
200005c4:	01648463          	beq	s1,s6,200005cc <FLASH_CMD_ROM_ERASE+0x5e>
200005c8:	08100513          	li	a0,129
200005cc:	85ca                	mv	a1,s2
200005ce:	3569                	jal	20000458 <FLASH_ROM_ADDR>
200005d0:	3dc1                	jal	200004a0 <FLASH_ROM_WAIT>
200005d2:	c509                	beqz	a0,200005dc <FLASH_CMD_ROM_ERASE+0x6e>
200005d4:	9926                	add	s2,s2,s1
200005d6:	409a0a33          	sub	s4,s4,s1
200005da:	bf75                	j	20000596 <FLASH_CMD_ROM_ERASE+0x28>
200005dc:	557d                	li	a0,-1
200005de:	b7e1                	j	200005a6 <FLASH_CMD_ROM_ERASE+0x38>

200005e0 <FLASH_CMD_ROM_VERIFY>:
FLASH_CMD_ROM_VERIFY():
200005e0:	1101                	addi	sp,sp,-32
200005e2:	ce06                	sw	ra,28(sp)
200005e4:	cc26                	sw	s1,24(sp)
200005e6:	ca4a                	sw	s2,20(sp)
200005e8:	84b2                	mv	s1,a2
200005ea:	c84e                	sw	s3,16(sp)
200005ec:	c62a                	sw	a0,12(sp)
200005ee:	892e                	mv	s2,a1
200005f0:	35e5                	jal	200004d8 <FLASH_START>
200005f2:	4532                	lw	a0,12(sp)
200005f4:	14fd                	addi	s1,s1,-1
200005f6:	59fd                	li	s3,-1
200005f8:	85aa                	mv	a1,a0
200005fa:	452d                	li	a0,11
200005fc:	3db1                	jal	20000458 <FLASH_ROM_ADDR>
200005fe:	01349a63          	bne	s1,s3,20000612 <FLASH_CMD_ROM_VERIFY+0x32>
20000602:	3535                	jal	2000042e <FLASH_ROM_END>
20000604:	40f2                	lw	ra,28(sp)
20000606:	8526                	mv	a0,s1
20000608:	4952                	lw	s2,20(sp)
2000060a:	44e2                	lw	s1,24(sp)
2000060c:	49c2                	lw	s3,16(sp)
2000060e:	6105                	addi	sp,sp,32
20000610:	8082                	ret
20000612:	352d                	jal	2000043c <FLASH_ROM_IN>
20000614:	0034f793          	andi	a5,s1,3
20000618:	eb91                	bnez	a5,2000062c <FLASH_CMD_ROM_VERIFY+0x4c>
2000061a:	80042683          	lw	a3,-2048(s0)
2000061e:	00092703          	lw	a4,0(s2)
20000622:	00490793          	addi	a5,s2,4
20000626:	fce69ee3          	bne	a3,a4,20000602 <FLASH_CMD_ROM_VERIFY+0x22>
2000062a:	893e                	mv	s2,a5
2000062c:	14fd                	addi	s1,s1,-1
2000062e:	bfc1                	j	200005fe <FLASH_CMD_ROM_VERIFY+0x1e>

20000630 <FLASH_CMD_ROM_PWR>:
FLASH_CMD_ROM_PWR():
20000630:	1101                	addi	sp,sp,-32
20000632:	ce06                	sw	ra,28(sp)
20000634:	c62a                	sw	a0,12(sp)
20000636:	354d                	jal	200004d8 <FLASH_START>
20000638:	4532                	lw	a0,12(sp)
2000063a:	33c5                	jal	2000041a <FLASH_ROM_BEG>
2000063c:	40f2                	lw	ra,28(sp)
2000063e:	6105                	addi	sp,sp,32
20000640:	b3fd                	j	2000042e <FLASH_ROM_END>

20000642 <FLASH_CMD_GET_ROM_INFO>:
FLASH_CMD_GET_ROM_INFO():
20000642:	1101                	addi	sp,sp,-32
20000644:	ce06                	sw	ra,28(sp)
20000646:	cc26                	sw	s1,24(sp)
20000648:	ca4a                	sw	s2,20(sp)
2000064a:	c84e                	sw	s3,16(sp)
2000064c:	c652                	sw	s4,12(sp)
2000064e:	89aa                	mv	s3,a0
20000650:	c456                	sw	s5,8(sp)
20000652:	892e                	mv	s2,a1
20000654:	3551                	jal	200004d8 <FLASH_START>
20000656:	000405b7          	lui	a1,0x40
2000065a:	00b9e5b3          	or	a1,s3,a1
2000065e:	452d                	li	a0,11
20000660:	3be5                	jal	20000458 <FLASH_ROM_ADDR>
20000662:	4481                	li	s1,0
20000664:	4a8d                	li	s5,3
20000666:	4a21                	li	s4,8
20000668:	3bd1                	jal	2000043c <FLASH_ROM_IN>
2000066a:	01549663          	bne	s1,s5,20000676 <FLASH_CMD_GET_ROM_INFO+0x34>
2000066e:	80042783          	lw	a5,-2048(s0)
20000672:	00f92023          	sw	a5,0(s2)
20000676:	0485                	addi	s1,s1,1
20000678:	ff4498e3          	bne	s1,s4,20000668 <FLASH_CMD_GET_ROM_INFO+0x26>
2000067c:	80042783          	lw	a5,-2048(s0)
20000680:	01299713          	slli	a4,s3,0x12
20000684:	00075c63          	bgez	a4,2000069c <FLASH_CMD_GET_ROM_INFO+0x5a>
20000688:	00f91223          	sh	a5,4(s2)
2000068c:	40f2                	lw	ra,28(sp)
2000068e:	44e2                	lw	s1,24(sp)
20000690:	4952                	lw	s2,20(sp)
20000692:	49c2                	lw	s3,16(sp)
20000694:	4a32                	lw	s4,12(sp)
20000696:	4aa2                	lw	s5,8(sp)
20000698:	6105                	addi	sp,sp,32
2000069a:	bb51                	j	2000042e <FLASH_ROM_END>
2000069c:	00f92223          	sw	a5,4(s2)
200006a0:	b7f5                	j	2000068c <FLASH_CMD_GET_ROM_INFO+0x4a>

200006a2 <FLASH_CMD_GET_UNIQUE_ID>:
FLASH_CMD_GET_UNIQUE_ID():
200006a2:	1141                	addi	sp,sp,-16
200006a4:	c606                	sw	ra,12(sp)
200006a6:	c426                	sw	s1,8(sp)
200006a8:	c24a                	sw	s2,4(sp)
200006aa:	c04e                	sw	s3,0(sp)
200006ac:	89ae                	mv	s3,a1
200006ae:	352d                	jal	200004d8 <FLASH_START>
200006b0:	4581                	li	a1,0
200006b2:	04b00513          	li	a0,75
200006b6:	334d                	jal	20000458 <FLASH_ROM_ADDR>
200006b8:	44bd                	li	s1,15
200006ba:	597d                	li	s2,-1
200006bc:	3341                	jal	2000043c <FLASH_ROM_IN>
200006be:	0074f793          	andi	a5,s1,7
200006c2:	97ce                	add	a5,a5,s3
200006c4:	0007c703          	lbu	a4,0(a5)
200006c8:	14fd                	addi	s1,s1,-1
200006ca:	8d39                	xor	a0,a0,a4
200006cc:	00a78023          	sb	a0,0(a5)
200006d0:	ff2496e3          	bne	s1,s2,200006bc <FLASH_CMD_GET_UNIQUE_ID+0x1a>
200006d4:	40b2                	lw	ra,12(sp)
200006d6:	44a2                	lw	s1,8(sp)
200006d8:	4912                	lw	s2,4(sp)
200006da:	4982                	lw	s3,0(sp)
200006dc:	0141                	addi	sp,sp,16
200006de:	bb81                	j	2000042e <FLASH_ROM_END>

200006e0 <FLASH_CMD_ROM_SW_RESET>:
FLASH_CMD_ROM_SW_RESET():
200006e0:	1141                	addi	sp,sp,-16
200006e2:	c606                	sw	ra,12(sp)
200006e4:	3bd5                	jal	200004d8 <FLASH_START>
200006e6:	06600513          	li	a0,102
200006ea:	3b05                	jal	2000041a <FLASH_ROM_BEG>
200006ec:	3389                	jal	2000042e <FLASH_ROM_END>
200006ee:	09900513          	li	a0,153
200006f2:	3325                	jal	2000041a <FLASH_ROM_BEG>
200006f4:	40b2                	lw	ra,12(sp)
200006f6:	0141                	addi	sp,sp,16
200006f8:	bb1d                	j	2000042e <FLASH_ROM_END>
	...

Disassembly of section .text:

00000700 <handle_reset>:
handle_reset():
F:/private/nanoCH57x-private/doc/CH572EVT/EVT/EXAM/SRC/Startup/startup_CH572.S:119
	.weak	handle_reset
	.align	1
handle_reset:
.option push 
.option	norelax 
	la gp, __global_pointer$
     700:	20001197          	auipc	gp,0x20001
     704:	86018193          	addi	gp,gp,-1952 # 20000f60 <__global_pointer$>
F:/private/nanoCH57x-private/doc/CH572EVT/EVT/EXAM/SRC/Startup/startup_CH572.S:121
1:
	la sp, _eusrstack 
     708:	20003117          	auipc	sp,0x20003
     70c:	8f810113          	addi	sp,sp,-1800 # 20003000 <_eusrstack>
F:/private/nanoCH57x-private/doc/CH572EVT/EVT/EXAM/SRC/Startup/startup_CH572.S:126
.option	pop

/* Load highcode code  section from flash to RAM */
2:
    la a0, _highcode_lma
     710:	00400513          	li	a0,4
F:/private/nanoCH57x-private/doc/CH572EVT/EVT/EXAM/SRC/Startup/startup_CH572.S:127
    la a1, _highcode_vma_start
     714:	20000597          	auipc	a1,0x20000
     718:	8ec58593          	addi	a1,a1,-1812 # 20000000 <_highcode_vma_start>
F:/private/nanoCH57x-private/doc/CH572EVT/EVT/EXAM/SRC/Startup/startup_CH572.S:128
    la a2, _highcode_vma_end
     71c:	20000617          	auipc	a2,0x20000
     720:	fe060613          	addi	a2,a2,-32 # 200006fc <impure_data>
F:/private/nanoCH57x-private/doc/CH572EVT/EVT/EXAM/SRC/Startup/startup_CH572.S:129
    bgeu a1, a2, 2f
     724:	00c5fa63          	bgeu	a1,a2,738 <handle_reset+0x38>
F:/private/nanoCH57x-private/doc/CH572EVT/EVT/EXAM/SRC/Startup/startup_CH572.S:131
1:
    lw t0, (a0)
     728:	00052283          	lw	t0,0(a0)
F:/private/nanoCH57x-private/doc/CH572EVT/EVT/EXAM/SRC/Startup/startup_CH572.S:132
    sw t0, (a1)
     72c:	0055a023          	sw	t0,0(a1)
F:/private/nanoCH57x-private/doc/CH572EVT/EVT/EXAM/SRC/Startup/startup_CH572.S:133
    addi a0, a0, 4
     730:	0511                	addi	a0,a0,4
F:/private/nanoCH57x-private/doc/CH572EVT/EVT/EXAM/SRC/Startup/startup_CH572.S:134
    addi a1, a1, 4
     732:	0591                	addi	a1,a1,4
F:/private/nanoCH57x-private/doc/CH572EVT/EVT/EXAM/SRC/Startup/startup_CH572.S:135
    bltu a1, a2, 1b
     734:	fec5eae3          	bltu	a1,a2,728 <handle_reset+0x28>
F:/private/nanoCH57x-private/doc/CH572EVT/EVT/EXAM/SRC/Startup/startup_CH572.S:139

/* Load data section from flash to RAM */
2:
	la a0, _data_lma
     738:	00002517          	auipc	a0,0x2
     73c:	84850513          	addi	a0,a0,-1976 # 1f80 <_data_lma>
F:/private/nanoCH57x-private/doc/CH572EVT/EVT/EXAM/SRC/Startup/startup_CH572.S:140
	la a1, _data_vma
     740:	20000597          	auipc	a1,0x20000
     744:	fbc58593          	addi	a1,a1,-68 # 200006fc <impure_data>
F:/private/nanoCH57x-private/doc/CH572EVT/EVT/EXAM/SRC/Startup/startup_CH572.S:141
	la a2, _edata
     748:	80c18613          	addi	a2,gp,-2036 # 2000076c <Freq_LSI>
F:/private/nanoCH57x-private/doc/CH572EVT/EVT/EXAM/SRC/Startup/startup_CH572.S:142
	bgeu a1, a2, 2f
     74c:	00c5fa63          	bgeu	a1,a2,760 <handle_reset+0x60>
F:/private/nanoCH57x-private/doc/CH572EVT/EVT/EXAM/SRC/Startup/startup_CH572.S:144
1:
	lw t0, (a0)
     750:	00052283          	lw	t0,0(a0)
F:/private/nanoCH57x-private/doc/CH572EVT/EVT/EXAM/SRC/Startup/startup_CH572.S:145
	sw t0, (a1)
     754:	0055a023          	sw	t0,0(a1)
F:/private/nanoCH57x-private/doc/CH572EVT/EVT/EXAM/SRC/Startup/startup_CH572.S:146
	addi a0, a0, 4
     758:	0511                	addi	a0,a0,4
F:/private/nanoCH57x-private/doc/CH572EVT/EVT/EXAM/SRC/Startup/startup_CH572.S:147
	addi a1, a1, 4
     75a:	0591                	addi	a1,a1,4
F:/private/nanoCH57x-private/doc/CH572EVT/EVT/EXAM/SRC/Startup/startup_CH572.S:148
	bltu a1, a2, 1b
     75c:	fec5eae3          	bltu	a1,a2,750 <handle_reset+0x50>
F:/private/nanoCH57x-private/doc/CH572EVT/EVT/EXAM/SRC/Startup/startup_CH572.S:151
2:
	/* clear bss section */
	la a0, _sbss
     760:	80c18513          	addi	a0,gp,-2036 # 2000076c <Freq_LSI>
F:/private/nanoCH57x-private/doc/CH572EVT/EVT/EXAM/SRC/Startup/startup_CH572.S:152
	la a1, _ebss
     764:	82818593          	addi	a1,gp,-2008 # 20000788 <_ebss>
F:/private/nanoCH57x-private/doc/CH572EVT/EVT/EXAM/SRC/Startup/startup_CH572.S:153
	bgeu a0, a1, 2f
     768:	00b57763          	bgeu	a0,a1,776 <handle_reset+0x76>
F:/private/nanoCH57x-private/doc/CH572EVT/EVT/EXAM/SRC/Startup/startup_CH572.S:155
1:
	sw zero, (a0)
     76c:	00052023          	sw	zero,0(a0)
F:/private/nanoCH57x-private/doc/CH572EVT/EVT/EXAM/SRC/Startup/startup_CH572.S:156
	addi a0, a0, 4
     770:	0511                	addi	a0,a0,4
F:/private/nanoCH57x-private/doc/CH572EVT/EVT/EXAM/SRC/Startup/startup_CH572.S:157
	bltu a0, a1, 1b
     772:	feb56de3          	bltu	a0,a1,76c <handle_reset+0x6c>
F:/private/nanoCH57x-private/doc/CH572EVT/EVT/EXAM/SRC/Startup/startup_CH572.S:161
2:
	/* 用户模式中断使能 */
	/*预取使能*/
	li t0, 0x25
     776:	02500293          	li	t0,37
F:/private/nanoCH57x-private/doc/CH572EVT/EVT/EXAM/SRC/Startup/startup_CH572.S:162
	csrw 0xbc0, t0
     77a:	bc029073          	csrw	0xbc0,t0
F:/private/nanoCH57x-private/doc/CH572EVT/EVT/EXAM/SRC/Startup/startup_CH572.S:164
	/* 打开嵌套中断、硬件压栈功能 */
	li t0, 0x3
     77e:	428d                	li	t0,3
F:/private/nanoCH57x-private/doc/CH572EVT/EVT/EXAM/SRC/Startup/startup_CH572.S:165
	csrw 0x804, t0
     780:	80429073          	csrw	0x804,t0
F:/private/nanoCH57x-private/doc/CH572EVT/EVT/EXAM/SRC/Startup/startup_CH572.S:166
	li t0, 0x1
     784:	4285                	li	t0,1
F:/private/nanoCH57x-private/doc/CH572EVT/EVT/EXAM/SRC/Startup/startup_CH572.S:167
	csrw 0xbc1, t0
     786:	bc129073          	csrw	0xbc1,t0
F:/private/nanoCH57x-private/doc/CH572EVT/EVT/EXAM/SRC/Startup/startup_CH572.S:169
	
    li t0, 0x88
     78a:	08800293          	li	t0,136
F:/private/nanoCH57x-private/doc/CH572EVT/EVT/EXAM/SRC/Startup/startup_CH572.S:170
    csrw mstatus, t0
     78e:	30029073          	csrw	mstatus,t0
F:/private/nanoCH57x-private/doc/CH572EVT/EVT/EXAM/SRC/Startup/startup_CH572.S:171
	la t0, _vector_base
     792:	20000297          	auipc	t0,0x20000
     796:	86e28293          	addi	t0,t0,-1938 # 20000000 <_highcode_vma_start>
F:/private/nanoCH57x-private/doc/CH572EVT/EVT/EXAM/SRC/Startup/startup_CH572.S:174

	/* 配置向量表模式为绝对地址模式 */
    ori t0, t0, 3
     79a:	0032e293          	ori	t0,t0,3
F:/private/nanoCH57x-private/doc/CH572EVT/EVT/EXAM/SRC/Startup/startup_CH572.S:175
	csrw mtvec, t0
     79e:	30529073          	csrw	mtvec,t0
F:/private/nanoCH57x-private/doc/CH572EVT/EVT/EXAM/SRC/Startup/startup_CH572.S:177

	la t0, main
     7a2:	00000297          	auipc	t0,0x0
     7a6:	04828293          	addi	t0,t0,72 # 7ea <main>
F:/private/nanoCH57x-private/doc/CH572EVT/EVT/EXAM/SRC/Startup/startup_CH572.S:178
	csrw mepc, t0
     7aa:	34129073          	csrw	mepc,t0
F:/private/nanoCH57x-private/doc/CH572EVT/EVT/EXAM/SRC/Startup/startup_CH572.S:180
	
	mret
     7ae:	30200073          	mret

000007b2 <memset>:
memset():
     7b2:	832a                	mv	t1,a0
     7b4:	c611                	beqz	a2,7c0 <memset+0xe>
     7b6:	00b30023          	sb	a1,0(t1)
     7ba:	167d                	addi	a2,a2,-1
     7bc:	0305                	addi	t1,t1,1
     7be:	fe65                	bnez	a2,7b6 <memset+0x4>
     7c0:	8082                	ret

000007c2 <DebugInit>:
DebugInit():
F:\private\nanoCH57x-private\doc\CH572EVT\EVT\EXAM\TMR\obj/../src/Main.c:37
{
     7c2:	1141                	addi	sp,sp,-16
     7c4:	c606                	sw	ra,12(sp)
F:\private\nanoCH57x-private\doc\CH572EVT\EVT\EXAM\TMR\obj/../src/Main.c:38
    GPIOA_SetBits(bTXD_0);
     7c6:	400017b7          	lui	a5,0x40001
     7ca:	4721                	li	a4,8
     7cc:	0ae7ac23          	sw	a4,184(a5) # 400010b8 <_eusrstack+0x1fffe0b8>
F:\private\nanoCH57x-private\doc\CH572EVT\EVT\EXAM\TMR\obj/../src/Main.c:39
    GPIOA_ModeCfg(bRXD_0, GPIO_ModeIN_PU);      // RXD-配置上拉输入
     7d0:	4585                	li	a1,1
     7d2:	4511                	li	a0,4
     7d4:	20cd                	jal	8b6 <GPIOA_ModeCfg>
F:\private\nanoCH57x-private\doc\CH572EVT\EVT\EXAM\TMR\obj/../src/Main.c:40
    GPIOA_ModeCfg(bTXD_0, GPIO_ModeOut_PP_5mA); // TXD-配置推挽输出，注意先让IO口输出高电平
     7d6:	458d                	li	a1,3
     7d8:	4521                	li	a0,8
     7da:	28f1                	jal	8b6 <GPIOA_ModeCfg>
F:\private\nanoCH57x-private\doc\CH572EVT\EVT\EXAM\TMR\obj/../src/Main.c:41
    UART_Remap(ENABLE, UART_TX_REMAP_PA3, UART_RX_REMAP_PA2);
     7dc:	4601                	li	a2,0
     7de:	4581                	li	a1,0
     7e0:	4505                	li	a0,1
     7e2:	2485                	jal	a42 <UART_Remap>
F:\private\nanoCH57x-private\doc\CH572EVT\EVT\EXAM\TMR\obj/../src/Main.c:43
}
     7e4:	40b2                	lw	ra,12(sp)
     7e6:	0141                	addi	sp,sp,16
F:\private\nanoCH57x-private\doc\CH572EVT\EVT\EXAM\TMR\obj/../src/Main.c:42
    UART_DefInit();
     7e8:	a425                	j	a10 <UART_DefInit>

000007ea <main>:
main():
F:\private\nanoCH57x-private\doc\CH572EVT\EVT\EXAM\TMR\obj/../src/Main.c:53
{
     7ea:	1101                	addi	sp,sp,-32
F:\private\nanoCH57x-private\doc\CH572EVT\EVT\EXAM\TMR\obj/../src/Main.c:56
    HSECFG_Capacitance(HSECap_18p);
     7ec:	4519                	li	a0,6
F:\private\nanoCH57x-private\doc\CH572EVT\EVT\EXAM\TMR\obj/../src/Main.c:53
{
     7ee:	ce06                	sw	ra,28(sp)
     7f0:	cc22                	sw	s0,24(sp)
     7f2:	ca26                	sw	s1,20(sp)
     7f4:	c84a                	sw	s2,16(sp)
     7f6:	c64e                	sw	s3,12(sp)
F:\private\nanoCH57x-private\doc\CH572EVT\EVT\EXAM\TMR\obj/../src/Main.c:56
    HSECFG_Capacitance(HSECap_18p);
     7f8:	20bd                	jal	866 <HSECFG_Capacitance>
F:\private\nanoCH57x-private\doc\CH572EVT\EVT\EXAM\TMR\obj/../src/Main.c:57
    SetSysClock(CLK_SOURCE_HSE_PLL_100MHz);
     7fa:	04600513          	li	a0,70
     7fe:	20000097          	auipc	ra,0x20000
     802:	8f8080e7          	jalr	-1800(ra) # 200000f6 <SetSysClock>
F:\private\nanoCH57x-private\doc\CH572EVT\EVT\EXAM\TMR\obj/../src/Main.c:60
    DebugInit();
     806:	3f75                	jal	7c2 <DebugInit>
F:\private\nanoCH57x-private\doc\CH572EVT\EVT\EXAM\TMR\obj/../src/Main.c:61
    PRINT("Start @ChipID=%02X %s %s\r\n", R8_CHIP_ID, __DATE__, __TIME__);
     808:	400017b7          	lui	a5,0x40001
     80c:	0417c583          	lbu	a1,65(a5) # 40001041 <_eusrstack+0x1fffe041>
     810:	00001697          	auipc	a3,0x1
     814:	62868693          	addi	a3,a3,1576 # 1e38 <_read+0xc>
     818:	00001617          	auipc	a2,0x1
     81c:	62c60613          	addi	a2,a2,1580 # 1e44 <_read+0x18>
     820:	00001517          	auipc	a0,0x1
     824:	63050513          	addi	a0,a0,1584 # 1e50 <_read+0x24>
     828:	2ea5                	jal	ba0 <iprintf>
F:\private\nanoCH57x-private\doc\CH572EVT\EVT\EXAM\TMR\obj/../src/Main.c:65
    GPIOA_ModeCfg(GPIO_Pin_11, GPIO_ModeOut_PP_5mA);
     82a:	458d                	li	a1,3
     82c:	28b01513          	bseti	a0,zero,0xb
F:\private\nanoCH57x-private\doc\CH572EVT\EVT\EXAM\TMR\obj/../src/Main.c:70
        GPIOA_SetBits(GPIO_Pin_11);
     830:	40001437          	lui	s0,0x40001
F:\private\nanoCH57x-private\doc\CH572EVT\EVT\EXAM\TMR\obj/../src/Main.c:65
    GPIOA_ModeCfg(GPIO_Pin_11, GPIO_ModeOut_PP_5mA);
     834:	2049                	jal	8b6 <GPIOA_ModeCfg>
F:\private\nanoCH57x-private\doc\CH572EVT\EVT\EXAM\TMR\obj/../src/Main.c:70
        GPIOA_SetBits(GPIO_Pin_11);
     836:	0b840913          	addi	s2,s0,184 # 400010b8 <_eusrstack+0x1fffe0b8>
     83a:	28b01493          	bseti	s1,zero,0xb
     83e:	28b01993          	bseti	s3,zero,0xb
F:\private\nanoCH57x-private\doc\CH572EVT\EVT\EXAM\TMR\obj/../src/Main.c:70 (discriminator 1)
     842:	01392023          	sw	s3,0(s2)
F:\private\nanoCH57x-private\doc\CH572EVT\EVT\EXAM\TMR\obj/../src/Main.c:71 (discriminator 1)
        mDelaymS(100);
     846:	06400513          	li	a0,100
     84a:	20000097          	auipc	ra,0x20000
     84e:	b7e080e7          	jalr	-1154(ra) # 200003c8 <mDelaymS>
F:\private\nanoCH57x-private\doc\CH572EVT\EVT\EXAM\TMR\obj/../src/Main.c:72 (discriminator 1)
        GPIOA_ResetBits(GPIO_Pin_11);
     852:	0ac40793          	addi	a5,s0,172
     856:	c384                	sw	s1,0(a5)
F:\private\nanoCH57x-private\doc\CH572EVT\EVT\EXAM\TMR\obj/../src/Main.c:73 (discriminator 1)
        mDelaymS(100);
     858:	06400513          	li	a0,100
     85c:	20000097          	auipc	ra,0x20000
     860:	b6c080e7          	jalr	-1172(ra) # 200003c8 <mDelaymS>
F:\private\nanoCH57x-private\doc\CH572EVT\EVT\EXAM\TMR\obj/../src/Main.c:68 (discriminator 1)
    while(1) {
     864:	bff9                	j	842 <main+0x58>

00000866 <HSECFG_Capacitance>:
HSECFG_Capacitance():
F:/private/nanoCH57x-private/doc/CH572EVT/EVT/EXAM/SRC/StdPeriphDriver/CH57x_clk.c:81
 */
void HSECFG_Capacitance(HSECapTypeDef c)
{
    uint8_t x32M_c;

    x32M_c = R8_XT32M_TUNE;
     866:	40001737          	lui	a4,0x40001
     86a:	04e74783          	lbu	a5,78(a4) # 4000104e <_eusrstack+0x1fffe04e>
F:/private/nanoCH57x-private/doc/CH572EVT/EVT/EXAM/SRC/StdPeriphDriver/CH57x_clk.c:82
    x32M_c = (x32M_c & 0x0f) | (c << 4);
     86e:	0512                	slli	a0,a0,0x4
F:/private/nanoCH57x-private/doc/CH572EVT/EVT/EXAM/SRC/StdPeriphDriver/CH57x_clk.c:78
{
     870:	1141                	addi	sp,sp,-16
F:/private/nanoCH57x-private/doc/CH572EVT/EVT/EXAM/SRC/StdPeriphDriver/CH57x_clk.c:82
    x32M_c = (x32M_c & 0x0f) | (c << 4);
     872:	8bbd                	andi	a5,a5,15
     874:	8fc9                	or	a5,a5,a0
     876:	0ff7f793          	zext.b	a5,a5
__risc_v_disable_irq():
F:\private\nanoCH57x-private\doc\CH572EVT\EVT\EXAM\SRC\RVMSIS/core_riscv.h:154
    __asm volatile("csrrc %0, 0x800, %1" : \
     87a:	08800693          	li	a3,136
     87e:	8006b6f3          	csrrc	a3,0x800,a3
F:\private\nanoCH57x-private\doc\CH572EVT\EVT\EXAM\SRC\RVMSIS/core_riscv.h:156
    return result & 0x88;
     882:	0886f693          	andi	a3,a3,136
HSECFG_Capacitance():
F:/private/nanoCH57x-private/doc/CH572EVT/EVT/EXAM/SRC/StdPeriphDriver/CH57x_clk.c:84

    sys_safe_access_enable();
     886:	c636                	sw	a3,12(sp)
     888:	0000100f          	fence.i
     88c:	05700693          	li	a3,87
     890:	04d70023          	sb	a3,64(a4)
     894:	fa800693          	li	a3,-88
     898:	04d70023          	sb	a3,64(a4)
     89c:	0000100f          	fence.i
F:/private/nanoCH57x-private/doc/CH572EVT/EVT/EXAM/SRC/StdPeriphDriver/CH57x_clk.c:85
    R8_XT32M_TUNE = x32M_c;
     8a0:	04f70723          	sb	a5,78(a4)
F:/private/nanoCH57x-private/doc/CH572EVT/EVT/EXAM/SRC/StdPeriphDriver/CH57x_clk.c:86
    sys_safe_access_disable();
     8a4:	04070023          	sb	zero,64(a4)
     8a8:	47b2                	lw	a5,12(sp)
__risc_v_enable_irq():
F:\private\nanoCH57x-private\doc\CH572EVT\EVT\EXAM\SRC\RVMSIS/core_riscv.h:138
    __asm volatile("csrrs %0, 0x800, %1" : \
     8aa:	8007a7f3          	csrrs	a5,0x800,a5
HSECFG_Capacitance():
F:/private/nanoCH57x-private/doc/CH572EVT/EVT/EXAM/SRC/StdPeriphDriver/CH57x_clk.c:86
     8ae:	0000100f          	fence.i
F:/private/nanoCH57x-private/doc/CH572EVT/EVT/EXAM/SRC/StdPeriphDriver/CH57x_clk.c:87
}
     8b2:	0141                	addi	sp,sp,16
     8b4:	8082                	ret

000008b6 <GPIOA_ModeCfg>:
GPIOA_ModeCfg():
F:/private/nanoCH57x-private/doc/CH572EVT/EVT/EXAM/SRC/StdPeriphDriver/CH57x_gpio.c:27
 *
 * @return  none
 */
void GPIOA_ModeCfg(uint32_t pin, GPIOModeTypeDef mode)
{
    switch(mode)
     8b6:	4791                	li	a5,4
     8b8:	04b7ec63          	bltu	a5,a1,910 <GPIOA_ModeCfg+0x5a>
     8bc:	00001797          	auipc	a5,0x1
     8c0:	5b878793          	addi	a5,a5,1464 # 1e74 <_read+0x48>
     8c4:	20f5c5b3          	sh2add	a1,a1,a5
     8c8:	4198                	lw	a4,0(a1)
     8ca:	973e                	add	a4,a4,a5
     8cc:	400017b7          	lui	a5,0x40001
     8d0:	0b478793          	addi	a5,a5,180 # 400010b4 <_eusrstack+0x1fffe0b4>
     8d4:	8702                	jr	a4
F:/private/nanoCH57x-private/doc/CH572EVT/EVT/EXAM/SRC/StdPeriphDriver/CH57x_gpio.c:30
    {
        case GPIO_ModeIN_Floating:
            R32_PA_PD_DRV &= ~pin;
     8d6:	4394                	lw	a3,0(a5)
     8d8:	40001737          	lui	a4,0x40001
     8dc:	40a6f6b3          	andn	a3,a3,a0
F:/private/nanoCH57x-private/doc/CH572EVT/EVT/EXAM/SRC/StdPeriphDriver/CH57x_gpio.c:42
            R32_PA_PU |= pin;
            R32_PA_DIR &= ~pin;
            break;

        case GPIO_ModeIN_PD:
            R32_PA_PD_DRV |= pin;
     8e0:	c394                	sw	a3,0(a5)
F:/private/nanoCH57x-private/doc/CH572EVT/EVT/EXAM/SRC/StdPeriphDriver/CH57x_gpio.c:43
            R32_PA_PU &= ~pin;
     8e2:	0b070693          	addi	a3,a4,176 # 400010b0 <_eusrstack+0x1fffe0b0>
     8e6:	429c                	lw	a5,0(a3)
     8e8:	40a7f7b3          	andn	a5,a5,a0
     8ec:	a819                	j	902 <GPIOA_ModeCfg+0x4c>
F:/private/nanoCH57x-private/doc/CH572EVT/EVT/EXAM/SRC/StdPeriphDriver/CH57x_gpio.c:36
            R32_PA_PD_DRV &= ~pin;
     8ee:	4394                	lw	a3,0(a5)
     8f0:	40001737          	lui	a4,0x40001
     8f4:	40a6f6b3          	andn	a3,a3,a0
     8f8:	c394                	sw	a3,0(a5)
F:/private/nanoCH57x-private/doc/CH572EVT/EVT/EXAM/SRC/StdPeriphDriver/CH57x_gpio.c:37
            R32_PA_PU |= pin;
     8fa:	0b070693          	addi	a3,a4,176 # 400010b0 <_eusrstack+0x1fffe0b0>
     8fe:	429c                	lw	a5,0(a3)
     900:	8fc9                	or	a5,a5,a0
F:/private/nanoCH57x-private/doc/CH572EVT/EVT/EXAM/SRC/StdPeriphDriver/CH57x_gpio.c:43
            R32_PA_PU &= ~pin;
     902:	c29c                	sw	a5,0(a3)
F:/private/nanoCH57x-private/doc/CH572EVT/EVT/EXAM/SRC/StdPeriphDriver/CH57x_gpio.c:44
            R32_PA_DIR &= ~pin;
     904:	0a070793          	addi	a5,a4,160
     908:	4398                	lw	a4,0(a5)
     90a:	40a77733          	andn	a4,a4,a0
F:/private/nanoCH57x-private/doc/CH572EVT/EVT/EXAM/SRC/StdPeriphDriver/CH57x_gpio.c:54
            R32_PA_DIR |= pin;
            break;

        case GPIO_ModeOut_PP_20mA:
            R32_PA_PD_DRV |= pin;
            R32_PA_DIR |= pin;
     90e:	c398                	sw	a4,0(a5)
F:/private/nanoCH57x-private/doc/CH572EVT/EVT/EXAM/SRC/StdPeriphDriver/CH57x_gpio.c:60
            break;

        default:
            break;
    }
}
     910:	8082                	ret
F:/private/nanoCH57x-private/doc/CH572EVT/EVT/EXAM/SRC/StdPeriphDriver/CH57x_gpio.c:42
            R32_PA_PD_DRV |= pin;
     912:	4394                	lw	a3,0(a5)
     914:	40001737          	lui	a4,0x40001
     918:	8ec9                	or	a3,a3,a0
     91a:	b7d9                	j	8e0 <GPIOA_ModeCfg+0x2a>
F:/private/nanoCH57x-private/doc/CH572EVT/EVT/EXAM/SRC/StdPeriphDriver/CH57x_gpio.c:48
            R32_PA_PD_DRV &= ~pin;
     91c:	4398                	lw	a4,0(a5)
     91e:	40a77733          	andn	a4,a4,a0
F:/private/nanoCH57x-private/doc/CH572EVT/EVT/EXAM/SRC/StdPeriphDriver/CH57x_gpio.c:53
            R32_PA_PD_DRV |= pin;
     922:	c398                	sw	a4,0(a5)
F:/private/nanoCH57x-private/doc/CH572EVT/EVT/EXAM/SRC/StdPeriphDriver/CH57x_gpio.c:54
            R32_PA_DIR |= pin;
     924:	400017b7          	lui	a5,0x40001
     928:	0a078793          	addi	a5,a5,160 # 400010a0 <_eusrstack+0x1fffe0a0>
     92c:	4398                	lw	a4,0(a5)
     92e:	8f49                	or	a4,a4,a0
     930:	bff9                	j	90e <GPIOA_ModeCfg+0x58>
F:/private/nanoCH57x-private/doc/CH572EVT/EVT/EXAM/SRC/StdPeriphDriver/CH57x_gpio.c:53
            R32_PA_PD_DRV |= pin;
     932:	4398                	lw	a4,0(a5)
     934:	8f49                	or	a4,a4,a0
     936:	b7f5                	j	922 <GPIOA_ModeCfg+0x6c>

00000938 <GetSysClock>:
GetSysClock():
F:/private/nanoCH57x-private/doc/CH572EVT/EVT/EXAM/SRC/StdPeriphDriver/CH57x_sys.c:101
    if((R8_CLK_SYS_CFG & RB_CLK_SYS_MOD) == RB_CLK_SYS_MOD)
     938:	400017b7          	lui	a5,0x40001
     93c:	2798                	lbu	a4,8(a5)
     93e:	0c000693          	li	a3,192
     942:	0c077713          	andi	a4,a4,192
     946:	00d71563          	bne	a4,a3,950 <GetSysClock+0x18>
F:/private/nanoCH57x-private/doc/CH572EVT/EVT/EXAM/SRC/StdPeriphDriver/CH57x_sys.c:103
        return (Freq_LSI);
     94a:	80c1a503          	lw	a0,-2036(gp) # 2000076c <Freq_LSI>
     94e:	8082                	ret
F:/private/nanoCH57x-private/doc/CH572EVT/EVT/EXAM/SRC/StdPeriphDriver/CH57x_sys.c:105
    else if((R8_CLK_SYS_CFG & RB_CLK_SYS_MOD) == 0x40)
     950:	2798                	lbu	a4,8(a5)
     952:	04000693          	li	a3,64
     956:	0c077713          	andi	a4,a4,192
     95a:	02d71063          	bne	a4,a3,97a <GetSysClock+0x42>
F:/private/nanoCH57x-private/doc/CH572EVT/EVT/EXAM/SRC/StdPeriphDriver/CH57x_sys.c:107
        return (600000000 / ((R8_CLK_SYS_CFG & 0x1f)?(R8_CLK_SYS_CFG & 0x1f):32));
     95e:	2794                	lbu	a3,8(a5)
     960:	02000713          	li	a4,32
     964:	8afd                	andi	a3,a3,31
     966:	c299                	beqz	a3,96c <GetSysClock+0x34>
F:/private/nanoCH57x-private/doc/CH572EVT/EVT/EXAM/SRC/StdPeriphDriver/CH57x_sys.c:107 (discriminator 1)
     968:	2798                	lbu	a4,8(a5)
     96a:	8b7d                	andi	a4,a4,31
F:/private/nanoCH57x-private/doc/CH572EVT/EVT/EXAM/SRC/StdPeriphDriver/CH57x_sys.c:107 (discriminator 4)
     96c:	23c34537          	lui	a0,0x23c34
     970:	60050513          	addi	a0,a0,1536 # 23c34600 <_eusrstack+0x3c31600>
F:/private/nanoCH57x-private/doc/CH572EVT/EVT/EXAM/SRC/StdPeriphDriver/CH57x_sys.c:111 (discriminator 4)
        return (32000000 / ((R8_CLK_SYS_CFG & 0x1f)?(R8_CLK_SYS_CFG & 0x1f):32));
     974:	02e54533          	div	a0,a0,a4
F:/private/nanoCH57x-private/doc/CH572EVT/EVT/EXAM/SRC/StdPeriphDriver/CH57x_sys.c:113 (discriminator 4)
}
     978:	8082                	ret
F:/private/nanoCH57x-private/doc/CH572EVT/EVT/EXAM/SRC/StdPeriphDriver/CH57x_sys.c:111
        return (32000000 / ((R8_CLK_SYS_CFG & 0x1f)?(R8_CLK_SYS_CFG & 0x1f):32));
     97a:	2794                	lbu	a3,8(a5)
     97c:	02000713          	li	a4,32
     980:	8afd                	andi	a3,a3,31
     982:	c299                	beqz	a3,988 <GetSysClock+0x50>
F:/private/nanoCH57x-private/doc/CH572EVT/EVT/EXAM/SRC/StdPeriphDriver/CH57x_sys.c:111 (discriminator 1)
     984:	2798                	lbu	a4,8(a5)
     986:	8b7d                	andi	a4,a4,31
F:/private/nanoCH57x-private/doc/CH572EVT/EVT/EXAM/SRC/StdPeriphDriver/CH57x_sys.c:111 (discriminator 4)
     988:	01e85537          	lui	a0,0x1e85
     98c:	80050513          	addi	a0,a0,-2048 # 1e84800 <_data_lma+0x1e82880>
     990:	b7d5                	j	974 <GetSysClock+0x3c>

00000992 <_write>:
_write():
F:/private/nanoCH57x-private/doc/CH572EVT/EVT/EXAM/SRC/StdPeriphDriver/CH57x_sys.c:375

#ifdef DEBUG
int _write(int fd, char *buf, int size)
{
     992:	8532                	mv	a0,a2
F:/private/nanoCH57x-private/doc/CH572EVT/EVT/EXAM/SRC/StdPeriphDriver/CH57x_sys.c:377
    int i;
    for(i = 0; i < size; i++)
     994:	4781                	li	a5,0
F:/private/nanoCH57x-private/doc/CH572EVT/EVT/EXAM/SRC/StdPeriphDriver/CH57x_sys.c:379
    {
        while(R8_UART_TFC == UART_FIFO_SIZE);                  /* 等待数据发送 */
     996:	40003737          	lui	a4,0x40003
     99a:	46a1                	li	a3,8
F:/private/nanoCH57x-private/doc/CH572EVT/EVT/EXAM/SRC/StdPeriphDriver/CH57x_sys.c:377 (discriminator 1)
    for(i = 0; i < size; i++)
     99c:	00a7c363          	blt	a5,a0,9a2 <_write+0x10>
F:/private/nanoCH57x-private/doc/CH572EVT/EVT/EXAM/SRC/StdPeriphDriver/CH57x_sys.c:383
            R8_UART_THR = *buf++; /* 发送数据 */
    }
    return size;
}
     9a0:	8082                	ret
F:/private/nanoCH57x-private/doc/CH572EVT/EVT/EXAM/SRC/StdPeriphDriver/CH57x_sys.c:379 (discriminator 1)
        while(R8_UART_TFC == UART_FIFO_SIZE);                  /* 等待数据发送 */
     9a2:	40b74603          	lbu	a2,1035(a4) # 4000340b <_eusrstack+0x2000040b>
     9a6:	fed60ee3          	beq	a2,a3,9a2 <_write+0x10>
F:/private/nanoCH57x-private/doc/CH572EVT/EVT/EXAM/SRC/StdPeriphDriver/CH57x_sys.c:380 (discriminator 2)
            R8_UART_THR = *buf++; /* 发送数据 */
     9aa:	00f58633          	add	a2,a1,a5
     9ae:	2210                	lbu	a2,0(a2)
F:/private/nanoCH57x-private/doc/CH572EVT/EVT/EXAM/SRC/StdPeriphDriver/CH57x_sys.c:377 (discriminator 2)
    for(i = 0; i < size; i++)
     9b0:	0785                	addi	a5,a5,1 # 40001001 <_eusrstack+0x1fffe001>
F:/private/nanoCH57x-private/doc/CH572EVT/EVT/EXAM/SRC/StdPeriphDriver/CH57x_sys.c:380 (discriminator 2)
            R8_UART_THR = *buf++; /* 发送数据 */
     9b2:	40c70423          	sb	a2,1032(a4)
F:/private/nanoCH57x-private/doc/CH572EVT/EVT/EXAM/SRC/StdPeriphDriver/CH57x_sys.c:377 (discriminator 2)
    for(i = 0; i < size; i++)
     9b6:	b7dd                	j	99c <_write+0xa>

000009b8 <_sbrk>:
_sbrk():
F:/private/nanoCH57x-private/doc/CH572EVT/EVT/EXAM/SRC/StdPeriphDriver/CH57x_sys.c:400
void *_sbrk(ptrdiff_t incr)
{
    extern char _end[];
    static char *curbrk = _end;

    if ((curbrk + incr < _end) || ((uint32_t)curbrk + incr > (__get_SP() - 64)))
     9b8:	20000697          	auipc	a3,0x20000
     9bc:	da868693          	addi	a3,a3,-600 # 20000760 <curbrk.0>
F:/private/nanoCH57x-private/doc/CH572EVT/EVT/EXAM/SRC/StdPeriphDriver/CH57x_sys.c:396
{
     9c0:	87aa                	mv	a5,a0
F:/private/nanoCH57x-private/doc/CH572EVT/EVT/EXAM/SRC/StdPeriphDriver/CH57x_sys.c:400
    if ((curbrk + incr < _end) || ((uint32_t)curbrk + incr > (__get_SP() - 64)))
     9c2:	4288                	lw	a0,0(a3)
     9c4:	82818713          	addi	a4,gp,-2008 # 20000788 <_ebss>
     9c8:	97aa                	add	a5,a5,a0
     9ca:	00e7e963          	bltu	a5,a4,9dc <_sbrk+0x24>
__get_SP():
F:\private\nanoCH57x-private\doc\CH572EVT\EVT\EXAM\SRC\RVMSIS/core_riscv.h:630 (discriminator 1)
 */
__attribute__((always_inline)) RV_STATIC_INLINE uint32_t __get_SP(void)
{
    uint32_t result;

    __ASM volatile("mv %0," "sp" : "=r"(result) :);
     9ce:	870a                	mv	a4,sp
_sbrk():
F:/private/nanoCH57x-private/doc/CH572EVT/EVT/EXAM/SRC/StdPeriphDriver/CH57x_sys.c:400 (discriminator 1)
     9d0:	fc070713          	addi	a4,a4,-64
     9d4:	00f76463          	bltu	a4,a5,9dc <_sbrk+0x24>
F:/private/nanoCH57x-private/doc/CH572EVT/EVT/EXAM/SRC/StdPeriphDriver/CH57x_sys.c:403
    return NULL - 1;

    curbrk += incr;
     9d8:	c29c                	sw	a5,0(a3)
F:/private/nanoCH57x-private/doc/CH572EVT/EVT/EXAM/SRC/StdPeriphDriver/CH57x_sys.c:404
    return curbrk - incr;
     9da:	8082                	ret
F:/private/nanoCH57x-private/doc/CH572EVT/EVT/EXAM/SRC/StdPeriphDriver/CH57x_sys.c:401
    return NULL - 1;
     9dc:	557d                	li	a0,-1
F:/private/nanoCH57x-private/doc/CH572EVT/EVT/EXAM/SRC/StdPeriphDriver/CH57x_sys.c:405
}
     9de:	8082                	ret

000009e0 <UART_BaudRateCfg>:
UART_BaudRateCfg():
F:/private/nanoCH57x-private/doc/CH572EVT/EVT/EXAM/SRC/StdPeriphDriver/CH57x_uart.c:43
 * @param   baudrate    - 波特率
 *
 * @return  none
 */
void UART_BaudRateCfg(uint32_t baudrate)
{
     9e0:	1141                	addi	sp,sp,-16
     9e2:	c422                	sw	s0,8(sp)
     9e4:	c606                	sw	ra,12(sp)
     9e6:	842a                	mv	s0,a0
F:/private/nanoCH57x-private/doc/CH572EVT/EVT/EXAM/SRC/StdPeriphDriver/CH57x_uart.c:46
    uint32_t x;

    x = 10 * GetSysClock() / 8 / baudrate;
     9e8:	3f81                	jal	938 <GetSysClock>
     9ea:	4729                	li	a4,10
     9ec:	02e507b3          	mul	a5,a0,a4
F:/private/nanoCH57x-private/doc/CH572EVT/EVT/EXAM/SRC/StdPeriphDriver/CH57x_uart.c:49
    x = (x + 5) / 10;
    R16_UART_DL = (uint16_t)x;
}
     9f0:	40b2                	lw	ra,12(sp)
F:/private/nanoCH57x-private/doc/CH572EVT/EVT/EXAM/SRC/StdPeriphDriver/CH57x_uart.c:46
    x = 10 * GetSysClock() / 8 / baudrate;
     9f2:	838d                	srli	a5,a5,0x3
     9f4:	0287d7b3          	divu	a5,a5,s0
F:/private/nanoCH57x-private/doc/CH572EVT/EVT/EXAM/SRC/StdPeriphDriver/CH57x_uart.c:49
}
     9f8:	4422                	lw	s0,8(sp)
F:/private/nanoCH57x-private/doc/CH572EVT/EVT/EXAM/SRC/StdPeriphDriver/CH57x_uart.c:47
    x = (x + 5) / 10;
     9fa:	0795                	addi	a5,a5,5
     9fc:	02e7d7b3          	divu	a5,a5,a4
F:/private/nanoCH57x-private/doc/CH572EVT/EVT/EXAM/SRC/StdPeriphDriver/CH57x_uart.c:48
    R16_UART_DL = (uint16_t)x;
     a00:	40003737          	lui	a4,0x40003
     a04:	0807c7b3          	zext.h	a5,a5
     a08:	40f71623          	sh	a5,1036(a4) # 4000340c <_eusrstack+0x2000040c>
F:/private/nanoCH57x-private/doc/CH572EVT/EVT/EXAM/SRC/StdPeriphDriver/CH57x_uart.c:49
}
     a0c:	0141                	addi	sp,sp,16
     a0e:	8082                	ret

00000a10 <UART_DefInit>:
UART_DefInit():
F:/private/nanoCH57x-private/doc/CH572EVT/EVT/EXAM/SRC/StdPeriphDriver/CH57x_uart.c:26
    UART_BaudRateCfg(115200);
     a10:	6571                	lui	a0,0x1c
F:/private/nanoCH57x-private/doc/CH572EVT/EVT/EXAM/SRC/StdPeriphDriver/CH57x_uart.c:25
{
     a12:	1141                	addi	sp,sp,-16
F:/private/nanoCH57x-private/doc/CH572EVT/EVT/EXAM/SRC/StdPeriphDriver/CH57x_uart.c:26
    UART_BaudRateCfg(115200);
     a14:	20050513          	addi	a0,a0,512 # 1c200 <_data_lma+0x1a280>
F:/private/nanoCH57x-private/doc/CH572EVT/EVT/EXAM/SRC/StdPeriphDriver/CH57x_uart.c:25
{
     a18:	c606                	sw	ra,12(sp)
F:/private/nanoCH57x-private/doc/CH572EVT/EVT/EXAM/SRC/StdPeriphDriver/CH57x_uart.c:26
    UART_BaudRateCfg(115200);
     a1a:	37d9                	jal	9e0 <UART_BaudRateCfg>
F:/private/nanoCH57x-private/doc/CH572EVT/EVT/EXAM/SRC/StdPeriphDriver/CH57x_uart.c:27
    R8_UART_FCR = (2 << 6) | RB_FCR_FIFO_EN; // FIFO打开，触发点4字节
     a1c:	400037b7          	lui	a5,0x40003
     a20:	f8100713          	li	a4,-127
     a24:	40e78123          	sb	a4,1026(a5) # 40003402 <_eusrstack+0x20000402>
F:/private/nanoCH57x-private/doc/CH572EVT/EVT/EXAM/SRC/StdPeriphDriver/CH57x_uart.c:28
    R8_UART_LCR = RB_LCR_WORD_SZ;
     a28:	470d                	li	a4,3
     a2a:	40e781a3          	sb	a4,1027(a5)
F:/private/nanoCH57x-private/doc/CH572EVT/EVT/EXAM/SRC/StdPeriphDriver/CH57x_uart.c:29
    R8_UART_IER = RB_IER_TXD_EN;
     a2e:	04000713          	li	a4,64
     a32:	40e780a3          	sb	a4,1025(a5)
F:/private/nanoCH57x-private/doc/CH572EVT/EVT/EXAM/SRC/StdPeriphDriver/CH57x_uart.c:30
    R8_UART_DIV = 1;
     a36:	4705                	li	a4,1
     a38:	40e78723          	sb	a4,1038(a5)
F:/private/nanoCH57x-private/doc/CH572EVT/EVT/EXAM/SRC/StdPeriphDriver/CH57x_uart.c:31
}
     a3c:	40b2                	lw	ra,12(sp)
     a3e:	0141                	addi	sp,sp,16
     a40:	8082                	ret

00000a42 <UART_Remap>:
UART_Remap():
F:/private/nanoCH57x-private/doc/CH572EVT/EVT/EXAM/SRC/StdPeriphDriver/CH57x_uart.c:153
 */
void UART_Remap(FunctionalState s, UARTTxPinRemapDef u_tx, UARTRxPinRemapDef u_rx)
{
    if(s)
    {
        R16_PIN_ALTERNATE_H &= ~(RB_UART_TXD | RB_UART_RXD); // 该寄存器仅在上电复位和ShutDown睡眠时清0
     a42:	40001737          	lui	a4,0x40001
     a46:	2f3e                	lhu	a5,26(a4)
     a48:	0807c7b3          	zext.h	a5,a5
     a4c:	fc07f793          	andi	a5,a5,-64
     a50:	0807c7b3          	zext.h	a5,a5
     a54:	af3e                	sh	a5,26(a4)
F:/private/nanoCH57x-private/doc/CH572EVT/EVT/EXAM/SRC/StdPeriphDriver/CH57x_uart.c:151
    if(s)
     a56:	c909                	beqz	a0,a68 <UART_Remap+0x26>
F:/private/nanoCH57x-private/doc/CH572EVT/EVT/EXAM/SRC/StdPeriphDriver/CH57x_uart.c:154
        R16_PIN_ALTERNATE_H |= (u_tx << 3) | u_rx;
     a58:	2f3e                	lhu	a5,26(a4)
     a5a:	058e                	slli	a1,a1,0x3
     a5c:	8e5d                	or	a2,a2,a5
     a5e:	8dd1                	or	a1,a1,a2
     a60:	0805c5b3          	zext.h	a1,a1
     a64:	af2e                	sh	a1,26(a4)
     a66:	8082                	ret
F:/private/nanoCH57x-private/doc/CH572EVT/EVT/EXAM/SRC/StdPeriphDriver/CH57x_uart.c:160
    }
    else
    {
        R16_PIN_ALTERNATE_H &= ~(RB_UART_TXD | RB_UART_RXD);
    }
}
     a68:	8082                	ret

00000a6a <FLASH_EEPROM_CMD>:
FLASH_EEPROM_CMD():
     a6a:	1101                	addi	sp,sp,-32
     a6c:	872a                	mv	a4,a0
     a6e:	ce06                	sw	ra,28(sp)
     a70:	852e                	mv	a0,a1
     a72:	cc26                	sw	s1,24(sp)
     a74:	85b2                	mv	a1,a2
     a76:	ca4a                	sw	s2,20(sp)
     a78:	8636                	mv	a2,a3
     a7a:	c622                	sw	s0,12(sp)
     a7c:	40002437          	lui	s0,0x40002
     a80:	e000e7b7          	lui	a5,0xe000e
     a84:	56fd                	li	a3,-1
     a86:	0007a903          	lw	s2,0(a5) # e000e000 <_eusrstack+0xc000b000>
     a8a:	43c4                	lw	s1,4(a5)
     a8c:	18d7a023          	sw	a3,384(a5)
     a90:	18d7a223          	sw	a3,388(a5)
     a94:	fff70793          	addi	a5,a4,-1 # 40000fff <_eusrstack+0x1fffdfff>
     a98:	0ff7f793          	zext.b	a5,a5
     a9c:	4689                	li	a3,2
     a9e:	0af6e063          	bltu	a3,a5,b3e <FLASH_EEPROM_CMD+0xd4>
     aa2:	400017b7          	lui	a5,0x40001
     aa6:	0457c783          	lbu	a5,69(a5) # 40001045 <_eusrstack+0x1fffe045>
     aaa:	000406b7          	lui	a3,0x40
     aae:	0207f793          	andi	a5,a5,32
     ab2:	e399                	bnez	a5,ab8 <FLASH_EEPROM_CMD+0x4e>
     ab4:	0003c6b7          	lui	a3,0x3c
     ab8:	57f9                	li	a5,-2
     aba:	04d57563          	bgeu	a0,a3,b04 <FLASH_EEPROM_CMD+0x9a>
     abe:	00c50833          	add	a6,a0,a2
     ac2:	0506e163          	bltu	a3,a6,b04 <FLASH_EEPROM_CMD+0x9a>
     ac6:	4789                	li	a5,2
     ac8:	04f71463          	bne	a4,a5,b10 <FLASH_EEPROM_CMD+0xa6>
     acc:	8209                	srli	a2,a2,0x2
     ace:	20000097          	auipc	ra,0x20000
     ad2:	a40080e7          	jalr	-1472(ra) # 2000050e <FLASH_CMD_ROM_WRITE>
     ad6:	87aa                	mv	a5,a0
     ad8:	40001737          	lui	a4,0x40001
     adc:	05700693          	li	a3,87
     ae0:	04d70023          	sb	a3,64(a4) # 40001040 <_eusrstack+0x1fffe040>
     ae4:	fa800693          	li	a3,-88
     ae8:	04d70023          	sb	a3,64(a4)
     aec:	04474683          	lbu	a3,68(a4)
     af0:	8ac1                	andi	a3,a3,16
     af2:	04d70223          	sb	a3,68(a4)
     af6:	e000e737          	lui	a4,0xe000e
     afa:	11272023          	sw	s2,256(a4) # e000e100 <_eusrstack+0xc000b100>
     afe:	10972223          	sw	s1,260(a4)
     b02:	4432                	lw	s0,12(sp)
     b04:	40f2                	lw	ra,28(sp)
     b06:	44e2                	lw	s1,24(sp)
     b08:	4952                	lw	s2,20(sp)
     b0a:	853e                	mv	a0,a5
     b0c:	6105                	addi	sp,sp,32
     b0e:	8082                	ret
     b10:	4785                	li	a5,1
     b12:	00f71f63          	bne	a4,a5,b30 <FLASH_EEPROM_CMD+0xc6>
     b16:	6785                	lui	a5,0x1
     b18:	17fd                	addi	a5,a5,-1 # fff <_fflush_r+0x31>
     b1a:	963e                	add	a2,a2,a5
     b1c:	8fe9                	and	a5,a5,a0
     b1e:	963e                	add	a2,a2,a5
     b20:	77fd                	lui	a5,0xfffff
     b22:	8e7d                	and	a2,a2,a5
     b24:	8d7d                	and	a0,a0,a5
     b26:	20000097          	auipc	ra,0x20000
     b2a:	a48080e7          	jalr	-1464(ra) # 2000056e <FLASH_CMD_ROM_ERASE>
     b2e:	b765                	j	ad6 <FLASH_EEPROM_CMD+0x6c>
     b30:	20000097          	auipc	ra,0x20000
     b34:	ab0080e7          	jalr	-1360(ra) # 200005e0 <FLASH_CMD_ROM_VERIFY>
     b38:	00150793          	addi	a5,a0,1
     b3c:	bf71                	j	ad8 <FLASH_EEPROM_CMD+0x6e>
     b3e:	47b5                	li	a5,13
     b40:	00f71a63          	bne	a4,a5,b54 <FLASH_EEPROM_CMD+0xea>
     b44:	0b900513          	li	a0,185
     b48:	20000097          	auipc	ra,0x20000
     b4c:	ae8080e7          	jalr	-1304(ra) # 20000630 <FLASH_CMD_ROM_PWR>
     b50:	4781                	li	a5,0
     b52:	b759                	j	ad8 <FLASH_EEPROM_CMD+0x6e>
     b54:	47b1                	li	a5,12
     b56:	00f71563          	bne	a4,a5,b60 <FLASH_EEPROM_CMD+0xf6>
     b5a:	0ab00513          	li	a0,171
     b5e:	b7ed                	j	b48 <FLASH_EEPROM_CMD+0xde>
     b60:	4799                	li	a5,6
     b62:	00f71763          	bne	a4,a5,b70 <FLASH_EEPROM_CMD+0x106>
     b66:	20000097          	auipc	ra,0x20000
     b6a:	adc080e7          	jalr	-1316(ra) # 20000642 <FLASH_CMD_GET_ROM_INFO>
     b6e:	b7cd                	j	b50 <FLASH_EEPROM_CMD+0xe6>
     b70:	479d                	li	a5,7
     b72:	00f71b63          	bne	a4,a5,b88 <FLASH_EEPROM_CMD+0x11e>
     b76:	0005a023          	sw	zero,0(a1)
     b7a:	0005a223          	sw	zero,4(a1)
     b7e:	20000097          	auipc	ra,0x20000
     b82:	b24080e7          	jalr	-1244(ra) # 200006a2 <FLASH_CMD_GET_UNIQUE_ID>
     b86:	b7e9                	j	b50 <FLASH_EEPROM_CMD+0xe6>
     b88:	4791                	li	a5,4
     b8a:	00f71763          	bne	a4,a5,b98 <FLASH_EEPROM_CMD+0x12e>
     b8e:	20000097          	auipc	ra,0x20000
     b92:	b52080e7          	jalr	-1198(ra) # 200006e0 <FLASH_CMD_ROM_SW_RESET>
     b96:	bf6d                	j	b50 <FLASH_EEPROM_CMD+0xe6>
     b98:	4781                	li	a5,0
     b9a:	df1d                	beqz	a4,ad8 <FLASH_EEPROM_CMD+0x6e>
     b9c:	57f1                	li	a5,-4
     b9e:	bf2d                	j	ad8 <FLASH_EEPROM_CMD+0x6e>

00000ba0 <iprintf>:
printf():
     ba0:	715d                	addi	sp,sp,-80
     ba2:	d422                	sw	s0,40(sp)
     ba4:	d606                	sw	ra,44(sp)
     ba6:	842a                	mv	s0,a0
     ba8:	da2e                	sw	a1,52(sp)
     baa:	dc32                	sw	a2,56(sp)
     bac:	de36                	sw	a3,60(sp)
     bae:	c0ba                	sw	a4,64(sp)
     bb0:	c2be                	sw	a5,68(sp)
     bb2:	c4c2                	sw	a6,72(sp)
     bb4:	c6c6                	sw	a7,76(sp)
     bb6:	20000517          	auipc	a0,0x20000
     bba:	bae52503          	lw	a0,-1106(a0) # 20000764 <_impure_ptr>
     bbe:	c511                	beqz	a0,bca <iprintf+0x2a>
     bc0:	4d1c                	lw	a5,24(a0)
     bc2:	e781                	bnez	a5,bca <iprintf+0x2a>
     bc4:	c62a                	sw	a0,12(sp)
     bc6:	2bb1                	jal	1122 <__sinit>
     bc8:	4532                	lw	a0,12(sp)
     bca:	450c                	lw	a1,8(a0)
     bcc:	1854                	addi	a3,sp,52
     bce:	8622                	mv	a2,s0
     bd0:	ce36                	sw	a3,28(sp)
     bd2:	213000ef          	jal	ra,15e4 <_vfiprintf_r>
     bd6:	50b2                	lw	ra,44(sp)
     bd8:	5422                	lw	s0,40(sp)
     bda:	6161                	addi	sp,sp,80
     bdc:	8082                	ret

00000bde <_puts_r>:
_puts_r():
     bde:	1101                	addi	sp,sp,-32
     be0:	ca26                	sw	s1,20(sp)
     be2:	ce06                	sw	ra,28(sp)
     be4:	cc22                	sw	s0,24(sp)
     be6:	c84a                	sw	s2,16(sp)
     be8:	c64e                	sw	s3,12(sp)
     bea:	c452                	sw	s4,8(sp)
     bec:	84aa                	mv	s1,a0
     bee:	e119                	bnez	a0,bf4 <_puts_r+0x16>
     bf0:	451c                	lw	a5,8(a0)
     bf2:	9002                	ebreak
     bf4:	4d1c                	lw	a5,24(a0)
     bf6:	892e                	mv	s2,a1
     bf8:	e3ad                	bnez	a5,c5a <_puts_r+0x7c>
     bfa:	2325                	jal	1122 <__sinit>
     bfc:	4c9c                	lw	a5,24(s1)
     bfe:	4480                	lw	s0,8(s1)
     c00:	cfb9                	beqz	a5,c5e <_puts_r+0x80>
     c02:	00001797          	auipc	a5,0x1
     c06:	2c678793          	addi	a5,a5,710 # 1ec8 <__sf_fake_stdin>
     c0a:	04f41d63          	bne	s0,a5,c64 <_puts_r+0x86>
     c0e:	40c0                	lw	s0,4(s1)
     c10:	507c                	lw	a5,100(s0)
     c12:	8b85                	andi	a5,a5,1
     c14:	e799                	bnez	a5,c22 <_puts_r+0x44>
     c16:	245e                	lhu	a5,12(s0)
     c18:	2007f793          	andi	a5,a5,512
     c1c:	e399                	bnez	a5,c22 <_puts_r+0x44>
     c1e:	4c28                	lw	a0,88(s0)
     c20:	2dad                	jal	129a <__retarget_lock_acquire_recursive>
     c22:	245e                	lhu	a5,12(s0)
     c24:	8ba1                	andi	a5,a5,8
     c26:	c399                	beqz	a5,c2c <_puts_r+0x4e>
     c28:	481c                	lw	a5,16(s0)
     c2a:	e3d5                	bnez	a5,cce <_puts_r+0xf0>
     c2c:	85a2                	mv	a1,s0
     c2e:	8526                	mv	a0,s1
     c30:	2aad                	jal	daa <__swsetup_r>
     c32:	cd51                	beqz	a0,cce <_puts_r+0xf0>
     c34:	54fd                	li	s1,-1
     c36:	507c                	lw	a5,100(s0)
     c38:	8b85                	andi	a5,a5,1
     c3a:	e799                	bnez	a5,c48 <_puts_r+0x6a>
     c3c:	245e                	lhu	a5,12(s0)
     c3e:	2007f793          	andi	a5,a5,512
     c42:	e399                	bnez	a5,c48 <_puts_r+0x6a>
     c44:	4c28                	lw	a0,88(s0)
     c46:	2d99                	jal	129c <__retarget_lock_release_recursive>
     c48:	40f2                	lw	ra,28(sp)
     c4a:	4462                	lw	s0,24(sp)
     c4c:	4942                	lw	s2,16(sp)
     c4e:	49b2                	lw	s3,12(sp)
     c50:	4a22                	lw	s4,8(sp)
     c52:	8526                	mv	a0,s1
     c54:	44d2                	lw	s1,20(sp)
     c56:	6105                	addi	sp,sp,32
     c58:	8082                	ret
     c5a:	4500                	lw	s0,8(a0)
     c5c:	b75d                	j	c02 <_puts_r+0x24>
     c5e:	8526                	mv	a0,s1
     c60:	21c9                	jal	1122 <__sinit>
     c62:	b745                	j	c02 <_puts_r+0x24>
     c64:	00001797          	auipc	a5,0x1
     c68:	24478793          	addi	a5,a5,580 # 1ea8 <__sf_fake_stdout>
     c6c:	00f41463          	bne	s0,a5,c74 <_puts_r+0x96>
     c70:	4480                	lw	s0,8(s1)
     c72:	bf79                	j	c10 <_puts_r+0x32>
     c74:	00001797          	auipc	a5,0x1
     c78:	21478793          	addi	a5,a5,532 # 1e88 <__sf_fake_stderr>
     c7c:	f8f41ae3          	bne	s0,a5,c10 <_puts_r+0x32>
     c80:	44c0                	lw	s0,12(s1)
     c82:	b779                	j	c10 <_puts_r+0x32>
     c84:	c41c                	sw	a5,8(s0)
     c86:	0905                	addi	s2,s2,1
     c88:	0207c863          	bltz	a5,cb8 <_puts_r+0xda>
     c8c:	401c                	lw	a5,0(s0)
     c8e:	00178713          	addi	a4,a5,1
     c92:	c018                	sw	a4,0(s0)
     c94:	a38c                	sb	a1,0(a5)
     c96:	441c                	lw	a5,8(s0)
     c98:	00094583          	lbu	a1,0(s2)
     c9c:	17fd                	addi	a5,a5,-1
     c9e:	f1fd                	bnez	a1,c84 <_puts_r+0xa6>
     ca0:	c41c                	sw	a5,8(s0)
     ca2:	0207d963          	bgez	a5,cd4 <_puts_r+0xf6>
     ca6:	8622                	mv	a2,s0
     ca8:	45a9                	li	a1,10
     caa:	8526                	mv	a0,s1
     cac:	2089                	jal	cee <__swbuf_r>
     cae:	57fd                	li	a5,-1
     cb0:	f8f502e3          	beq	a0,a5,c34 <_puts_r+0x56>
     cb4:	44a9                	li	s1,10
     cb6:	b741                	j	c36 <_puts_r+0x58>
     cb8:	4c18                	lw	a4,24(s0)
     cba:	00e7c463          	blt	a5,a4,cc2 <_puts_r+0xe4>
     cbe:	fd4597e3          	bne	a1,s4,c8c <_puts_r+0xae>
     cc2:	8622                	mv	a2,s0
     cc4:	8526                	mv	a0,s1
     cc6:	2025                	jal	cee <__swbuf_r>
     cc8:	fd3517e3          	bne	a0,s3,c96 <_puts_r+0xb8>
     ccc:	b7a5                	j	c34 <_puts_r+0x56>
     cce:	59fd                	li	s3,-1
     cd0:	4a29                	li	s4,10
     cd2:	b7d1                	j	c96 <_puts_r+0xb8>
     cd4:	401c                	lw	a5,0(s0)
     cd6:	00178713          	addi	a4,a5,1
     cda:	c018                	sw	a4,0(s0)
     cdc:	4729                	li	a4,10
     cde:	a398                	sb	a4,0(a5)
     ce0:	bfd1                	j	cb4 <_puts_r+0xd6>

00000ce2 <puts>:
puts():
     ce2:	85aa                	mv	a1,a0
     ce4:	20000517          	auipc	a0,0x20000
     ce8:	a8052503          	lw	a0,-1408(a0) # 20000764 <_impure_ptr>
     cec:	bdcd                	j	bde <_puts_r>

00000cee <__swbuf_r>:
__swbuf_r():
     cee:	1101                	addi	sp,sp,-32
     cf0:	cc22                	sw	s0,24(sp)
     cf2:	ca26                	sw	s1,20(sp)
     cf4:	c84a                	sw	s2,16(sp)
     cf6:	ce06                	sw	ra,28(sp)
     cf8:	c64e                	sw	s3,12(sp)
     cfa:	84aa                	mv	s1,a0
     cfc:	892e                	mv	s2,a1
     cfe:	8432                	mv	s0,a2
     d00:	c501                	beqz	a0,d08 <__swbuf_r+0x1a>
     d02:	4d1c                	lw	a5,24(a0)
     d04:	e391                	bnez	a5,d08 <__swbuf_r+0x1a>
     d06:	2931                	jal	1122 <__sinit>
     d08:	00001797          	auipc	a5,0x1
     d0c:	1c078793          	addi	a5,a5,448 # 1ec8 <__sf_fake_stdin>
     d10:	02f41763          	bne	s0,a5,d3e <__swbuf_r+0x50>
     d14:	40c0                	lw	s0,4(s1)
     d16:	4c1c                	lw	a5,24(s0)
     d18:	c41c                	sw	a5,8(s0)
     d1a:	245e                	lhu	a5,12(s0)
     d1c:	8ba1                	andi	a5,a5,8
     d1e:	c399                	beqz	a5,d24 <__swbuf_r+0x36>
     d20:	481c                	lw	a5,16(s0)
     d22:	ef95                	bnez	a5,d5e <__swbuf_r+0x70>
     d24:	85a2                	mv	a1,s0
     d26:	8526                	mv	a0,s1
     d28:	2049                	jal	daa <__swsetup_r>
     d2a:	c915                	beqz	a0,d5e <__swbuf_r+0x70>
     d2c:	597d                	li	s2,-1
     d2e:	40f2                	lw	ra,28(sp)
     d30:	4462                	lw	s0,24(sp)
     d32:	44d2                	lw	s1,20(sp)
     d34:	49b2                	lw	s3,12(sp)
     d36:	854a                	mv	a0,s2
     d38:	4942                	lw	s2,16(sp)
     d3a:	6105                	addi	sp,sp,32
     d3c:	8082                	ret
     d3e:	00001797          	auipc	a5,0x1
     d42:	16a78793          	addi	a5,a5,362 # 1ea8 <__sf_fake_stdout>
     d46:	00f41463          	bne	s0,a5,d4e <__swbuf_r+0x60>
     d4a:	4480                	lw	s0,8(s1)
     d4c:	b7e9                	j	d16 <__swbuf_r+0x28>
     d4e:	00001797          	auipc	a5,0x1
     d52:	13a78793          	addi	a5,a5,314 # 1e88 <__sf_fake_stderr>
     d56:	fcf410e3          	bne	s0,a5,d16 <__swbuf_r+0x28>
     d5a:	44c0                	lw	s0,12(s1)
     d5c:	bf6d                	j	d16 <__swbuf_r+0x28>
     d5e:	481c                	lw	a5,16(s0)
     d60:	4008                	lw	a0,0(s0)
     d62:	0ff97993          	zext.b	s3,s2
     d66:	0ff97913          	zext.b	s2,s2
     d6a:	8d1d                	sub	a0,a0,a5
     d6c:	485c                	lw	a5,20(s0)
     d6e:	00f54663          	blt	a0,a5,d7a <__swbuf_r+0x8c>
     d72:	85a2                	mv	a1,s0
     d74:	8526                	mv	a0,s1
     d76:	2ca1                	jal	fce <_fflush_r>
     d78:	f955                	bnez	a0,d2c <__swbuf_r+0x3e>
     d7a:	441c                	lw	a5,8(s0)
     d7c:	0505                	addi	a0,a0,1
     d7e:	17fd                	addi	a5,a5,-1
     d80:	c41c                	sw	a5,8(s0)
     d82:	401c                	lw	a5,0(s0)
     d84:	00178713          	addi	a4,a5,1
     d88:	c018                	sw	a4,0(s0)
     d8a:	01378023          	sb	s3,0(a5)
     d8e:	485c                	lw	a5,20(s0)
     d90:	00a78863          	beq	a5,a0,da0 <__swbuf_r+0xb2>
     d94:	245e                	lhu	a5,12(s0)
     d96:	8b85                	andi	a5,a5,1
     d98:	dbd9                	beqz	a5,d2e <__swbuf_r+0x40>
     d9a:	47a9                	li	a5,10
     d9c:	f8f919e3          	bne	s2,a5,d2e <__swbuf_r+0x40>
     da0:	85a2                	mv	a1,s0
     da2:	8526                	mv	a0,s1
     da4:	242d                	jal	fce <_fflush_r>
     da6:	d541                	beqz	a0,d2e <__swbuf_r+0x40>
     da8:	b751                	j	d2c <__swbuf_r+0x3e>

00000daa <__swsetup_r>:
__swsetup_r():
     daa:	1141                	addi	sp,sp,-16
     dac:	c422                	sw	s0,8(sp)
     dae:	c226                	sw	s1,4(sp)
     db0:	c04a                	sw	s2,0(sp)
     db2:	c606                	sw	ra,12(sp)
     db4:	20000497          	auipc	s1,0x20000
     db8:	9b04a483          	lw	s1,-1616(s1) # 20000764 <_impure_ptr>
     dbc:	892a                	mv	s2,a0
     dbe:	842e                	mv	s0,a1
     dc0:	c489                	beqz	s1,dca <__swsetup_r+0x20>
     dc2:	4c9c                	lw	a5,24(s1)
     dc4:	e399                	bnez	a5,dca <__swsetup_r+0x20>
     dc6:	8526                	mv	a0,s1
     dc8:	2ea9                	jal	1122 <__sinit>
     dca:	00001797          	auipc	a5,0x1
     dce:	0fe78793          	addi	a5,a5,254 # 1ec8 <__sf_fake_stdin>
     dd2:	02f41363          	bne	s0,a5,df8 <__swsetup_r+0x4e>
     dd6:	40c0                	lw	s0,4(s1)
     dd8:	00c41783          	lh	a5,12(s0) # 4000200c <_eusrstack+0x1ffff00c>
     ddc:	0087f713          	andi	a4,a5,8
     de0:	e725                	bnez	a4,e48 <__swsetup_r+0x9e>
     de2:	0107f713          	andi	a4,a5,16
     de6:	eb0d                	bnez	a4,e18 <__swsetup_r+0x6e>
     de8:	4725                	li	a4,9
     dea:	00e92023          	sw	a4,0(s2)
     dee:	0407e793          	ori	a5,a5,64
     df2:	a45e                	sh	a5,12(s0)
     df4:	557d                	li	a0,-1
     df6:	a071                	j	e82 <__swsetup_r+0xd8>
     df8:	00001797          	auipc	a5,0x1
     dfc:	0b078793          	addi	a5,a5,176 # 1ea8 <__sf_fake_stdout>
     e00:	00f41463          	bne	s0,a5,e08 <__swsetup_r+0x5e>
     e04:	4480                	lw	s0,8(s1)
     e06:	bfc9                	j	dd8 <__swsetup_r+0x2e>
     e08:	00001797          	auipc	a5,0x1
     e0c:	08078793          	addi	a5,a5,128 # 1e88 <__sf_fake_stderr>
     e10:	fcf414e3          	bne	s0,a5,dd8 <__swsetup_r+0x2e>
     e14:	44c0                	lw	s0,12(s1)
     e16:	b7c9                	j	dd8 <__swsetup_r+0x2e>
     e18:	8b91                	andi	a5,a5,4
     e1a:	c39d                	beqz	a5,e40 <__swsetup_r+0x96>
     e1c:	584c                	lw	a1,52(s0)
     e1e:	c989                	beqz	a1,e30 <__swsetup_r+0x86>
     e20:	04440793          	addi	a5,s0,68
     e24:	00f58463          	beq	a1,a5,e2c <__swsetup_r+0x82>
     e28:	854a                	mv	a0,s2
     e2a:	2bb9                	jal	1388 <_free_r>
     e2c:	02042a23          	sw	zero,52(s0)
     e30:	245e                	lhu	a5,12(s0)
     e32:	00042223          	sw	zero,4(s0)
     e36:	fdb7f793          	andi	a5,a5,-37
     e3a:	a45e                	sh	a5,12(s0)
     e3c:	481c                	lw	a5,16(s0)
     e3e:	c01c                	sw	a5,0(s0)
     e40:	245e                	lhu	a5,12(s0)
     e42:	0087e793          	ori	a5,a5,8
     e46:	a45e                	sh	a5,12(s0)
     e48:	481c                	lw	a5,16(s0)
     e4a:	eb99                	bnez	a5,e60 <__swsetup_r+0xb6>
     e4c:	245e                	lhu	a5,12(s0)
     e4e:	20000713          	li	a4,512
     e52:	2807f793          	andi	a5,a5,640
     e56:	00e78563          	beq	a5,a4,e60 <__swsetup_r+0xb6>
     e5a:	85a2                	mv	a1,s0
     e5c:	854a                	mv	a0,s2
     e5e:	2961                	jal	12f6 <__smakebuf_r>
     e60:	00c41783          	lh	a5,12(s0)
     e64:	0017f713          	andi	a4,a5,1
     e68:	c31d                	beqz	a4,e8e <__swsetup_r+0xe4>
     e6a:	4858                	lw	a4,20(s0)
     e6c:	00042423          	sw	zero,8(s0)
     e70:	40e00733          	neg	a4,a4
     e74:	cc18                	sw	a4,24(s0)
     e76:	4818                	lw	a4,16(s0)
     e78:	4501                	li	a0,0
     e7a:	e701                	bnez	a4,e82 <__swsetup_r+0xd8>
     e7c:	0807f713          	andi	a4,a5,128
     e80:	f73d                	bnez	a4,dee <__swsetup_r+0x44>
     e82:	40b2                	lw	ra,12(sp)
     e84:	4422                	lw	s0,8(sp)
     e86:	4492                	lw	s1,4(sp)
     e88:	4902                	lw	s2,0(sp)
     e8a:	0141                	addi	sp,sp,16
     e8c:	8082                	ret
     e8e:	0027f713          	andi	a4,a5,2
     e92:	4681                	li	a3,0
     e94:	e311                	bnez	a4,e98 <__swsetup_r+0xee>
     e96:	4854                	lw	a3,20(s0)
     e98:	c414                	sw	a3,8(s0)
     e9a:	bff1                	j	e76 <__swsetup_r+0xcc>

00000e9c <__sflush_r>:
__sflush_r():
     e9c:	00c59783          	lh	a5,12(a1)
     ea0:	1101                	addi	sp,sp,-32
     ea2:	cc22                	sw	s0,24(sp)
     ea4:	ca26                	sw	s1,20(sp)
     ea6:	ce06                	sw	ra,28(sp)
     ea8:	c84a                	sw	s2,16(sp)
     eaa:	c64e                	sw	s3,12(sp)
     eac:	0087f713          	andi	a4,a5,8
     eb0:	84aa                	mv	s1,a0
     eb2:	842e                	mv	s0,a1
     eb4:	e379                	bnez	a4,f7a <__sflush_r+0xde>
     eb6:	41d8                	lw	a4,4(a1)
     eb8:	00e04563          	bgtz	a4,ec2 <__sflush_r+0x26>
     ebc:	41b8                	lw	a4,64(a1)
     ebe:	08e05663          	blez	a4,f4a <__sflush_r+0xae>
     ec2:	5458                	lw	a4,44(s0)
     ec4:	c359                	beqz	a4,f4a <__sflush_r+0xae>
     ec6:	0004a903          	lw	s2,0(s1)
     eca:	0004a023          	sw	zero,0(s1)
     ece:	500c                	lw	a1,32(s0)
     ed0:	48c7d793          	bexti	a5,a5,0xc
     ed4:	cba9                	beqz	a5,f26 <__sflush_r+0x8a>
     ed6:	4870                	lw	a2,84(s0)
     ed8:	245e                	lhu	a5,12(s0)
     eda:	8b91                	andi	a5,a5,4
     edc:	c799                	beqz	a5,eea <__sflush_r+0x4e>
     ede:	405c                	lw	a5,4(s0)
     ee0:	8e1d                	sub	a2,a2,a5
     ee2:	585c                	lw	a5,52(s0)
     ee4:	c399                	beqz	a5,eea <__sflush_r+0x4e>
     ee6:	403c                	lw	a5,64(s0)
     ee8:	8e1d                	sub	a2,a2,a5
     eea:	545c                	lw	a5,44(s0)
     eec:	500c                	lw	a1,32(s0)
     eee:	4681                	li	a3,0
     ef0:	8526                	mv	a0,s1
     ef2:	9782                	jalr	a5
     ef4:	57fd                	li	a5,-1
     ef6:	04f50c63          	beq	a0,a5,f4e <__sflush_r+0xb2>
     efa:	481c                	lw	a5,16(s0)
     efc:	6705                	lui	a4,0x1
     efe:	00042223          	sw	zero,4(s0)
     f02:	c01c                	sw	a5,0(s0)
     f04:	245e                	lhu	a5,12(s0)
     f06:	8ff9                	and	a5,a5,a4
     f08:	c391                	beqz	a5,f0c <__sflush_r+0x70>
     f0a:	c868                	sw	a0,84(s0)
     f0c:	584c                	lw	a1,52(s0)
     f0e:	0124a023          	sw	s2,0(s1)
     f12:	cd85                	beqz	a1,f4a <__sflush_r+0xae>
     f14:	04440793          	addi	a5,s0,68
     f18:	00f58463          	beq	a1,a5,f20 <__sflush_r+0x84>
     f1c:	8526                	mv	a0,s1
     f1e:	21ad                	jal	1388 <_free_r>
     f20:	02042a23          	sw	zero,52(s0)
     f24:	a01d                	j	f4a <__sflush_r+0xae>
     f26:	4601                	li	a2,0
     f28:	4685                	li	a3,1
     f2a:	8526                	mv	a0,s1
     f2c:	9702                	jalr	a4
     f2e:	57fd                	li	a5,-1
     f30:	862a                	mv	a2,a0
     f32:	faf513e3          	bne	a0,a5,ed8 <__sflush_r+0x3c>
     f36:	409c                	lw	a5,0(s1)
     f38:	d3c5                	beqz	a5,ed8 <__sflush_r+0x3c>
     f3a:	4775                	li	a4,29
     f3c:	00e78563          	beq	a5,a4,f46 <__sflush_r+0xaa>
     f40:	4759                	li	a4,22
     f42:	06e79563          	bne	a5,a4,fac <__sflush_r+0x110>
     f46:	0124a023          	sw	s2,0(s1)
     f4a:	4501                	li	a0,0
     f4c:	a0b5                	j	fb8 <__sflush_r+0x11c>
     f4e:	4098                	lw	a4,0(s1)
     f50:	00c41783          	lh	a5,12(s0)
     f54:	cf01                	beqz	a4,f6c <__sflush_r+0xd0>
     f56:	46f5                	li	a3,29
     f58:	00d70563          	beq	a4,a3,f62 <__sflush_r+0xc6>
     f5c:	46d9                	li	a3,22
     f5e:	04d71963          	bne	a4,a3,fb0 <__sflush_r+0x114>
     f62:	481c                	lw	a5,16(s0)
     f64:	00042223          	sw	zero,4(s0)
     f68:	c01c                	sw	a5,0(s0)
     f6a:	b74d                	j	f0c <__sflush_r+0x70>
     f6c:	4818                	lw	a4,16(s0)
     f6e:	00042223          	sw	zero,4(s0)
     f72:	48c7d793          	bexti	a5,a5,0xc
     f76:	c018                	sw	a4,0(s0)
     f78:	bf41                	j	f08 <__sflush_r+0x6c>
     f7a:	0105a983          	lw	s3,16(a1)
     f7e:	fc0986e3          	beqz	s3,f4a <__sflush_r+0xae>
     f82:	0005a903          	lw	s2,0(a1)
     f86:	8b8d                	andi	a5,a5,3
     f88:	0135a023          	sw	s3,0(a1)
     f8c:	41390933          	sub	s2,s2,s3
     f90:	4701                	li	a4,0
     f92:	e391                	bnez	a5,f96 <__sflush_r+0xfa>
     f94:	49d8                	lw	a4,20(a1)
     f96:	c418                	sw	a4,8(s0)
     f98:	fb2059e3          	blez	s2,f4a <__sflush_r+0xae>
     f9c:	541c                	lw	a5,40(s0)
     f9e:	500c                	lw	a1,32(s0)
     fa0:	86ca                	mv	a3,s2
     fa2:	864e                	mv	a2,s3
     fa4:	8526                	mv	a0,s1
     fa6:	9782                	jalr	a5
     fa8:	00a04f63          	bgtz	a0,fc6 <__sflush_r+0x12a>
     fac:	00c41783          	lh	a5,12(s0)
     fb0:	0407e793          	ori	a5,a5,64
     fb4:	a45e                	sh	a5,12(s0)
     fb6:	557d                	li	a0,-1
     fb8:	40f2                	lw	ra,28(sp)
     fba:	4462                	lw	s0,24(sp)
     fbc:	44d2                	lw	s1,20(sp)
     fbe:	4942                	lw	s2,16(sp)
     fc0:	49b2                	lw	s3,12(sp)
     fc2:	6105                	addi	sp,sp,32
     fc4:	8082                	ret
     fc6:	99aa                	add	s3,s3,a0
     fc8:	40a90933          	sub	s2,s2,a0
     fcc:	b7f1                	j	f98 <__sflush_r+0xfc>

00000fce <_fflush_r>:
_fflush_r():
     fce:	499c                	lw	a5,16(a1)
     fd0:	1141                	addi	sp,sp,-16
     fd2:	c606                	sw	ra,12(sp)
     fd4:	c422                	sw	s0,8(sp)
     fd6:	c226                	sw	s1,4(sp)
     fd8:	eb81                	bnez	a5,fe8 <_fflush_r+0x1a>
     fda:	4481                	li	s1,0
     fdc:	40b2                	lw	ra,12(sp)
     fde:	4422                	lw	s0,8(sp)
     fe0:	8526                	mv	a0,s1
     fe2:	4492                	lw	s1,4(sp)
     fe4:	0141                	addi	sp,sp,16
     fe6:	8082                	ret
     fe8:	84aa                	mv	s1,a0
     fea:	842e                	mv	s0,a1
     fec:	c501                	beqz	a0,ff4 <_fflush_r+0x26>
     fee:	4d1c                	lw	a5,24(a0)
     ff0:	e391                	bnez	a5,ff4 <_fflush_r+0x26>
     ff2:	2a05                	jal	1122 <__sinit>
     ff4:	00001797          	auipc	a5,0x1
     ff8:	ed478793          	addi	a5,a5,-300 # 1ec8 <__sf_fake_stdin>
     ffc:	02f41c63          	bne	s0,a5,1034 <_fflush_r+0x66>
    1000:	40c0                	lw	s0,4(s1)
    1002:	00c41783          	lh	a5,12(s0)
    1006:	dbf1                	beqz	a5,fda <_fflush_r+0xc>
    1008:	5078                	lw	a4,100(s0)
    100a:	8b05                	andi	a4,a4,1
    100c:	e711                	bnez	a4,1018 <_fflush_r+0x4a>
    100e:	2007f793          	andi	a5,a5,512
    1012:	e399                	bnez	a5,1018 <_fflush_r+0x4a>
    1014:	4c28                	lw	a0,88(s0)
    1016:	2451                	jal	129a <__retarget_lock_acquire_recursive>
    1018:	8526                	mv	a0,s1
    101a:	85a2                	mv	a1,s0
    101c:	3541                	jal	e9c <__sflush_r>
    101e:	507c                	lw	a5,100(s0)
    1020:	84aa                	mv	s1,a0
    1022:	8b85                	andi	a5,a5,1
    1024:	ffc5                	bnez	a5,fdc <_fflush_r+0xe>
    1026:	245e                	lhu	a5,12(s0)
    1028:	2007f793          	andi	a5,a5,512
    102c:	fbc5                	bnez	a5,fdc <_fflush_r+0xe>
    102e:	4c28                	lw	a0,88(s0)
    1030:	24b5                	jal	129c <__retarget_lock_release_recursive>
    1032:	b76d                	j	fdc <_fflush_r+0xe>
    1034:	00001797          	auipc	a5,0x1
    1038:	e7478793          	addi	a5,a5,-396 # 1ea8 <__sf_fake_stdout>
    103c:	00f41463          	bne	s0,a5,1044 <_fflush_r+0x76>
    1040:	4480                	lw	s0,8(s1)
    1042:	b7c1                	j	1002 <_fflush_r+0x34>
    1044:	00001797          	auipc	a5,0x1
    1048:	e4478793          	addi	a5,a5,-444 # 1e88 <__sf_fake_stderr>
    104c:	faf41be3          	bne	s0,a5,1002 <_fflush_r+0x34>
    1050:	44c0                	lw	s0,12(s1)
    1052:	bf45                	j	1002 <_fflush_r+0x34>

00001054 <std>:
std():
    1054:	1141                	addi	sp,sp,-16
    1056:	c422                	sw	s0,8(sp)
    1058:	c606                	sw	ra,12(sp)
    105a:	842a                	mv	s0,a0
    105c:	a54e                	sh	a1,12(a0)
    105e:	a572                	sh	a2,14(a0)
    1060:	00052023          	sw	zero,0(a0)
    1064:	00052223          	sw	zero,4(a0)
    1068:	00052423          	sw	zero,8(a0)
    106c:	06052223          	sw	zero,100(a0)
    1070:	00052823          	sw	zero,16(a0)
    1074:	00052a23          	sw	zero,20(a0)
    1078:	00052c23          	sw	zero,24(a0)
    107c:	4621                	li	a2,8
    107e:	4581                	li	a1,0
    1080:	05c50513          	addi	a0,a0,92
    1084:	f2eff0ef          	jal	ra,7b2 <memset>
    1088:	00001797          	auipc	a5,0x1
    108c:	83278793          	addi	a5,a5,-1998 # 18ba <__sread>
    1090:	d05c                	sw	a5,36(s0)
    1092:	00001797          	auipc	a5,0x1
    1096:	85278793          	addi	a5,a5,-1966 # 18e4 <__swrite>
    109a:	d41c                	sw	a5,40(s0)
    109c:	00001797          	auipc	a5,0x1
    10a0:	88e78793          	addi	a5,a5,-1906 # 192a <__sseek>
    10a4:	d45c                	sw	a5,44(s0)
    10a6:	00001797          	auipc	a5,0x1
    10aa:	8b278793          	addi	a5,a5,-1870 # 1958 <__sclose>
    10ae:	40b2                	lw	ra,12(sp)
    10b0:	d000                	sw	s0,32(s0)
    10b2:	d81c                	sw	a5,48(s0)
    10b4:	4422                	lw	s0,8(sp)
    10b6:	0141                	addi	sp,sp,16
    10b8:	8082                	ret

000010ba <_cleanup_r>:
_cleanup_r():
    10ba:	00000597          	auipc	a1,0x0
    10be:	f1458593          	addi	a1,a1,-236 # fce <_fflush_r>
    10c2:	a2bd                	j	1230 <_fwalk_reent>

000010c4 <__sfmoreglue>:
__sfmoreglue():
    10c4:	1141                	addi	sp,sp,-16
    10c6:	c226                	sw	s1,4(sp)
    10c8:	06800793          	li	a5,104
    10cc:	fff58493          	addi	s1,a1,-1
    10d0:	02f484b3          	mul	s1,s1,a5
    10d4:	c04a                	sw	s2,0(sp)
    10d6:	892e                	mv	s2,a1
    10d8:	c422                	sw	s0,8(sp)
    10da:	c606                	sw	ra,12(sp)
    10dc:	07448593          	addi	a1,s1,116
    10e0:	2e69                	jal	147a <_malloc_r>
    10e2:	842a                	mv	s0,a0
    10e4:	cd01                	beqz	a0,10fc <__sfmoreglue+0x38>
    10e6:	00052023          	sw	zero,0(a0)
    10ea:	01252223          	sw	s2,4(a0)
    10ee:	0531                	addi	a0,a0,12
    10f0:	c408                	sw	a0,8(s0)
    10f2:	06848613          	addi	a2,s1,104
    10f6:	4581                	li	a1,0
    10f8:	ebaff0ef          	jal	ra,7b2 <memset>
    10fc:	40b2                	lw	ra,12(sp)
    10fe:	8522                	mv	a0,s0
    1100:	4422                	lw	s0,8(sp)
    1102:	4492                	lw	s1,4(sp)
    1104:	4902                	lw	s2,0(sp)
    1106:	0141                	addi	sp,sp,16
    1108:	8082                	ret

0000110a <__sfp_lock_acquire>:
__sfp_lock_acquire():
    110a:	81418513          	addi	a0,gp,-2028 # 20000774 <__lock___sfp_recursive_mutex>
    110e:	a271                	j	129a <__retarget_lock_acquire_recursive>

00001110 <__sfp_lock_release>:
__sfp_lock_release():
    1110:	81418513          	addi	a0,gp,-2028 # 20000774 <__lock___sfp_recursive_mutex>
    1114:	a261                	j	129c <__retarget_lock_release_recursive>

00001116 <__sinit_lock_acquire>:
__sinit_lock_acquire():
    1116:	81818513          	addi	a0,gp,-2024 # 20000778 <__lock___sinit_recursive_mutex>
    111a:	a241                	j	129a <__retarget_lock_acquire_recursive>

0000111c <__sinit_lock_release>:
__sinit_lock_release():
    111c:	81818513          	addi	a0,gp,-2024 # 20000778 <__lock___sinit_recursive_mutex>
    1120:	aab5                	j	129c <__retarget_lock_release_recursive>

00001122 <__sinit>:
__sinit():
    1122:	1141                	addi	sp,sp,-16
    1124:	c422                	sw	s0,8(sp)
    1126:	c606                	sw	ra,12(sp)
    1128:	842a                	mv	s0,a0
    112a:	37f5                	jal	1116 <__sinit_lock_acquire>
    112c:	4c1c                	lw	a5,24(s0)
    112e:	c789                	beqz	a5,1138 <__sinit+0x16>
    1130:	4422                	lw	s0,8(sp)
    1132:	40b2                	lw	ra,12(sp)
    1134:	0141                	addi	sp,sp,16
    1136:	b7dd                	j	111c <__sinit_lock_release>
    1138:	00000797          	auipc	a5,0x0
    113c:	f8278793          	addi	a5,a5,-126 # 10ba <_cleanup_r>
    1140:	d41c                	sw	a5,40(s0)
    1142:	04042423          	sw	zero,72(s0)
    1146:	04042623          	sw	zero,76(s0)
    114a:	04042823          	sw	zero,80(s0)
    114e:	8081a783          	lw	a5,-2040(gp) # 20000768 <_global_impure_ptr>
    1152:	00879463          	bne	a5,s0,115a <__sinit+0x38>
    1156:	4785                	li	a5,1
    1158:	cc1c                	sw	a5,24(s0)
    115a:	8522                	mv	a0,s0
    115c:	203d                	jal	118a <__sfp>
    115e:	c048                	sw	a0,4(s0)
    1160:	8522                	mv	a0,s0
    1162:	2025                	jal	118a <__sfp>
    1164:	c408                	sw	a0,8(s0)
    1166:	8522                	mv	a0,s0
    1168:	200d                	jal	118a <__sfp>
    116a:	c448                	sw	a0,12(s0)
    116c:	4048                	lw	a0,4(s0)
    116e:	4601                	li	a2,0
    1170:	4591                	li	a1,4
    1172:	35cd                	jal	1054 <std>
    1174:	4408                	lw	a0,8(s0)
    1176:	4605                	li	a2,1
    1178:	45a5                	li	a1,9
    117a:	3de9                	jal	1054 <std>
    117c:	4448                	lw	a0,12(s0)
    117e:	4609                	li	a2,2
    1180:	45c9                	li	a1,18
    1182:	3dc9                	jal	1054 <std>
    1184:	4785                	li	a5,1
    1186:	cc1c                	sw	a5,24(s0)
    1188:	b765                	j	1130 <__sinit+0xe>

0000118a <__sfp>:
__sfp():
    118a:	1141                	addi	sp,sp,-16
    118c:	c226                	sw	s1,4(sp)
    118e:	c04a                	sw	s2,0(sp)
    1190:	c606                	sw	ra,12(sp)
    1192:	c422                	sw	s0,8(sp)
    1194:	892a                	mv	s2,a0
    1196:	3f95                	jal	110a <__sfp_lock_acquire>
    1198:	8081a483          	lw	s1,-2040(gp) # 20000768 <_global_impure_ptr>
    119c:	4c9c                	lw	a5,24(s1)
    119e:	e399                	bnez	a5,11a4 <__sfp+0x1a>
    11a0:	8526                	mv	a0,s1
    11a2:	3741                	jal	1122 <__sinit>
    11a4:	04848493          	addi	s1,s1,72
    11a8:	4480                	lw	s0,8(s1)
    11aa:	40dc                	lw	a5,4(s1)
    11ac:	17fd                	addi	a5,a5,-1
    11ae:	0007d663          	bgez	a5,11ba <__sfp+0x30>
    11b2:	409c                	lw	a5,0(s1)
    11b4:	c3bd                	beqz	a5,121a <__sfp+0x90>
    11b6:	4084                	lw	s1,0(s1)
    11b8:	bfc5                	j	11a8 <__sfp+0x1e>
    11ba:	00c41703          	lh	a4,12(s0)
    11be:	eb39                	bnez	a4,1214 <__sfp+0x8a>
    11c0:	77c1                	lui	a5,0xffff0
    11c2:	0785                	addi	a5,a5,1 # ffff0001 <_eusrstack+0xdffed001>
    11c4:	c45c                	sw	a5,12(s0)
    11c6:	05840513          	addi	a0,s0,88
    11ca:	06042223          	sw	zero,100(s0)
    11ce:	20e9                	jal	1298 <__retarget_lock_init_recursive>
    11d0:	3781                	jal	1110 <__sfp_lock_release>
    11d2:	4621                	li	a2,8
    11d4:	00042023          	sw	zero,0(s0)
    11d8:	00042423          	sw	zero,8(s0)
    11dc:	00042223          	sw	zero,4(s0)
    11e0:	00042823          	sw	zero,16(s0)
    11e4:	00042a23          	sw	zero,20(s0)
    11e8:	00042c23          	sw	zero,24(s0)
    11ec:	4581                	li	a1,0
    11ee:	05c40513          	addi	a0,s0,92
    11f2:	dc0ff0ef          	jal	ra,7b2 <memset>
    11f6:	02042a23          	sw	zero,52(s0)
    11fa:	02042c23          	sw	zero,56(s0)
    11fe:	04042423          	sw	zero,72(s0)
    1202:	04042623          	sw	zero,76(s0)
    1206:	40b2                	lw	ra,12(sp)
    1208:	8522                	mv	a0,s0
    120a:	4422                	lw	s0,8(sp)
    120c:	4492                	lw	s1,4(sp)
    120e:	4902                	lw	s2,0(sp)
    1210:	0141                	addi	sp,sp,16
    1212:	8082                	ret
    1214:	06840413          	addi	s0,s0,104
    1218:	bf51                	j	11ac <__sfp+0x22>
    121a:	4591                	li	a1,4
    121c:	854a                	mv	a0,s2
    121e:	355d                	jal	10c4 <__sfmoreglue>
    1220:	c088                	sw	a0,0(s1)
    1222:	842a                	mv	s0,a0
    1224:	f949                	bnez	a0,11b6 <__sfp+0x2c>
    1226:	35ed                	jal	1110 <__sfp_lock_release>
    1228:	47b1                	li	a5,12
    122a:	00f92023          	sw	a5,0(s2)
    122e:	bfe1                	j	1206 <__sfp+0x7c>

00001230 <_fwalk_reent>:
_fwalk_reent():
    1230:	7179                	addi	sp,sp,-48
    1232:	d422                	sw	s0,40(sp)
    1234:	d04a                	sw	s2,32(sp)
    1236:	ce4e                	sw	s3,28(sp)
    1238:	cc52                	sw	s4,24(sp)
    123a:	c85a                	sw	s6,16(sp)
    123c:	c65e                	sw	s7,12(sp)
    123e:	d606                	sw	ra,44(sp)
    1240:	d226                	sw	s1,36(sp)
    1242:	ca56                	sw	s5,20(sp)
    1244:	892a                	mv	s2,a0
    1246:	8a2e                	mv	s4,a1
    1248:	04850413          	addi	s0,a0,72
    124c:	4981                	li	s3,0
    124e:	4b05                	li	s6,1
    1250:	5bfd                	li	s7,-1
    1252:	4404                	lw	s1,8(s0)
    1254:	00442a83          	lw	s5,4(s0)
    1258:	1afd                	addi	s5,s5,-1 # ffff <_data_lma+0xe07f>
    125a:	020ad063          	bgez	s5,127a <_fwalk_reent+0x4a>
    125e:	4000                	lw	s0,0(s0)
    1260:	f86d                	bnez	s0,1252 <_fwalk_reent+0x22>
    1262:	50b2                	lw	ra,44(sp)
    1264:	5422                	lw	s0,40(sp)
    1266:	5492                	lw	s1,36(sp)
    1268:	5902                	lw	s2,32(sp)
    126a:	4a62                	lw	s4,24(sp)
    126c:	4ad2                	lw	s5,20(sp)
    126e:	4b42                	lw	s6,16(sp)
    1270:	4bb2                	lw	s7,12(sp)
    1272:	854e                	mv	a0,s3
    1274:	49f2                	lw	s3,28(sp)
    1276:	6145                	addi	sp,sp,48
    1278:	8082                	ret
    127a:	24de                	lhu	a5,12(s1)
    127c:	00fb7b63          	bgeu	s6,a5,1292 <_fwalk_reent+0x62>
    1280:	00e49783          	lh	a5,14(s1)
    1284:	01778763          	beq	a5,s7,1292 <_fwalk_reent+0x62>
    1288:	85a6                	mv	a1,s1
    128a:	854a                	mv	a0,s2
    128c:	9a02                	jalr	s4
    128e:	00a9e9b3          	or	s3,s3,a0
    1292:	06848493          	addi	s1,s1,104
    1296:	b7c9                	j	1258 <_fwalk_reent+0x28>

00001298 <__retarget_lock_init_recursive>:
__retarget_lock_init_recursive():
    1298:	8082                	ret

0000129a <__retarget_lock_acquire_recursive>:
__retarget_lock_acquire_recursive():
    129a:	8082                	ret

0000129c <__retarget_lock_release_recursive>:
__retarget_lock_release_recursive():
    129c:	8082                	ret

0000129e <__swhatbuf_r>:
__swhatbuf_r():
    129e:	7159                	addi	sp,sp,-112
    12a0:	d4a2                	sw	s0,104(sp)
    12a2:	842e                	mv	s0,a1
    12a4:	00e59583          	lh	a1,14(a1)
    12a8:	d2a6                	sw	s1,100(sp)
    12aa:	d0ca                	sw	s2,96(sp)
    12ac:	d686                	sw	ra,108(sp)
    12ae:	84b2                	mv	s1,a2
    12b0:	8936                	mv	s2,a3
    12b2:	0205d263          	bgez	a1,12d6 <__swhatbuf_r+0x38>
    12b6:	245e                	lhu	a5,12(s0)
    12b8:	0807f793          	andi	a5,a5,128
    12bc:	eb8d                	bnez	a5,12ee <__swhatbuf_r+0x50>
    12be:	40000713          	li	a4,1024
    12c2:	50b6                	lw	ra,108(sp)
    12c4:	5426                	lw	s0,104(sp)
    12c6:	00f92023          	sw	a5,0(s2)
    12ca:	c098                	sw	a4,0(s1)
    12cc:	5906                	lw	s2,96(sp)
    12ce:	5496                	lw	s1,100(sp)
    12d0:	4501                	li	a0,0
    12d2:	6165                	addi	sp,sp,112
    12d4:	8082                	ret
    12d6:	0030                	addi	a2,sp,8
    12d8:	2de1                	jal	19b0 <_fstat_r>
    12da:	fc054ee3          	bltz	a0,12b6 <__swhatbuf_r+0x18>
    12de:	4732                	lw	a4,12(sp)
    12e0:	67bd                	lui	a5,0xf
    12e2:	8ff9                	and	a5,a5,a4
    12e4:	7779                	lui	a4,0xffffe
    12e6:	97ba                	add	a5,a5,a4
    12e8:	0017b793          	seqz	a5,a5
    12ec:	bfc9                	j	12be <__swhatbuf_r+0x20>
    12ee:	4781                	li	a5,0
    12f0:	04000713          	li	a4,64
    12f4:	b7f9                	j	12c2 <__swhatbuf_r+0x24>

000012f6 <__smakebuf_r>:
__smakebuf_r():
    12f6:	25de                	lhu	a5,12(a1)
    12f8:	7179                	addi	sp,sp,-48
    12fa:	d422                	sw	s0,40(sp)
    12fc:	d606                	sw	ra,44(sp)
    12fe:	d226                	sw	s1,36(sp)
    1300:	d04a                	sw	s2,32(sp)
    1302:	ce4e                	sw	s3,28(sp)
    1304:	8b89                	andi	a5,a5,2
    1306:	842e                	mv	s0,a1
    1308:	cf91                	beqz	a5,1324 <__smakebuf_r+0x2e>
    130a:	04740793          	addi	a5,s0,71
    130e:	c01c                	sw	a5,0(s0)
    1310:	c81c                	sw	a5,16(s0)
    1312:	4785                	li	a5,1
    1314:	c85c                	sw	a5,20(s0)
    1316:	50b2                	lw	ra,44(sp)
    1318:	5422                	lw	s0,40(sp)
    131a:	5492                	lw	s1,36(sp)
    131c:	5902                	lw	s2,32(sp)
    131e:	49f2                	lw	s3,28(sp)
    1320:	6145                	addi	sp,sp,48
    1322:	8082                	ret
    1324:	0074                	addi	a3,sp,12
    1326:	0030                	addi	a2,sp,8
    1328:	84aa                	mv	s1,a0
    132a:	3f95                	jal	129e <__swhatbuf_r>
    132c:	49a2                	lw	s3,8(sp)
    132e:	892a                	mv	s2,a0
    1330:	8526                	mv	a0,s1
    1332:	85ce                	mv	a1,s3
    1334:	2299                	jal	147a <_malloc_r>
    1336:	e919                	bnez	a0,134c <__smakebuf_r+0x56>
    1338:	00c41783          	lh	a5,12(s0)
    133c:	2007f713          	andi	a4,a5,512
    1340:	fb79                	bnez	a4,1316 <__smakebuf_r+0x20>
    1342:	9bf1                	andi	a5,a5,-4
    1344:	0027e793          	ori	a5,a5,2
    1348:	a45e                	sh	a5,12(s0)
    134a:	b7c1                	j	130a <__smakebuf_r+0x14>
    134c:	00000797          	auipc	a5,0x0
    1350:	d6e78793          	addi	a5,a5,-658 # 10ba <_cleanup_r>
    1354:	d49c                	sw	a5,40(s1)
    1356:	245e                	lhu	a5,12(s0)
    1358:	c008                	sw	a0,0(s0)
    135a:	c808                	sw	a0,16(s0)
    135c:	0807e793          	ori	a5,a5,128
    1360:	a45e                	sh	a5,12(s0)
    1362:	47b2                	lw	a5,12(sp)
    1364:	01342a23          	sw	s3,20(s0)
    1368:	cb99                	beqz	a5,137e <__smakebuf_r+0x88>
    136a:	00e41583          	lh	a1,14(s0)
    136e:	8526                	mv	a0,s1
    1370:	25a5                	jal	19d8 <_isatty_r>
    1372:	c511                	beqz	a0,137e <__smakebuf_r+0x88>
    1374:	245e                	lhu	a5,12(s0)
    1376:	9bf1                	andi	a5,a5,-4
    1378:	0017e793          	ori	a5,a5,1
    137c:	a45e                	sh	a5,12(s0)
    137e:	245e                	lhu	a5,12(s0)
    1380:	0127e533          	or	a0,a5,s2
    1384:	a44a                	sh	a0,12(s0)
    1386:	bf41                	j	1316 <__smakebuf_r+0x20>

00001388 <_free_r>:
_free_r():
    1388:	cdd1                	beqz	a1,1424 <_free_r+0x9c>
    138a:	ffc5a783          	lw	a5,-4(a1)
    138e:	1101                	addi	sp,sp,-32
    1390:	cc22                	sw	s0,24(sp)
    1392:	ce06                	sw	ra,28(sp)
    1394:	ffc58413          	addi	s0,a1,-4
    1398:	0007d363          	bgez	a5,139e <_free_r+0x16>
    139c:	943e                	add	s0,s0,a5
    139e:	c62a                	sw	a0,12(sp)
    13a0:	2545                	jal	1a40 <__malloc_lock>
    13a2:	82018713          	addi	a4,gp,-2016 # 20000780 <__malloc_free_list>
    13a6:	431c                	lw	a5,0(a4)
    13a8:	4532                	lw	a0,12(sp)
    13aa:	eb81                	bnez	a5,13ba <_free_r+0x32>
    13ac:	00042223          	sw	zero,4(s0)
    13b0:	c300                	sw	s0,0(a4)
    13b2:	4462                	lw	s0,24(sp)
    13b4:	40f2                	lw	ra,28(sp)
    13b6:	6105                	addi	sp,sp,32
    13b8:	ad41                	j	1a48 <__malloc_unlock>
    13ba:	00f47d63          	bgeu	s0,a5,13d4 <_free_r+0x4c>
    13be:	4010                	lw	a2,0(s0)
    13c0:	00c406b3          	add	a3,s0,a2
    13c4:	00d79663          	bne	a5,a3,13d0 <_free_r+0x48>
    13c8:	4394                	lw	a3,0(a5)
    13ca:	43dc                	lw	a5,4(a5)
    13cc:	96b2                	add	a3,a3,a2
    13ce:	c014                	sw	a3,0(s0)
    13d0:	c05c                	sw	a5,4(s0)
    13d2:	bff9                	j	13b0 <_free_r+0x28>
    13d4:	873e                	mv	a4,a5
    13d6:	43dc                	lw	a5,4(a5)
    13d8:	c399                	beqz	a5,13de <_free_r+0x56>
    13da:	fef47de3          	bgeu	s0,a5,13d4 <_free_r+0x4c>
    13de:	4314                	lw	a3,0(a4)
    13e0:	00d70633          	add	a2,a4,a3
    13e4:	00861f63          	bne	a2,s0,1402 <_free_r+0x7a>
    13e8:	4010                	lw	a2,0(s0)
    13ea:	96b2                	add	a3,a3,a2
    13ec:	c314                	sw	a3,0(a4)
    13ee:	00d70633          	add	a2,a4,a3
    13f2:	fcc790e3          	bne	a5,a2,13b2 <_free_r+0x2a>
    13f6:	4390                	lw	a2,0(a5)
    13f8:	43dc                	lw	a5,4(a5)
    13fa:	96b2                	add	a3,a3,a2
    13fc:	c314                	sw	a3,0(a4)
    13fe:	c35c                	sw	a5,4(a4)
    1400:	bf4d                	j	13b2 <_free_r+0x2a>
    1402:	00c47563          	bgeu	s0,a2,140c <_free_r+0x84>
    1406:	47b1                	li	a5,12
    1408:	c11c                	sw	a5,0(a0)
    140a:	b765                	j	13b2 <_free_r+0x2a>
    140c:	4010                	lw	a2,0(s0)
    140e:	00c406b3          	add	a3,s0,a2
    1412:	00d79663          	bne	a5,a3,141e <_free_r+0x96>
    1416:	4394                	lw	a3,0(a5)
    1418:	43dc                	lw	a5,4(a5)
    141a:	96b2                	add	a3,a3,a2
    141c:	c014                	sw	a3,0(s0)
    141e:	c05c                	sw	a5,4(s0)
    1420:	c340                	sw	s0,4(a4)
    1422:	bf41                	j	13b2 <_free_r+0x2a>
    1424:	8082                	ret

00001426 <sbrk_aligned>:
sbrk_aligned():
    1426:	1141                	addi	sp,sp,-16
    1428:	c04a                	sw	s2,0(sp)
    142a:	81c18913          	addi	s2,gp,-2020 # 2000077c <__malloc_sbrk_start>
    142e:	00092783          	lw	a5,0(s2)
    1432:	c422                	sw	s0,8(sp)
    1434:	c226                	sw	s1,4(sp)
    1436:	c606                	sw	ra,12(sp)
    1438:	84aa                	mv	s1,a0
    143a:	842e                	mv	s0,a1
    143c:	e789                	bnez	a5,1446 <sbrk_aligned+0x20>
    143e:	4581                	li	a1,0
    1440:	2989                	jal	1892 <_sbrk_r>
    1442:	00a92023          	sw	a0,0(s2)
    1446:	85a2                	mv	a1,s0
    1448:	8526                	mv	a0,s1
    144a:	21a1                	jal	1892 <_sbrk_r>
    144c:	597d                	li	s2,-1
    144e:	01251a63          	bne	a0,s2,1462 <sbrk_aligned+0x3c>
    1452:	547d                	li	s0,-1
    1454:	40b2                	lw	ra,12(sp)
    1456:	8522                	mv	a0,s0
    1458:	4422                	lw	s0,8(sp)
    145a:	4492                	lw	s1,4(sp)
    145c:	4902                	lw	s2,0(sp)
    145e:	0141                	addi	sp,sp,16
    1460:	8082                	ret
    1462:	00350413          	addi	s0,a0,3
    1466:	9871                	andi	s0,s0,-4
    1468:	fe8506e3          	beq	a0,s0,1454 <sbrk_aligned+0x2e>
    146c:	40a405b3          	sub	a1,s0,a0
    1470:	8526                	mv	a0,s1
    1472:	2105                	jal	1892 <_sbrk_r>
    1474:	ff2510e3          	bne	a0,s2,1454 <sbrk_aligned+0x2e>
    1478:	bfe9                	j	1452 <sbrk_aligned+0x2c>

0000147a <_malloc_r>:
_malloc_r():
    147a:	1101                	addi	sp,sp,-32
    147c:	ca26                	sw	s1,20(sp)
    147e:	00358493          	addi	s1,a1,3
    1482:	98f1                	andi	s1,s1,-4
    1484:	c84a                	sw	s2,16(sp)
    1486:	04a1                	addi	s1,s1,8
    1488:	47b1                	li	a5,12
    148a:	ce06                	sw	ra,28(sp)
    148c:	cc22                	sw	s0,24(sp)
    148e:	c64e                	sw	s3,12(sp)
    1490:	892a                	mv	s2,a0
    1492:	0af4f4b3          	maxu	s1,s1,a5
    1496:	0004c463          	bltz	s1,149e <_malloc_r+0x24>
    149a:	00b4fd63          	bgeu	s1,a1,14b4 <_malloc_r+0x3a>
    149e:	47b1                	li	a5,12
    14a0:	00f92023          	sw	a5,0(s2)
    14a4:	4501                	li	a0,0
    14a6:	40f2                	lw	ra,28(sp)
    14a8:	4462                	lw	s0,24(sp)
    14aa:	44d2                	lw	s1,20(sp)
    14ac:	4942                	lw	s2,16(sp)
    14ae:	49b2                	lw	s3,12(sp)
    14b0:	6105                	addi	sp,sp,32
    14b2:	8082                	ret
    14b4:	2371                	jal	1a40 <__malloc_lock>
    14b6:	82018993          	addi	s3,gp,-2016 # 20000780 <__malloc_free_list>
    14ba:	0009a783          	lw	a5,0(s3)
    14be:	843e                	mv	s0,a5
    14c0:	e431                	bnez	s0,150c <_malloc_r+0x92>
    14c2:	85a6                	mv	a1,s1
    14c4:	854a                	mv	a0,s2
    14c6:	3785                	jal	1426 <sbrk_aligned>
    14c8:	57fd                	li	a5,-1
    14ca:	842a                	mv	s0,a0
    14cc:	0af51663          	bne	a0,a5,1578 <_malloc_r+0xfe>
    14d0:	0009a403          	lw	s0,0(s3)
    14d4:	87a2                	mv	a5,s0
    14d6:	ebc1                	bnez	a5,1566 <_malloc_r+0xec>
    14d8:	00042983          	lw	s3,0(s0)
    14dc:	4581                	li	a1,0
    14de:	854a                	mv	a0,s2
    14e0:	99a2                	add	s3,s3,s0
    14e2:	2e45                	jal	1892 <_sbrk_r>
    14e4:	08a99463          	bne	s3,a0,156c <_malloc_r+0xf2>
    14e8:	401c                	lw	a5,0(s0)
    14ea:	048d                	addi	s1,s1,3
    14ec:	854a                	mv	a0,s2
    14ee:	8c9d                	sub	s1,s1,a5
    14f0:	98f1                	andi	s1,s1,-4
    14f2:	47b1                	li	a5,12
    14f4:	04a1                	addi	s1,s1,8
    14f6:	0af4f4b3          	maxu	s1,s1,a5
    14fa:	85a6                	mv	a1,s1
    14fc:	372d                	jal	1426 <sbrk_aligned>
    14fe:	57fd                	li	a5,-1
    1500:	06f50663          	beq	a0,a5,156c <_malloc_r+0xf2>
    1504:	401c                	lw	a5,0(s0)
    1506:	97a6                	add	a5,a5,s1
    1508:	c01c                	sw	a5,0(s0)
    150a:	a015                	j	152e <_malloc_r+0xb4>
    150c:	4014                	lw	a3,0(s0)
    150e:	8e85                	sub	a3,a3,s1
    1510:	0406c863          	bltz	a3,1560 <_malloc_r+0xe6>
    1514:	472d                	li	a4,11
    1516:	02d77d63          	bgeu	a4,a3,1550 <_malloc_r+0xd6>
    151a:	c004                	sw	s1,0(s0)
    151c:	00940733          	add	a4,s0,s1
    1520:	02879663          	bne	a5,s0,154c <_malloc_r+0xd2>
    1524:	00e9a023          	sw	a4,0(s3)
    1528:	405c                	lw	a5,4(s0)
    152a:	c314                	sw	a3,0(a4)
    152c:	c35c                	sw	a5,4(a4)
    152e:	854a                	mv	a0,s2
    1530:	2b21                	jal	1a48 <__malloc_unlock>
    1532:	00b40513          	addi	a0,s0,11
    1536:	00440793          	addi	a5,s0,4
    153a:	9961                	andi	a0,a0,-8
    153c:	40f50733          	sub	a4,a0,a5
    1540:	f6f503e3          	beq	a0,a5,14a6 <_malloc_r+0x2c>
    1544:	943a                	add	s0,s0,a4
    1546:	8f89                	sub	a5,a5,a0
    1548:	c01c                	sw	a5,0(s0)
    154a:	bfb1                	j	14a6 <_malloc_r+0x2c>
    154c:	c3d8                	sw	a4,4(a5)
    154e:	bfe9                	j	1528 <_malloc_r+0xae>
    1550:	4058                	lw	a4,4(s0)
    1552:	00879563          	bne	a5,s0,155c <_malloc_r+0xe2>
    1556:	00e9a023          	sw	a4,0(s3)
    155a:	bfd1                	j	152e <_malloc_r+0xb4>
    155c:	c3d8                	sw	a4,4(a5)
    155e:	bfc1                	j	152e <_malloc_r+0xb4>
    1560:	87a2                	mv	a5,s0
    1562:	4040                	lw	s0,4(s0)
    1564:	bfb1                	j	14c0 <_malloc_r+0x46>
    1566:	843e                	mv	s0,a5
    1568:	43dc                	lw	a5,4(a5)
    156a:	b7b5                	j	14d6 <_malloc_r+0x5c>
    156c:	47b1                	li	a5,12
    156e:	00f92023          	sw	a5,0(s2)
    1572:	854a                	mv	a0,s2
    1574:	29d1                	jal	1a48 <__malloc_unlock>
    1576:	b73d                	j	14a4 <_malloc_r+0x2a>
    1578:	c104                	sw	s1,0(a0)
    157a:	bf55                	j	152e <_malloc_r+0xb4>

0000157c <__sfputc_r>:
__sfputc_r():
    157c:	461c                	lw	a5,8(a2)
    157e:	17fd                	addi	a5,a5,-1
    1580:	c61c                	sw	a5,8(a2)
    1582:	0007da63          	bgez	a5,1596 <__sfputc_r+0x1a>
    1586:	4e18                	lw	a4,24(a2)
    1588:	00e7c563          	blt	a5,a4,1592 <__sfputc_r+0x16>
    158c:	47a9                	li	a5,10
    158e:	00f59463          	bne	a1,a5,1596 <__sfputc_r+0x1a>
    1592:	f5cff06f          	j	cee <__swbuf_r>
    1596:	421c                	lw	a5,0(a2)
    1598:	852e                	mv	a0,a1
    159a:	00178713          	addi	a4,a5,1
    159e:	c218                	sw	a4,0(a2)
    15a0:	a38c                	sb	a1,0(a5)
    15a2:	8082                	ret

000015a4 <__sfputs_r>:
__sfputs_r():
    15a4:	1101                	addi	sp,sp,-32
    15a6:	cc22                	sw	s0,24(sp)
    15a8:	ca26                	sw	s1,20(sp)
    15aa:	c84a                	sw	s2,16(sp)
    15ac:	c64e                	sw	s3,12(sp)
    15ae:	c452                	sw	s4,8(sp)
    15b0:	ce06                	sw	ra,28(sp)
    15b2:	892a                	mv	s2,a0
    15b4:	89ae                	mv	s3,a1
    15b6:	8432                	mv	s0,a2
    15b8:	00d604b3          	add	s1,a2,a3
    15bc:	5a7d                	li	s4,-1
    15be:	00941463          	bne	s0,s1,15c6 <__sfputs_r+0x22>
    15c2:	4501                	li	a0,0
    15c4:	a801                	j	15d4 <__sfputs_r+0x30>
    15c6:	200c                	lbu	a1,0(s0)
    15c8:	864e                	mv	a2,s3
    15ca:	854a                	mv	a0,s2
    15cc:	3f45                	jal	157c <__sfputc_r>
    15ce:	0405                	addi	s0,s0,1
    15d0:	ff4517e3          	bne	a0,s4,15be <__sfputs_r+0x1a>
    15d4:	40f2                	lw	ra,28(sp)
    15d6:	4462                	lw	s0,24(sp)
    15d8:	44d2                	lw	s1,20(sp)
    15da:	4942                	lw	s2,16(sp)
    15dc:	49b2                	lw	s3,12(sp)
    15de:	4a22                	lw	s4,8(sp)
    15e0:	6105                	addi	sp,sp,32
    15e2:	8082                	ret

000015e4 <_vfiprintf_r>:
_vfiprintf_r():
    15e4:	7135                	addi	sp,sp,-160
    15e6:	cd22                	sw	s0,152(sp)
    15e8:	cb26                	sw	s1,148(sp)
    15ea:	c94a                	sw	s2,144(sp)
    15ec:	c74e                	sw	s3,140(sp)
    15ee:	cf06                	sw	ra,156(sp)
    15f0:	c552                	sw	s4,136(sp)
    15f2:	c356                	sw	s5,132(sp)
    15f4:	c15a                	sw	s6,128(sp)
    15f6:	dede                	sw	s7,124(sp)
    15f8:	dce2                	sw	s8,120(sp)
    15fa:	89aa                	mv	s3,a0
    15fc:	842e                	mv	s0,a1
    15fe:	8932                	mv	s2,a2
    1600:	84b6                	mv	s1,a3
    1602:	c501                	beqz	a0,160a <_vfiprintf_r+0x26>
    1604:	4d1c                	lw	a5,24(a0)
    1606:	e391                	bnez	a5,160a <_vfiprintf_r+0x26>
    1608:	3e29                	jal	1122 <__sinit>
    160a:	00001797          	auipc	a5,0x1
    160e:	8be78793          	addi	a5,a5,-1858 # 1ec8 <__sf_fake_stdin>
    1612:	04f41763          	bne	s0,a5,1660 <_vfiprintf_r+0x7c>
    1616:	0049a403          	lw	s0,4(s3)
    161a:	507c                	lw	a5,100(s0)
    161c:	8b85                	andi	a5,a5,1
    161e:	e799                	bnez	a5,162c <_vfiprintf_r+0x48>
    1620:	245e                	lhu	a5,12(s0)
    1622:	2007f793          	andi	a5,a5,512
    1626:	e399                	bnez	a5,162c <_vfiprintf_r+0x48>
    1628:	4c28                	lw	a0,88(s0)
    162a:	3985                	jal	129a <__retarget_lock_acquire_recursive>
    162c:	245e                	lhu	a5,12(s0)
    162e:	8ba1                	andi	a5,a5,8
    1630:	c399                	beqz	a5,1636 <_vfiprintf_r+0x52>
    1632:	481c                	lw	a5,16(s0)
    1634:	efb9                	bnez	a5,1692 <_vfiprintf_r+0xae>
    1636:	85a2                	mv	a1,s0
    1638:	854e                	mv	a0,s3
    163a:	f70ff0ef          	jal	ra,daa <__swsetup_r>
    163e:	c931                	beqz	a0,1692 <_vfiprintf_r+0xae>
    1640:	507c                	lw	a5,100(s0)
    1642:	8b85                	andi	a5,a5,1
    1644:	c3a1                	beqz	a5,1684 <_vfiprintf_r+0xa0>
    1646:	557d                	li	a0,-1
    1648:	40fa                	lw	ra,156(sp)
    164a:	446a                	lw	s0,152(sp)
    164c:	44da                	lw	s1,148(sp)
    164e:	494a                	lw	s2,144(sp)
    1650:	49ba                	lw	s3,140(sp)
    1652:	4a2a                	lw	s4,136(sp)
    1654:	4a9a                	lw	s5,132(sp)
    1656:	4b0a                	lw	s6,128(sp)
    1658:	5bf6                	lw	s7,124(sp)
    165a:	5c66                	lw	s8,120(sp)
    165c:	610d                	addi	sp,sp,160
    165e:	8082                	ret
    1660:	00001797          	auipc	a5,0x1
    1664:	84878793          	addi	a5,a5,-1976 # 1ea8 <__sf_fake_stdout>
    1668:	00f41563          	bne	s0,a5,1672 <_vfiprintf_r+0x8e>
    166c:	0089a403          	lw	s0,8(s3)
    1670:	b76d                	j	161a <_vfiprintf_r+0x36>
    1672:	00001797          	auipc	a5,0x1
    1676:	81678793          	addi	a5,a5,-2026 # 1e88 <__sf_fake_stderr>
    167a:	faf410e3          	bne	s0,a5,161a <_vfiprintf_r+0x36>
    167e:	00c9a403          	lw	s0,12(s3)
    1682:	bf61                	j	161a <_vfiprintf_r+0x36>
    1684:	245e                	lhu	a5,12(s0)
    1686:	2007f793          	andi	a5,a5,512
    168a:	ffd5                	bnez	a5,1646 <_vfiprintf_r+0x62>
    168c:	4c28                	lw	a0,88(s0)
    168e:	3139                	jal	129c <__retarget_lock_release_recursive>
    1690:	bf5d                	j	1646 <_vfiprintf_r+0x62>
    1692:	02000793          	li	a5,32
    1696:	02f104a3          	sb	a5,41(sp)
    169a:	03000793          	li	a5,48
    169e:	d202                	sw	zero,36(sp)
    16a0:	02f10523          	sb	a5,42(sp)
    16a4:	c626                	sw	s1,12(sp)
    16a6:	02500b93          	li	s7,37
    16aa:	00001a97          	auipc	s5,0x1
    16ae:	83ea8a93          	addi	s5,s5,-1986 # 1ee8 <__sf_fake_stdin+0x20>
    16b2:	4b29                	li	s6,10
    16b4:	84ca                	mv	s1,s2
    16b6:	209c                	lbu	a5,0(s1)
    16b8:	c399                	beqz	a5,16be <_vfiprintf_r+0xda>
    16ba:	09779963          	bne	a5,s7,174c <_vfiprintf_r+0x168>
    16be:	41248c33          	sub	s8,s1,s2
    16c2:	01248d63          	beq	s1,s2,16dc <_vfiprintf_r+0xf8>
    16c6:	86e2                	mv	a3,s8
    16c8:	864a                	mv	a2,s2
    16ca:	85a2                	mv	a1,s0
    16cc:	854e                	mv	a0,s3
    16ce:	3dd9                	jal	15a4 <__sfputs_r>
    16d0:	57fd                	li	a5,-1
    16d2:	18f50663          	beq	a0,a5,185e <_vfiprintf_r+0x27a>
    16d6:	5792                	lw	a5,36(sp)
    16d8:	97e2                	add	a5,a5,s8
    16da:	d23e                	sw	a5,36(sp)
    16dc:	209c                	lbu	a5,0(s1)
    16de:	18078063          	beqz	a5,185e <_vfiprintf_r+0x27a>
    16e2:	57fd                	li	a5,-1
    16e4:	00148913          	addi	s2,s1,1
    16e8:	c802                	sw	zero,16(sp)
    16ea:	ce02                	sw	zero,28(sp)
    16ec:	ca3e                	sw	a5,20(sp)
    16ee:	cc02                	sw	zero,24(sp)
    16f0:	040109a3          	sb	zero,83(sp)
    16f4:	d482                	sw	zero,104(sp)
    16f6:	00094583          	lbu	a1,0(s2)
    16fa:	4615                	li	a2,5
    16fc:	8556                	mv	a0,s5
    16fe:	262d                	jal	1a28 <memchr>
    1700:	47c2                	lw	a5,16(sp)
    1702:	00190493          	addi	s1,s2,1
    1706:	e529                	bnez	a0,1750 <_vfiprintf_r+0x16c>
    1708:	0107f713          	andi	a4,a5,16
    170c:	c709                	beqz	a4,1716 <_vfiprintf_r+0x132>
    170e:	02000713          	li	a4,32
    1712:	04e109a3          	sb	a4,83(sp)
    1716:	0087f713          	andi	a4,a5,8
    171a:	c709                	beqz	a4,1724 <_vfiprintf_r+0x140>
    171c:	02b00713          	li	a4,43
    1720:	04e109a3          	sb	a4,83(sp)
    1724:	00094683          	lbu	a3,0(s2)
    1728:	02a00713          	li	a4,42
    172c:	02e68963          	beq	a3,a4,175e <_vfiprintf_r+0x17a>
    1730:	47f2                	lw	a5,28(sp)
    1732:	84ca                	mv	s1,s2
    1734:	4681                	li	a3,0
    1736:	4625                	li	a2,9
    1738:	2098                	lbu	a4,0(s1)
    173a:	00148593          	addi	a1,s1,1
    173e:	fd070713          	addi	a4,a4,-48 # ffffdfd0 <_eusrstack+0xdfffafd0>
    1742:	06e67263          	bgeu	a2,a4,17a6 <_vfiprintf_r+0x1c2>
    1746:	c685                	beqz	a3,176e <_vfiprintf_r+0x18a>
    1748:	ce3e                	sw	a5,28(sp)
    174a:	a015                	j	176e <_vfiprintf_r+0x18a>
    174c:	0485                	addi	s1,s1,1
    174e:	b7a5                	j	16b6 <_vfiprintf_r+0xd2>
    1750:	41550533          	sub	a0,a0,s5
    1754:	28a797b3          	bset	a5,a5,a0
    1758:	8926                	mv	s2,s1
    175a:	c83e                	sw	a5,16(sp)
    175c:	bf69                	j	16f6 <_vfiprintf_r+0x112>
    175e:	4732                	lw	a4,12(sp)
    1760:	00470693          	addi	a3,a4,4
    1764:	4318                	lw	a4,0(a4)
    1766:	c636                	sw	a3,12(sp)
    1768:	02074863          	bltz	a4,1798 <_vfiprintf_r+0x1b4>
    176c:	ce3a                	sw	a4,28(sp)
    176e:	2098                	lbu	a4,0(s1)
    1770:	02e00793          	li	a5,46
    1774:	04f71c63          	bne	a4,a5,17cc <_vfiprintf_r+0x1e8>
    1778:	3098                	lbu	a4,1(s1)
    177a:	02a00793          	li	a5,42
    177e:	02f71a63          	bne	a4,a5,17b2 <_vfiprintf_r+0x1ce>
    1782:	47b2                	lw	a5,12(sp)
    1784:	0489                	addi	s1,s1,2
    1786:	00478713          	addi	a4,a5,4
    178a:	439c                	lw	a5,0(a5)
    178c:	c63a                	sw	a4,12(sp)
    178e:	577d                	li	a4,-1
    1790:	0ae7e7b3          	max	a5,a5,a4
    1794:	ca3e                	sw	a5,20(sp)
    1796:	a81d                	j	17cc <_vfiprintf_r+0x1e8>
    1798:	40e00733          	neg	a4,a4
    179c:	0027e793          	ori	a5,a5,2
    17a0:	ce3a                	sw	a4,28(sp)
    17a2:	c83e                	sw	a5,16(sp)
    17a4:	b7e9                	j	176e <_vfiprintf_r+0x18a>
    17a6:	036787b3          	mul	a5,a5,s6
    17aa:	84ae                	mv	s1,a1
    17ac:	4685                	li	a3,1
    17ae:	97ba                	add	a5,a5,a4
    17b0:	b761                	j	1738 <_vfiprintf_r+0x154>
    17b2:	0485                	addi	s1,s1,1
    17b4:	ca02                	sw	zero,20(sp)
    17b6:	4681                	li	a3,0
    17b8:	4781                	li	a5,0
    17ba:	4625                	li	a2,9
    17bc:	2098                	lbu	a4,0(s1)
    17be:	00148593          	addi	a1,s1,1
    17c2:	fd070713          	addi	a4,a4,-48
    17c6:	06e67263          	bgeu	a2,a4,182a <_vfiprintf_r+0x246>
    17ca:	f6e9                	bnez	a3,1794 <_vfiprintf_r+0x1b0>
    17cc:	208c                	lbu	a1,0(s1)
    17ce:	460d                	li	a2,3
    17d0:	00000517          	auipc	a0,0x0
    17d4:	72050513          	addi	a0,a0,1824 # 1ef0 <__sf_fake_stdin+0x28>
    17d8:	2c81                	jal	1a28 <memchr>
    17da:	cd11                	beqz	a0,17f6 <_vfiprintf_r+0x212>
    17dc:	00000797          	auipc	a5,0x0
    17e0:	71478793          	addi	a5,a5,1812 # 1ef0 <__sf_fake_stdin+0x28>
    17e4:	8d1d                	sub	a0,a0,a5
    17e6:	47c2                	lw	a5,16(sp)
    17e8:	04000713          	li	a4,64
    17ec:	00a71733          	sll	a4,a4,a0
    17f0:	8fd9                	or	a5,a5,a4
    17f2:	0485                	addi	s1,s1,1
    17f4:	c83e                	sw	a5,16(sp)
    17f6:	208c                	lbu	a1,0(s1)
    17f8:	4619                	li	a2,6
    17fa:	00000517          	auipc	a0,0x0
    17fe:	6fa50513          	addi	a0,a0,1786 # 1ef4 <__sf_fake_stdin+0x2c>
    1802:	00148913          	addi	s2,s1,1
    1806:	02b10423          	sb	a1,40(sp)
    180a:	2c39                	jal	1a28 <memchr>
    180c:	c92d                	beqz	a0,187e <_vfiprintf_r+0x29a>
    180e:	00000793          	li	a5,0
    1812:	e795                	bnez	a5,183e <_vfiprintf_r+0x25a>
    1814:	4742                	lw	a4,16(sp)
    1816:	47b2                	lw	a5,12(sp)
    1818:	10077713          	andi	a4,a4,256
    181c:	cf09                	beqz	a4,1836 <_vfiprintf_r+0x252>
    181e:	0791                	addi	a5,a5,4
    1820:	c63e                	sw	a5,12(sp)
    1822:	5792                	lw	a5,36(sp)
    1824:	97d2                	add	a5,a5,s4
    1826:	d23e                	sw	a5,36(sp)
    1828:	b571                	j	16b4 <_vfiprintf_r+0xd0>
    182a:	036787b3          	mul	a5,a5,s6
    182e:	84ae                	mv	s1,a1
    1830:	4685                	li	a3,1
    1832:	97ba                	add	a5,a5,a4
    1834:	b761                	j	17bc <_vfiprintf_r+0x1d8>
    1836:	079d                	addi	a5,a5,7
    1838:	9be1                	andi	a5,a5,-8
    183a:	07a1                	addi	a5,a5,8
    183c:	b7d5                	j	1820 <_vfiprintf_r+0x23c>
    183e:	0078                	addi	a4,sp,12
    1840:	00000697          	auipc	a3,0x0
    1844:	d6468693          	addi	a3,a3,-668 # 15a4 <__sfputs_r>
    1848:	8622                	mv	a2,s0
    184a:	080c                	addi	a1,sp,16
    184c:	854e                	mv	a0,s3
    184e:	00000097          	auipc	ra,0x0
    1852:	000000e7          	jalr	zero # 0 <_sinit>
    1856:	57fd                	li	a5,-1
    1858:	8a2a                	mv	s4,a0
    185a:	fcf514e3          	bne	a0,a5,1822 <_vfiprintf_r+0x23e>
    185e:	507c                	lw	a5,100(s0)
    1860:	8b85                	andi	a5,a5,1
    1862:	e799                	bnez	a5,1870 <_vfiprintf_r+0x28c>
    1864:	245e                	lhu	a5,12(s0)
    1866:	2007f793          	andi	a5,a5,512
    186a:	e399                	bnez	a5,1870 <_vfiprintf_r+0x28c>
    186c:	4c28                	lw	a0,88(s0)
    186e:	343d                	jal	129c <__retarget_lock_release_recursive>
    1870:	245e                	lhu	a5,12(s0)
    1872:	0407f793          	andi	a5,a5,64
    1876:	dc0798e3          	bnez	a5,1646 <_vfiprintf_r+0x62>
    187a:	5512                	lw	a0,36(sp)
    187c:	b3f1                	j	1648 <_vfiprintf_r+0x64>
    187e:	0078                	addi	a4,sp,12
    1880:	00000697          	auipc	a3,0x0
    1884:	d2468693          	addi	a3,a3,-732 # 15a4 <__sfputs_r>
    1888:	8622                	mv	a2,s0
    188a:	080c                	addi	a1,sp,16
    188c:	854e                	mv	a0,s3
    188e:	24f1                	jal	1b5a <_printf_i>
    1890:	b7d9                	j	1856 <_vfiprintf_r+0x272>

00001892 <_sbrk_r>:
_sbrk_r():
    1892:	1141                	addi	sp,sp,-16
    1894:	c422                	sw	s0,8(sp)
    1896:	842a                	mv	s0,a0
    1898:	852e                	mv	a0,a1
    189a:	8201a223          	sw	zero,-2012(gp) # 20000784 <errno>
    189e:	c606                	sw	ra,12(sp)
    18a0:	918ff0ef          	jal	ra,9b8 <_sbrk>
    18a4:	57fd                	li	a5,-1
    18a6:	00f51663          	bne	a0,a5,18b2 <_sbrk_r+0x20>
    18aa:	8241a783          	lw	a5,-2012(gp) # 20000784 <errno>
    18ae:	c391                	beqz	a5,18b2 <_sbrk_r+0x20>
    18b0:	c01c                	sw	a5,0(s0)
    18b2:	40b2                	lw	ra,12(sp)
    18b4:	4422                	lw	s0,8(sp)
    18b6:	0141                	addi	sp,sp,16
    18b8:	8082                	ret

000018ba <__sread>:
__sread():
    18ba:	1141                	addi	sp,sp,-16
    18bc:	c422                	sw	s0,8(sp)
    18be:	842e                	mv	s0,a1
    18c0:	00e59583          	lh	a1,14(a1)
    18c4:	c606                	sw	ra,12(sp)
    18c6:	2331                	jal	1dd2 <_read_r>
    18c8:	00054963          	bltz	a0,18da <__sread+0x20>
    18cc:	487c                	lw	a5,84(s0)
    18ce:	97aa                	add	a5,a5,a0
    18d0:	c87c                	sw	a5,84(s0)
    18d2:	40b2                	lw	ra,12(sp)
    18d4:	4422                	lw	s0,8(sp)
    18d6:	0141                	addi	sp,sp,16
    18d8:	8082                	ret
    18da:	245e                	lhu	a5,12(s0)
    18dc:	48c79793          	bclri	a5,a5,0xc
    18e0:	a45e                	sh	a5,12(s0)
    18e2:	bfc5                	j	18d2 <__sread+0x18>

000018e4 <__swrite>:
__swrite():
    18e4:	25de                	lhu	a5,12(a1)
    18e6:	1101                	addi	sp,sp,-32
    18e8:	cc22                	sw	s0,24(sp)
    18ea:	ca26                	sw	s1,20(sp)
    18ec:	c84a                	sw	s2,16(sp)
    18ee:	c64e                	sw	s3,12(sp)
    18f0:	ce06                	sw	ra,28(sp)
    18f2:	1007f793          	andi	a5,a5,256
    18f6:	84aa                	mv	s1,a0
    18f8:	842e                	mv	s0,a1
    18fa:	8932                	mv	s2,a2
    18fc:	89b6                	mv	s3,a3
    18fe:	c791                	beqz	a5,190a <__swrite+0x26>
    1900:	00e59583          	lh	a1,14(a1)
    1904:	4689                	li	a3,2
    1906:	4601                	li	a2,0
    1908:	28dd                	jal	19fe <_lseek_r>
    190a:	245e                	lhu	a5,12(s0)
    190c:	00e41583          	lh	a1,14(s0)
    1910:	40f2                	lw	ra,28(sp)
    1912:	48c79793          	bclri	a5,a5,0xc
    1916:	a45e                	sh	a5,12(s0)
    1918:	4462                	lw	s0,24(sp)
    191a:	86ce                	mv	a3,s3
    191c:	864a                	mv	a2,s2
    191e:	49b2                	lw	s3,12(sp)
    1920:	4942                	lw	s2,16(sp)
    1922:	8526                	mv	a0,s1
    1924:	44d2                	lw	s1,20(sp)
    1926:	6105                	addi	sp,sp,32
    1928:	a81d                	j	195e <_write_r>

0000192a <__sseek>:
__sseek():
    192a:	1141                	addi	sp,sp,-16
    192c:	c422                	sw	s0,8(sp)
    192e:	842e                	mv	s0,a1
    1930:	00e59583          	lh	a1,14(a1)
    1934:	c606                	sw	ra,12(sp)
    1936:	20e1                	jal	19fe <_lseek_r>
    1938:	577d                	li	a4,-1
    193a:	245e                	lhu	a5,12(s0)
    193c:	00e51963          	bne	a0,a4,194e <__sseek+0x24>
    1940:	48c79793          	bclri	a5,a5,0xc
    1944:	a45e                	sh	a5,12(s0)
    1946:	40b2                	lw	ra,12(sp)
    1948:	4422                	lw	s0,8(sp)
    194a:	0141                	addi	sp,sp,16
    194c:	8082                	ret
    194e:	28c79793          	bseti	a5,a5,0xc
    1952:	c868                	sw	a0,84(s0)
    1954:	a45e                	sh	a5,12(s0)
    1956:	bfc5                	j	1946 <__sseek+0x1c>

00001958 <__sclose>:
__sclose():
    1958:	00e59583          	lh	a1,14(a1)
    195c:	a03d                	j	198a <_close_r>

0000195e <_write_r>:
_write_r():
    195e:	1141                	addi	sp,sp,-16
    1960:	c422                	sw	s0,8(sp)
    1962:	842a                	mv	s0,a0
    1964:	852e                	mv	a0,a1
    1966:	85b2                	mv	a1,a2
    1968:	8636                	mv	a2,a3
    196a:	8201a223          	sw	zero,-2012(gp) # 20000784 <errno>
    196e:	c606                	sw	ra,12(sp)
    1970:	822ff0ef          	jal	ra,992 <_write>
    1974:	57fd                	li	a5,-1
    1976:	00f51663          	bne	a0,a5,1982 <_write_r+0x24>
    197a:	8241a783          	lw	a5,-2012(gp) # 20000784 <errno>
    197e:	c391                	beqz	a5,1982 <_write_r+0x24>
    1980:	c01c                	sw	a5,0(s0)
    1982:	40b2                	lw	ra,12(sp)
    1984:	4422                	lw	s0,8(sp)
    1986:	0141                	addi	sp,sp,16
    1988:	8082                	ret

0000198a <_close_r>:
_close_r():
    198a:	1141                	addi	sp,sp,-16
    198c:	c422                	sw	s0,8(sp)
    198e:	842a                	mv	s0,a0
    1990:	852e                	mv	a0,a1
    1992:	8201a223          	sw	zero,-2012(gp) # 20000784 <errno>
    1996:	c606                	sw	ra,12(sp)
    1998:	2195                	jal	1dfc <_close>
    199a:	57fd                	li	a5,-1
    199c:	00f51663          	bne	a0,a5,19a8 <_close_r+0x1e>
    19a0:	8241a783          	lw	a5,-2012(gp) # 20000784 <errno>
    19a4:	c391                	beqz	a5,19a8 <_close_r+0x1e>
    19a6:	c01c                	sw	a5,0(s0)
    19a8:	40b2                	lw	ra,12(sp)
    19aa:	4422                	lw	s0,8(sp)
    19ac:	0141                	addi	sp,sp,16
    19ae:	8082                	ret

000019b0 <_fstat_r>:
_fstat_r():
    19b0:	1141                	addi	sp,sp,-16
    19b2:	c422                	sw	s0,8(sp)
    19b4:	842a                	mv	s0,a0
    19b6:	852e                	mv	a0,a1
    19b8:	85b2                	mv	a1,a2
    19ba:	8201a223          	sw	zero,-2012(gp) # 20000784 <errno>
    19be:	c606                	sw	ra,12(sp)
    19c0:	21a1                	jal	1e08 <_fstat>
    19c2:	57fd                	li	a5,-1
    19c4:	00f51663          	bne	a0,a5,19d0 <_fstat_r+0x20>
    19c8:	8241a783          	lw	a5,-2012(gp) # 20000784 <errno>
    19cc:	c391                	beqz	a5,19d0 <_fstat_r+0x20>
    19ce:	c01c                	sw	a5,0(s0)
    19d0:	40b2                	lw	ra,12(sp)
    19d2:	4422                	lw	s0,8(sp)
    19d4:	0141                	addi	sp,sp,16
    19d6:	8082                	ret

000019d8 <_isatty_r>:
_isatty_r():
    19d8:	1141                	addi	sp,sp,-16
    19da:	c422                	sw	s0,8(sp)
    19dc:	842a                	mv	s0,a0
    19de:	852e                	mv	a0,a1
    19e0:	8201a223          	sw	zero,-2012(gp) # 20000784 <errno>
    19e4:	c606                	sw	ra,12(sp)
    19e6:	213d                	jal	1e14 <_isatty>
    19e8:	57fd                	li	a5,-1
    19ea:	00f51663          	bne	a0,a5,19f6 <_isatty_r+0x1e>
    19ee:	8241a783          	lw	a5,-2012(gp) # 20000784 <errno>
    19f2:	c391                	beqz	a5,19f6 <_isatty_r+0x1e>
    19f4:	c01c                	sw	a5,0(s0)
    19f6:	40b2                	lw	ra,12(sp)
    19f8:	4422                	lw	s0,8(sp)
    19fa:	0141                	addi	sp,sp,16
    19fc:	8082                	ret

000019fe <_lseek_r>:
_lseek_r():
    19fe:	1141                	addi	sp,sp,-16
    1a00:	c422                	sw	s0,8(sp)
    1a02:	842a                	mv	s0,a0
    1a04:	852e                	mv	a0,a1
    1a06:	85b2                	mv	a1,a2
    1a08:	8636                	mv	a2,a3
    1a0a:	8201a223          	sw	zero,-2012(gp) # 20000784 <errno>
    1a0e:	c606                	sw	ra,12(sp)
    1a10:	2901                	jal	1e20 <_lseek>
    1a12:	57fd                	li	a5,-1
    1a14:	00f51663          	bne	a0,a5,1a20 <_lseek_r+0x22>
    1a18:	8241a783          	lw	a5,-2012(gp) # 20000784 <errno>
    1a1c:	c391                	beqz	a5,1a20 <_lseek_r+0x22>
    1a1e:	c01c                	sw	a5,0(s0)
    1a20:	40b2                	lw	ra,12(sp)
    1a22:	4422                	lw	s0,8(sp)
    1a24:	0141                	addi	sp,sp,16
    1a26:	8082                	ret

00001a28 <memchr>:
memchr():
    1a28:	0ff5f593          	zext.b	a1,a1
    1a2c:	962a                	add	a2,a2,a0
    1a2e:	00c51463          	bne	a0,a2,1a36 <memchr+0xe>
    1a32:	4501                	li	a0,0
    1a34:	8082                	ret
    1a36:	211c                	lbu	a5,0(a0)
    1a38:	feb78ee3          	beq	a5,a1,1a34 <memchr+0xc>
    1a3c:	0505                	addi	a0,a0,1
    1a3e:	bfc5                	j	1a2e <memchr+0x6>

00001a40 <__malloc_lock>:
__malloc_lock():
    1a40:	81018513          	addi	a0,gp,-2032 # 20000770 <__lock___malloc_recursive_mutex>
    1a44:	857ff06f          	j	129a <__retarget_lock_acquire_recursive>

00001a48 <__malloc_unlock>:
__malloc_unlock():
    1a48:	81018513          	addi	a0,gp,-2032 # 20000770 <__lock___malloc_recursive_mutex>
    1a4c:	851ff06f          	j	129c <__retarget_lock_release_recursive>

00001a50 <_printf_common>:
_printf_common():
    1a50:	7179                	addi	sp,sp,-48
    1a52:	ca56                	sw	s5,20(sp)
    1a54:	499c                	lw	a5,16(a1)
    1a56:	8aba                	mv	s5,a4
    1a58:	4598                	lw	a4,8(a1)
    1a5a:	d422                	sw	s0,40(sp)
    1a5c:	d04a                	sw	s2,32(sp)
    1a5e:	ce4e                	sw	s3,28(sp)
    1a60:	cc52                	sw	s4,24(sp)
    1a62:	d606                	sw	ra,44(sp)
    1a64:	d226                	sw	s1,36(sp)
    1a66:	c85a                	sw	s6,16(sp)
    1a68:	c65e                	sw	s7,12(sp)
    1a6a:	0ae7e7b3          	max	a5,a5,a4
    1a6e:	c21c                	sw	a5,0(a2)
    1a70:	0435c703          	lbu	a4,67(a1)
    1a74:	89aa                	mv	s3,a0
    1a76:	842e                	mv	s0,a1
    1a78:	8932                	mv	s2,a2
    1a7a:	8a36                	mv	s4,a3
    1a7c:	c319                	beqz	a4,1a82 <_printf_common+0x32>
    1a7e:	0785                	addi	a5,a5,1
    1a80:	c21c                	sw	a5,0(a2)
    1a82:	401c                	lw	a5,0(s0)
    1a84:	0207f793          	andi	a5,a5,32
    1a88:	c791                	beqz	a5,1a94 <_printf_common+0x44>
    1a8a:	00092783          	lw	a5,0(s2)
    1a8e:	0789                	addi	a5,a5,2
    1a90:	00f92023          	sw	a5,0(s2)
    1a94:	4004                	lw	s1,0(s0)
    1a96:	8899                	andi	s1,s1,6
    1a98:	e891                	bnez	s1,1aac <_printf_common+0x5c>
    1a9a:	01940b13          	addi	s6,s0,25
    1a9e:	5bfd                	li	s7,-1
    1aa0:	445c                	lw	a5,12(s0)
    1aa2:	00092703          	lw	a4,0(s2)
    1aa6:	8f99                	sub	a5,a5,a4
    1aa8:	04f4cc63          	blt	s1,a5,1b00 <_printf_common+0xb0>
    1aac:	04344783          	lbu	a5,67(s0)
    1ab0:	00f036b3          	snez	a3,a5
    1ab4:	401c                	lw	a5,0(s0)
    1ab6:	0207f793          	andi	a5,a5,32
    1aba:	eba5                	bnez	a5,1b2a <_printf_common+0xda>
    1abc:	04340613          	addi	a2,s0,67
    1ac0:	85d2                	mv	a1,s4
    1ac2:	854e                	mv	a0,s3
    1ac4:	9a82                	jalr	s5
    1ac6:	57fd                	li	a5,-1
    1ac8:	04f50363          	beq	a0,a5,1b0e <_printf_common+0xbe>
    1acc:	401c                	lw	a5,0(s0)
    1ace:	4711                	li	a4,4
    1ad0:	4481                	li	s1,0
    1ad2:	8b99                	andi	a5,a5,6
    1ad4:	00e79963          	bne	a5,a4,1ae6 <_printf_common+0x96>
    1ad8:	00092783          	lw	a5,0(s2)
    1adc:	4444                	lw	s1,12(s0)
    1ade:	8c9d                	sub	s1,s1,a5
    1ae0:	4781                	li	a5,0
    1ae2:	0af4e4b3          	max	s1,s1,a5
    1ae6:	441c                	lw	a5,8(s0)
    1ae8:	4818                	lw	a4,16(s0)
    1aea:	00f75463          	bge	a4,a5,1af2 <_printf_common+0xa2>
    1aee:	8f99                	sub	a5,a5,a4
    1af0:	94be                	add	s1,s1,a5
    1af2:	4901                	li	s2,0
    1af4:	0469                	addi	s0,s0,26
    1af6:	5b7d                	li	s6,-1
    1af8:	05249863          	bne	s1,s2,1b48 <_printf_common+0xf8>
    1afc:	4501                	li	a0,0
    1afe:	a809                	j	1b10 <_printf_common+0xc0>
    1b00:	4685                	li	a3,1
    1b02:	865a                	mv	a2,s6
    1b04:	85d2                	mv	a1,s4
    1b06:	854e                	mv	a0,s3
    1b08:	9a82                	jalr	s5
    1b0a:	01751e63          	bne	a0,s7,1b26 <_printf_common+0xd6>
    1b0e:	557d                	li	a0,-1
    1b10:	50b2                	lw	ra,44(sp)
    1b12:	5422                	lw	s0,40(sp)
    1b14:	5492                	lw	s1,36(sp)
    1b16:	5902                	lw	s2,32(sp)
    1b18:	49f2                	lw	s3,28(sp)
    1b1a:	4a62                	lw	s4,24(sp)
    1b1c:	4ad2                	lw	s5,20(sp)
    1b1e:	4b42                	lw	s6,16(sp)
    1b20:	4bb2                	lw	s7,12(sp)
    1b22:	6145                	addi	sp,sp,48
    1b24:	8082                	ret
    1b26:	0485                	addi	s1,s1,1
    1b28:	bfa5                	j	1aa0 <_printf_common+0x50>
    1b2a:	00d40733          	add	a4,s0,a3
    1b2e:	03000613          	li	a2,48
    1b32:	04c701a3          	sb	a2,67(a4)
    1b36:	04544703          	lbu	a4,69(s0)
    1b3a:	00168793          	addi	a5,a3,1
    1b3e:	97a2                	add	a5,a5,s0
    1b40:	0689                	addi	a3,a3,2
    1b42:	04e781a3          	sb	a4,67(a5)
    1b46:	bf9d                	j	1abc <_printf_common+0x6c>
    1b48:	4685                	li	a3,1
    1b4a:	8622                	mv	a2,s0
    1b4c:	85d2                	mv	a1,s4
    1b4e:	854e                	mv	a0,s3
    1b50:	9a82                	jalr	s5
    1b52:	fb650ee3          	beq	a0,s6,1b0e <_printf_common+0xbe>
    1b56:	0905                	addi	s2,s2,1
    1b58:	b745                	j	1af8 <_printf_common+0xa8>

00001b5a <_printf_i>:
_printf_i():
    1b5a:	7179                	addi	sp,sp,-48
    1b5c:	d422                	sw	s0,40(sp)
    1b5e:	d04a                	sw	s2,32(sp)
    1b60:	ce4e                	sw	s3,28(sp)
    1b62:	cc52                	sw	s4,24(sp)
    1b64:	d606                	sw	ra,44(sp)
    1b66:	d226                	sw	s1,36(sp)
    1b68:	ca56                	sw	s5,20(sp)
    1b6a:	c85a                	sw	s6,16(sp)
    1b6c:	0185c803          	lbu	a6,24(a1)
    1b70:	07800793          	li	a5,120
    1b74:	892a                	mv	s2,a0
    1b76:	842e                	mv	s0,a1
    1b78:	89b2                	mv	s3,a2
    1b7a:	8a36                	mv	s4,a3
    1b7c:	0307e263          	bltu	a5,a6,1ba0 <_printf_i+0x46>
    1b80:	06200793          	li	a5,98
    1b84:	04358693          	addi	a3,a1,67
    1b88:	0307e163          	bltu	a5,a6,1baa <_printf_i+0x50>
    1b8c:	1c080b63          	beqz	a6,1d62 <_printf_i+0x208>
    1b90:	05800793          	li	a5,88
    1b94:	00000617          	auipc	a2,0x0
    1b98:	36860613          	addi	a2,a2,872 # 1efc <__sf_fake_stdin+0x34>
    1b9c:	14f80763          	beq	a6,a5,1cea <_printf_i+0x190>
    1ba0:	04240493          	addi	s1,s0,66
    1ba4:	05040123          	sb	a6,66(s0)
    1ba8:	a815                	j	1bdc <_printf_i+0x82>
    1baa:	f9d80793          	addi	a5,a6,-99
    1bae:	0ff7f793          	zext.b	a5,a5
    1bb2:	4655                	li	a2,21
    1bb4:	fef666e3          	bltu	a2,a5,1ba0 <_printf_i+0x46>
    1bb8:	00000617          	auipc	a2,0x0
    1bbc:	36c60613          	addi	a2,a2,876 # 1f24 <__sf_fake_stdin+0x5c>
    1bc0:	20c7c7b3          	sh2add	a5,a5,a2
    1bc4:	439c                	lw	a5,0(a5)
    1bc6:	97b2                	add	a5,a5,a2
    1bc8:	8782                	jr	a5
    1bca:	431c                	lw	a5,0(a4)
    1bcc:	04258493          	addi	s1,a1,66
    1bd0:	00478693          	addi	a3,a5,4
    1bd4:	439c                	lw	a5,0(a5)
    1bd6:	c314                	sw	a3,0(a4)
    1bd8:	04f58123          	sb	a5,66(a1)
    1bdc:	4785                	li	a5,1
    1bde:	a265                	j	1d86 <_printf_i+0x22c>
    1be0:	4190                	lw	a2,0(a1)
    1be2:	431c                	lw	a5,0(a4)
    1be4:	08067513          	andi	a0,a2,128
    1be8:	00478593          	addi	a1,a5,4
    1bec:	c129                	beqz	a0,1c2e <_printf_i+0xd4>
    1bee:	439c                	lw	a5,0(a5)
    1bf0:	c30c                	sw	a1,0(a4)
    1bf2:	4058                	lw	a4,4(s0)
    1bf4:	1207de63          	bgez	a5,1d30 <_printf_i+0x1d6>
    1bf8:	02d00593          	li	a1,45
    1bfc:	04b401a3          	sb	a1,67(s0)
    1c00:	c418                	sw	a4,8(s0)
    1c02:	02075e63          	bgez	a4,1c3e <_printf_i+0xe4>
    1c06:	40f007b3          	neg	a5,a5
    1c0a:	00000617          	auipc	a2,0x0
    1c0e:	2f260613          	addi	a2,a2,754 # 1efc <__sf_fake_stdin+0x34>
    1c12:	4829                	li	a6,10
    1c14:	84b6                	mv	s1,a3
    1c16:	0307f733          	remu	a4,a5,a6
    1c1a:	14fd                	addi	s1,s1,-1
    1c1c:	9732                	add	a4,a4,a2
    1c1e:	2318                	lbu	a4,0(a4)
    1c20:	a098                	sb	a4,0(s1)
    1c22:	873e                	mv	a4,a5
    1c24:	0307d7b3          	divu	a5,a5,a6
    1c28:	ff0777e3          	bgeu	a4,a6,1c16 <_printf_i+0xbc>
    1c2c:	a085                	j	1c8c <_printf_i+0x132>
    1c2e:	439c                	lw	a5,0(a5)
    1c30:	04067513          	andi	a0,a2,64
    1c34:	c30c                	sw	a1,0(a4)
    1c36:	dd55                	beqz	a0,1bf2 <_printf_i+0x98>
    1c38:	60579793          	sext.h	a5,a5
    1c3c:	bf5d                	j	1bf2 <_printf_i+0x98>
    1c3e:	9a6d                	andi	a2,a2,-5
    1c40:	c010                	sw	a2,0(s0)
    1c42:	b7d1                	j	1c06 <_printf_i+0xac>
    1c44:	4190                	lw	a2,0(a1)
    1c46:	431c                	lw	a5,0(a4)
    1c48:	08067513          	andi	a0,a2,128
    1c4c:	00478593          	addi	a1,a5,4
    1c50:	c501                	beqz	a0,1c58 <_printf_i+0xfe>
    1c52:	c30c                	sw	a1,0(a4)
    1c54:	439c                	lw	a5,0(a5)
    1c56:	a031                	j	1c62 <_printf_i+0x108>
    1c58:	04067613          	andi	a2,a2,64
    1c5c:	c30c                	sw	a1,0(a4)
    1c5e:	da7d                	beqz	a2,1c54 <_printf_i+0xfa>
    1c60:	239e                	lhu	a5,0(a5)
    1c62:	06f00713          	li	a4,111
    1c66:	00000617          	auipc	a2,0x0
    1c6a:	29660613          	addi	a2,a2,662 # 1efc <__sf_fake_stdin+0x34>
    1c6e:	0ae81f63          	bne	a6,a4,1d2c <_printf_i+0x1d2>
    1c72:	4821                	li	a6,8
    1c74:	040401a3          	sb	zero,67(s0)
    1c78:	4058                	lw	a4,4(s0)
    1c7a:	c418                	sw	a4,8(s0)
    1c7c:	f8074ce3          	bltz	a4,1c14 <_printf_i+0xba>
    1c80:	400c                	lw	a1,0(s0)
    1c82:	99ed                	andi	a1,a1,-5
    1c84:	c00c                	sw	a1,0(s0)
    1c86:	f7d9                	bnez	a5,1c14 <_printf_i+0xba>
    1c88:	84b6                	mv	s1,a3
    1c8a:	f749                	bnez	a4,1c14 <_printf_i+0xba>
    1c8c:	47a1                	li	a5,8
    1c8e:	00f81e63          	bne	a6,a5,1caa <_printf_i+0x150>
    1c92:	401c                	lw	a5,0(s0)
    1c94:	8b85                	andi	a5,a5,1
    1c96:	cb91                	beqz	a5,1caa <_printf_i+0x150>
    1c98:	4058                	lw	a4,4(s0)
    1c9a:	481c                	lw	a5,16(s0)
    1c9c:	00e7c763          	blt	a5,a4,1caa <_printf_i+0x150>
    1ca0:	03000793          	li	a5,48
    1ca4:	fef48fa3          	sb	a5,-1(s1)
    1ca8:	14fd                	addi	s1,s1,-1
    1caa:	8e85                	sub	a3,a3,s1
    1cac:	c814                	sw	a3,16(s0)
    1cae:	8752                	mv	a4,s4
    1cb0:	86ce                	mv	a3,s3
    1cb2:	0070                	addi	a2,sp,12
    1cb4:	85a2                	mv	a1,s0
    1cb6:	854a                	mv	a0,s2
    1cb8:	3b61                	jal	1a50 <_printf_common>
    1cba:	5afd                	li	s5,-1
    1cbc:	0d551963          	bne	a0,s5,1d8e <_printf_i+0x234>
    1cc0:	557d                	li	a0,-1
    1cc2:	50b2                	lw	ra,44(sp)
    1cc4:	5422                	lw	s0,40(sp)
    1cc6:	5492                	lw	s1,36(sp)
    1cc8:	5902                	lw	s2,32(sp)
    1cca:	49f2                	lw	s3,28(sp)
    1ccc:	4a62                	lw	s4,24(sp)
    1cce:	4ad2                	lw	s5,20(sp)
    1cd0:	4b42                	lw	s6,16(sp)
    1cd2:	6145                	addi	sp,sp,48
    1cd4:	8082                	ret
    1cd6:	419c                	lw	a5,0(a1)
    1cd8:	0207e793          	ori	a5,a5,32
    1cdc:	c19c                	sw	a5,0(a1)
    1cde:	07800813          	li	a6,120
    1ce2:	00000617          	auipc	a2,0x0
    1ce6:	22e60613          	addi	a2,a2,558 # 1f10 <__sf_fake_stdin+0x48>
    1cea:	050402a3          	sb	a6,69(s0)
    1cee:	400c                	lw	a1,0(s0)
    1cf0:	431c                	lw	a5,0(a4)
    1cf2:	0805f813          	andi	a6,a1,128
    1cf6:	00478513          	addi	a0,a5,4
    1cfa:	00080563          	beqz	a6,1d04 <_printf_i+0x1aa>
    1cfe:	c308                	sw	a0,0(a4)
    1d00:	439c                	lw	a5,0(a5)
    1d02:	a039                	j	1d10 <_printf_i+0x1b6>
    1d04:	0405f813          	andi	a6,a1,64
    1d08:	c308                	sw	a0,0(a4)
    1d0a:	fe080be3          	beqz	a6,1d00 <_printf_i+0x1a6>
    1d0e:	239e                	lhu	a5,0(a5)
    1d10:	0015f713          	andi	a4,a1,1
    1d14:	c701                	beqz	a4,1d1c <_printf_i+0x1c2>
    1d16:	0205e593          	ori	a1,a1,32
    1d1a:	c00c                	sw	a1,0(s0)
    1d1c:	c399                	beqz	a5,1d22 <_printf_i+0x1c8>
    1d1e:	4841                	li	a6,16
    1d20:	bf91                	j	1c74 <_printf_i+0x11a>
    1d22:	4018                	lw	a4,0(s0)
    1d24:	fdf77713          	andi	a4,a4,-33
    1d28:	c018                	sw	a4,0(s0)
    1d2a:	bfd5                	j	1d1e <_printf_i+0x1c4>
    1d2c:	4829                	li	a6,10
    1d2e:	b799                	j	1c74 <_printf_i+0x11a>
    1d30:	00000617          	auipc	a2,0x0
    1d34:	1cc60613          	addi	a2,a2,460 # 1efc <__sf_fake_stdin+0x34>
    1d38:	4829                	li	a6,10
    1d3a:	bf3d                	j	1c78 <_printf_i+0x11e>
    1d3c:	4190                	lw	a2,0(a1)
    1d3e:	431c                	lw	a5,0(a4)
    1d40:	49cc                	lw	a1,20(a1)
    1d42:	08067813          	andi	a6,a2,128
    1d46:	00478513          	addi	a0,a5,4
    1d4a:	00080663          	beqz	a6,1d56 <_printf_i+0x1fc>
    1d4e:	c308                	sw	a0,0(a4)
    1d50:	439c                	lw	a5,0(a5)
    1d52:	c38c                	sw	a1,0(a5)
    1d54:	a039                	j	1d62 <_printf_i+0x208>
    1d56:	c308                	sw	a0,0(a4)
    1d58:	04067613          	andi	a2,a2,64
    1d5c:	439c                	lw	a5,0(a5)
    1d5e:	da75                	beqz	a2,1d52 <_printf_i+0x1f8>
    1d60:	a38e                	sh	a1,0(a5)
    1d62:	00042823          	sw	zero,16(s0)
    1d66:	84b6                	mv	s1,a3
    1d68:	b799                	j	1cae <_printf_i+0x154>
    1d6a:	431c                	lw	a5,0(a4)
    1d6c:	41d0                	lw	a2,4(a1)
    1d6e:	4581                	li	a1,0
    1d70:	00478693          	addi	a3,a5,4
    1d74:	c314                	sw	a3,0(a4)
    1d76:	4384                	lw	s1,0(a5)
    1d78:	8526                	mv	a0,s1
    1d7a:	317d                	jal	1a28 <memchr>
    1d7c:	c501                	beqz	a0,1d84 <_printf_i+0x22a>
    1d7e:	409507b3          	sub	a5,a0,s1
    1d82:	c05c                	sw	a5,4(s0)
    1d84:	405c                	lw	a5,4(s0)
    1d86:	c81c                	sw	a5,16(s0)
    1d88:	040401a3          	sb	zero,67(s0)
    1d8c:	b70d                	j	1cae <_printf_i+0x154>
    1d8e:	4814                	lw	a3,16(s0)
    1d90:	8626                	mv	a2,s1
    1d92:	85ce                	mv	a1,s3
    1d94:	854a                	mv	a0,s2
    1d96:	9a02                	jalr	s4
    1d98:	f35504e3          	beq	a0,s5,1cc0 <_printf_i+0x166>
    1d9c:	401c                	lw	a5,0(s0)
    1d9e:	8b89                	andi	a5,a5,2
    1da0:	e785                	bnez	a5,1dc8 <_printf_i+0x26e>
    1da2:	4448                	lw	a0,12(s0)
    1da4:	47b2                	lw	a5,12(sp)
    1da6:	0af56533          	max	a0,a0,a5
    1daa:	bf21                	j	1cc2 <_printf_i+0x168>
    1dac:	4685                	li	a3,1
    1dae:	8656                	mv	a2,s5
    1db0:	85ce                	mv	a1,s3
    1db2:	854a                	mv	a0,s2
    1db4:	9a02                	jalr	s4
    1db6:	f16505e3          	beq	a0,s6,1cc0 <_printf_i+0x166>
    1dba:	0485                	addi	s1,s1,1
    1dbc:	445c                	lw	a5,12(s0)
    1dbe:	4732                	lw	a4,12(sp)
    1dc0:	8f99                	sub	a5,a5,a4
    1dc2:	fef4c5e3          	blt	s1,a5,1dac <_printf_i+0x252>
    1dc6:	bff1                	j	1da2 <_printf_i+0x248>
    1dc8:	4481                	li	s1,0
    1dca:	01940a93          	addi	s5,s0,25
    1dce:	5b7d                	li	s6,-1
    1dd0:	b7f5                	j	1dbc <_printf_i+0x262>

00001dd2 <_read_r>:
_read_r():
    1dd2:	1141                	addi	sp,sp,-16
    1dd4:	c422                	sw	s0,8(sp)
    1dd6:	842a                	mv	s0,a0
    1dd8:	852e                	mv	a0,a1
    1dda:	85b2                	mv	a1,a2
    1ddc:	8636                	mv	a2,a3
    1dde:	8201a223          	sw	zero,-2012(gp) # 20000784 <errno>
    1de2:	c606                	sw	ra,12(sp)
    1de4:	20a1                	jal	1e2c <_read>
    1de6:	57fd                	li	a5,-1
    1de8:	00f51663          	bne	a0,a5,1df4 <_read_r+0x22>
    1dec:	8241a783          	lw	a5,-2012(gp) # 20000784 <errno>
    1df0:	c391                	beqz	a5,1df4 <_read_r+0x22>
    1df2:	c01c                	sw	a5,0(s0)
    1df4:	40b2                	lw	ra,12(sp)
    1df6:	4422                	lw	s0,8(sp)
    1df8:	0141                	addi	sp,sp,16
    1dfa:	8082                	ret

00001dfc <_close>:
_close():
    1dfc:	05800793          	li	a5,88
    1e00:	82f1a223          	sw	a5,-2012(gp) # 20000784 <errno>
    1e04:	557d                	li	a0,-1
    1e06:	8082                	ret

00001e08 <_fstat>:
_fstat():
    1e08:	05800793          	li	a5,88
    1e0c:	82f1a223          	sw	a5,-2012(gp) # 20000784 <errno>
    1e10:	557d                	li	a0,-1
    1e12:	8082                	ret

00001e14 <_isatty>:
_isatty():
    1e14:	05800793          	li	a5,88
    1e18:	82f1a223          	sw	a5,-2012(gp) # 20000784 <errno>
    1e1c:	4501                	li	a0,0
    1e1e:	8082                	ret

00001e20 <_lseek>:
_lseek():
    1e20:	05800793          	li	a5,88
    1e24:	82f1a223          	sw	a5,-2012(gp) # 20000784 <errno>
    1e28:	557d                	li	a0,-1
    1e2a:	8082                	ret

00001e2c <_read>:
_read():
    1e2c:	05800793          	li	a5,88
    1e30:	82f1a223          	sw	a5,-2012(gp) # 20000784 <errno>
    1e34:	557d                	li	a0,-1
    1e36:	8082                	ret
    1e38:	3431                	jal	1844 <_vfiprintf_r+0x260>
    1e3a:	303a                	lhu	a4,34(s0)
    1e3c:	3a31                	jal	1758 <_vfiprintf_r+0x174>
    1e3e:	3230                	lbu	a2,3(a2)
    1e40:	0000                	unimp
    1e42:	0000                	unimp
    1e44:	7041                	c.lui	zero,0xffff0
    1e46:	2072                	lhu	a2,6(s0)
    1e48:	3120                	lbu	s0,3(a0)
    1e4a:	3220                	lbu	s0,3(a2)
    1e4c:	3230                	lbu	a2,3(a2)
    1e4e:	0035                	c.nop	13
    1e50:	72617453          	.4byte	0x72617453
    1e54:	2074                	lbu	a3,6(s0)
    1e56:	4340                	lw	s0,4(a4)
    1e58:	6968                	.2byte	0x6968
    1e5a:	4970                	lw	a2,84(a0)
    1e5c:	3d44                	lbu	s1,29(a0)
    1e5e:	3025                	jal	1686 <_vfiprintf_r+0xa2>
    1e60:	5832                	lw	a6,44(sp)
    1e62:	2520                	lbu	s0,10(a0)
    1e64:	73252073          	csrs	0x732,a0
    1e68:	0a0d                	addi	s4,s4,3
    1e6a:	0000                	unimp
    1e6c:	4e49                	li	t3,18
    1e6e:	45440043          	.4byte	0x45440043
    1e72:	ea620043          	.4byte	0xea620043
    1e76:	ffff                	.2byte	0xffff
    1e78:	ea7a                	.2byte	0xea7a
    1e7a:	ffff                	.2byte	0xffff
    1e7c:	ea9e                	.2byte	0xea9e
    1e7e:	ffff                	.2byte	0xffff
    1e80:	eaa8                	.2byte	0xeaa8
    1e82:	ffff                	.2byte	0xffff
    1e84:	eabe                	.2byte	0xeabe
    1e86:	ffff                	.2byte	0xffff

00001e88 <__sf_fake_stderr>:
	...

00001ea8 <__sf_fake_stdout>:
	...

00001ec8 <__sf_fake_stdin>:
	...
    1ee8:	2d23 2b30 0020 0000 6c68 004c 6665 4567     #-0+ ...hlL.efgE
    1ef8:	4746 0000 3130 3332 3534 3736 3938 4241     FG..0123456789AB
    1f08:	4443 4645 0000 0000 3130 3332 3534 3736     CDEF....01234567
    1f18:	3938 6261 6463 6665 0000 0000 fca6 ffff     89abcdef........
    1f28:	fcbc ffff fc7c ffff fc7c ffff fc7c ffff     ....|...|...|...
    1f38:	fc7c ffff fcbc ffff fc7c ffff fc7c ffff     |.......|...|...
    1f48:	fc7c ffff fc7c ffff fe18 ffff fd20 ffff     |...|....... ...
    1f58:	fdb2 ffff fc7c ffff fc7c ffff fe46 ffff     ....|...|...F...
    1f68:	fc7c ffff fd20 ffff fc7c ffff fc7c ffff     |... ...|...|...
    1f78:	fdba ffff                                   ....

Disassembly of section .vector_handler:

00001f7c <BB_IRQHandler>:
ENDOCE_IRQHandler():
F:/private/nanoCH57x-private/doc/CH572EVT/EVT/EXAM/SRC/Startup/startup_CH572.S:111
	j 1b
    1f7c:	a001                	j	1f7c <BB_IRQHandler>
