
PM.elf:     file format elf32-littleriscv
PM.elf
architecture: riscv:rv32, flags 0x00000112:
EXEC_P, HAS_SYMS, D_PAGED
start address 0x00000000

Program Header:
0x70000003 off    0x0000fe81 vaddr 0x00000000 paddr 0x00000000 align 2**0
         filesz 0x00000051 memsz 0x00000000 flags r--
    LOAD off    0x00001000 vaddr 0x00000000 paddr 0x00000000 align 2**12
         filesz 0x00000004 memsz 0x00000004 flags r-x
    LOAD off    0x00002000 vaddr 0x20000000 paddr 0x00000004 align 2**12
         filesz 0x00000a80 memsz 0x00000a80 flags r-x
    LOAD off    0x00002a84 vaddr 0x00000a84 paddr 0x00000a84 align 2**12
         filesz 0x00001b1e memsz 0x00001b20 flags rwx
    LOAD off    0x00004a80 vaddr 0x20000a80 paddr 0x000025a4 align 2**12
         filesz 0x0000006c memsz 0x00000088 flags rw-

Sections:
Idx Name                 Size      VMA       LMA       File off  Algn  Flags
  0 .init                00000004  00000000  00000000  00001000  2**1  CONTENTS, ALLOC, LOAD, READONLY, CODE
  1 .highcode_initlalign 00000000  00000004  00000004  00004aec  2**0  CONTENTS
  2 .highcodelalign      00000000  00000004  00000004  00004aec  2**0  CONTENTS
  3 .highcode            00000a80  20000000  00000004  00002000  2**1  CONTENTS, ALLOC, LOAD, READONLY, CODE
  4 .text                00001b1c  00000a84  00000a84  00002a84  2**2  CONTENTS, ALLOC, LOAD, READONLY, CODE
  5 .vector_handler      00000002  000025a0  000025a0  000045a0  2**0  CONTENTS, ALLOC, LOAD, READONLY, CODE
  6 .fini                00000002  000025a2  000025a2  000045a2  2**0  ALLOC, CODE
  7 .dlalign             00000000  000025a4  000025a4  00004aec  2**0  CONTENTS
  8 .data                0000006c  20000a80  000025a4  00004a80  2**2  CONTENTS, ALLOC, LOAD, DATA
  9 .bss                 0000001c  20000aec  00002610  00004aec  2**2  ALLOC
 10 .stack               00000000  20003000  20003000  00004aec  2**0  CONTENTS
 11 .debug_info          00003575  00000000  00000000  00004aec  2**0  CONTENTS, READONLY, DEBUGGING, OCTETS
 12 .debug_abbrev        00000ebb  00000000  00000000  00008061  2**0  CONTENTS, READONLY, DEBUGGING, OCTETS
 13 .debug_loclists      00001122  00000000  00000000  00008f1c  2**0  CONTENTS, READONLY, DEBUGGING, OCTETS
 14 .debug_aranges       00000250  00000000  00000000  0000a040  2**3  CONTENTS, READONLY, DEBUGGING, OCTETS
 15 .debug_rnglists      00000360  00000000  00000000  0000a290  2**0  CONTENTS, READONLY, DEBUGGING, OCTETS
 16 .debug_line          000043f3  00000000  00000000  0000a5f0  2**0  CONTENTS, READONLY, DEBUGGING, OCTETS
 17 .debug_str           00000f17  00000000  00000000  0000e9e3  2**0  CONTENTS, READONLY, DEBUGGING, OCTETS
 18 .debug_line_str      00000523  00000000  00000000  0000f8fa  2**0  CONTENTS, READONLY, DEBUGGING, OCTETS
 19 .comment             00000064  00000000  00000000  0000fe1d  2**0  CONTENTS, READONLY
 20 .riscv.attributes    00000051  00000000  00000000  0000fe81  2**0  CONTENTS, READONLY
 21 .debug_frame         000004f8  00000000  00000000  0000fed4  2**2  CONTENTS, READONLY, DEBUGGING, OCTETS
SYMBOL TABLE:
00000000 l    d  .init	00000000 .init
00000004 l    d  .highcode_initlalign	00000000 .highcode_initlalign
00000004 l    d  .highcodelalign	00000000 .highcodelalign
20000000 l    d  .highcode	00000000 .highcode
00000a84 l    d  .text	00000000 .text
000025a0 l    d  .vector_handler	00000000 .vector_handler
000025a2 l    d  .fini	00000000 .fini
000025a4 l    d  .dlalign	00000000 .dlalign
20000a80 l    d  .data	00000000 .data
20000aec l    d  .bss	00000000 .bss
20003000 l    d  .stack	00000000 .stack
00000000 l    d  .debug_info	00000000 .debug_info
00000000 l    d  .debug_abbrev	00000000 .debug_abbrev
00000000 l    d  .debug_loclists	00000000 .debug_loclists
00000000 l    d  .debug_aranges	00000000 .debug_aranges
00000000 l    d  .debug_rnglists	00000000 .debug_rnglists
00000000 l    d  .debug_line	00000000 .debug_line
00000000 l    d  .debug_str	00000000 .debug_str
00000000 l    d  .debug_line_str	00000000 .debug_line_str
00000000 l    d  .comment	00000000 .comment
00000000 l    d  .riscv.attributes	00000000 .riscv.attributes
00000000 l    d  .debug_frame	00000000 .debug_frame
00000000 l    df *ABS*	00000000 startup_CH572.o
000025a0 l       .vector_handler	00000000 ENDOCE_IRQHandler
00000000 l    df *ABS*	00000000 Main.c
00000000 l    df *ABS*	00000000 CH57x_pwr.c
00000000 l    df *ABS*	00000000 CH57x_sys.c
20000ae0 l     O .data	00000004 curbrk.0
00000000 l    df *ABS*	00000000 ISP572.c
200007b4 l       .highcode	00000000 .loop52
200007c2 l       .highcode	00000000 .loop63
200007d0 l       .highcode	00000000 .loop74
200008d0 l       .highcode	00000000 .loop247
00000000 l    df *ABS*	00000000 lib_a-memset.o
00000000 l    df *ABS*	00000000 CH57x_clk.c
00000000 l    df *ABS*	00000000 CH57x_gpio.c
00000000 l    df *ABS*	00000000 CH57x_uart.c
00000000 l    df *ABS*	00000000 lib_a-printf.o
00000000 l    df *ABS*	00000000 lib_a-puts.o
00000000 l    df *ABS*	00000000 lib_a-wbuf.o
00000000 l    df *ABS*	00000000 lib_a-wsetup.o
00000000 l    df *ABS*	00000000 lib_a-fflush.o
00000000 l    df *ABS*	00000000 lib_a-findfp.o
00001642 l     F .text	00000066 std
00000000 l    df *ABS*	00000000 lib_a-fwalk.o
00000000 l    df *ABS*	00000000 lib_a-lock.o
00000000 l    df *ABS*	00000000 lib_a-makebuf.o
00000000 l    df *ABS*	00000000 lib_a-nano-freer.o
00000000 l    df *ABS*	00000000 lib_a-nano-mallocr.o
00001a14 l     F .text	00000054 sbrk_aligned
00000000 l    df *ABS*	00000000 lib_a-nano-vfprintf.o
00001b6a l     F .text	00000028 __sfputc_r
00000000 l    df *ABS*	00000000 lib_a-sbrkr.o
00000000 l    df *ABS*	00000000 lib_a-stdio.o
00000000 l    df *ABS*	00000000 lib_a-writer.o
00000000 l    df *ABS*	00000000 lib_a-closer.o
00000000 l    df *ABS*	00000000 lib_a-fstatr.o
00000000 l    df *ABS*	00000000 lib_a-isattyr.o
00000000 l    df *ABS*	00000000 lib_a-lseekr.o
00000000 l    df *ABS*	00000000 lib_a-memchr.o
00000000 l    df *ABS*	00000000 lib_a-mlock.o
00000000 l    df *ABS*	00000000 lib_a-nano-vfprintf_i.o
00000000 l    df *ABS*	00000000 lib_a-readr.o
00000000 l    df *ABS*	00000000 close.o
00000000 l    df *ABS*	00000000 fstat.o
00000000 l    df *ABS*	00000000 isatty.o
00000000 l    df *ABS*	00000000 lseek.o
00000000 l    df *ABS*	00000000 read.o
00000000 l    df *ABS*	00000000 lib_a-impure.o
20000a80 l     O .data	00000060 impure_data
00001fc6 g     F .text	00000026 _isatty_r
000011cc g     F .text	00000104 _puts_r
00001fec g     F .text	0000002a _lseek_r
200007d0 g     F .highcode	0000000e FLASH_ROM_OUT
000025a0  w      .vector_handler	00000000 CMP_IRQHandler
0000118e g     F .text	0000003e printf
200012e0 g       .data	00000000 __global_pointer$
00001f18 g     F .text	0000002e __sseek
00001710 g     F .text	00000068 __sinit
000012dc g     F .text	000000bc __swbuf_r
20000740 g     F .highcode	0000000e mDelayuS
200006bc  w    F .highcode	00000084 HardFault_Handler
000016b2 g     F .text	00000046 __sfmoreglue
00002036 g     F .text	00000008 __malloc_unlock
20000090 g     F .highcode	00000010 GPIOA_IRQHandler
000025a0  w      .vector_handler	00000000 SysTick_Handler
000025a0  w      .vector_handler	00000000 NMI_Handler
000025a0  w      .vector_handler	00000000 UART_IRQHandler
20000208 g     F .highcode	00000112 LowPower_Sleep
00001f9e g     F .text	00000028 _fstat_r
20000b04 g     O .bss	00000004 errno
20000894 g     F .highcode	00000060 FLASH_CMD_ROM_WRITE
20000aec g       .bss	00000000 _sbss
200007c2 g     F .highcode	0000000e FLASH_ROM_IN
00000ffe g     F .text	00000032 UART_DefInit
00000cfa g     F .text	00000050 HSECFG_Capacitance
00000dcc g     F .text	00000074 GPIOA_ITModeCfg
000016a8 g     F .text	0000000a _cleanup_r
000012d0 g     F .text	0000000c puts
000025a0  w      .vector_handler	00000000 SWI_Handler
000023f6 g     F .text	0000000c _fstat
00000004 g       .init	00000000 _einit
000025a0  w      .vector_handler	00000000 BB_IRQHandler
00001058 g     F .text	00000136 FLASH_EEPROM_CMD
000025a0  w      .vector_handler	00000000 Break_Point_Handler
2000085e g     F .highcode	00000036 FLASH_START
00001e80 g     F .text	00000028 _sbrk_r
000023c0 g     F .text	0000002a _read_r
200007a0 g     F .highcode	00000014 FLASH_ROM_BEG
200008f4 g     F .highcode	00000072 FLASH_CMD_ROM_ERASE
2000074e g     F .highcode	0000001e mDelaymS
000025a0  w      .vector_handler	00000000 Ecall_M_Mode_Handler
00002402 g     F .text	0000000c _isatty
20000af8 g     O .bss	00000001 __lock___sinit_recursive_mutex
20000ae8 g     O .data	00000004 _global_impure_ptr
200007de g     F .highcode	00000048 FLASH_ROM_ADDR
00000fa6 g     F .text	00000028 _sbrk
000025a0  w      .vector_handler	00000000 RTC_IRQHandler
20000b08 g       .bss	00000000 _ebss
000025a0  w      .vector_handler	00000000 SPI_IRQHandler
20000af0 g     O .bss	00000001 __lock___malloc_recursive_mutex
20000826 g     F .highcode	00000038 FLASH_ROM_WAIT
00001030 g     F .text	00000028 UART_Remap
000024ac g     O .text	00000020 __sf_fake_stderr
20000000 g       .highcode	00000000 _vector_base
0000188a g     F .text	00000002 __retarget_lock_release_recursive
000025a0  w      .vector_handler	00000000 PWMX_IRQHandler
00001b92 g     F .text	00000040 __sfputs_r
000016f8 g     F .text	00000006 __sfp_lock_acquire
00002016 g     F .text	00000018 memchr
00001976 g     F .text	0000009e _free_r
00000b46 g     F .text	00000028 DebugInit
00000000 g       .init	00000000 _start
0000240e g     F .text	0000000c _lseek
20000000 g       .highcode	00000000 _highcode_vma_start
200000e0 g     F .highcode	00000128 LowPower_Halt
00000e40 g     F .text	000000e6 PWR_PeriphWakeUpCfg
00001f78 g     F .text	00000026 _close_r
000025a0  w      .vector_handler	00000000 KEYSCAN_IRQHandler
20000a80 g       .data	00000000 _data_vma
2000047c g     F .highcode	00000240 SetSysClock
000025a0  w      .vector_handler	00000000 USB_IRQHandler
00001398 g     F .text	000000f2 __swsetup_r
20000a28 g     F .highcode	0000003e FLASH_CMD_GET_UNIQUE_ID
00001778 g     F .text	000000a6 __sfp
200009b6 g     F .highcode	00000012 FLASH_CMD_ROM_PWR
0000170a g     F .text	00000006 __sinit_lock_release
00001ea8 g     F .text	0000002a __sread
0000202e g     F .text	00000008 __malloc_lock
000015bc g     F .text	00000086 _fflush_r
000024ec g     O .text	00000020 __sf_fake_stdin
00001888 g     F .text	00000002 __retarget_lock_acquire_recursive
000025a0  w      .vector_handler	00000000 I2C_IRQHandler
00000b36 g     F .text	00000010 memset
00000b6e g     F .text	0000013e main
00001886 g     F .text	00000002 __retarget_lock_init_recursive
00001f46 g     F .text	00000006 __sclose
00001a68 g     F .text	00000102 _malloc_r
00000004 g       .highcodelalign	00000000 _highcode_lma
0000118e g     F .text	0000003e iprintf
00000cac g     F .text	0000004e HSECFG_Current
000025a0  w      .vector_handler	00000000 LLE_IRQHandler
00000000 g       .init	00000000 _sinit
00001f4c g     F .text	0000002c _write_r
20000a66 g     F .highcode	0000001a FLASH_CMD_ROM_SW_RESET
000025a0  w      .vector_handler	00000000 TMR_IRQHandler
0000203e g     F .text	0000010a _printf_common
20000ae4 g     O .data	00000004 _impure_ptr
0000148a g     F .text	00000132 __sflush_r
20000aec g     O .bss	00000004 Freq_LSI
000025a0  w      .vector_handler	00000000 WDOG_BAT_IRQHandler
000025a0  w      .vector_handler	00000000 Ecall_U_Mode_Handler
20003000 g       .stack	00000000 _eusrstack
00000d4a g     F .text	00000082 GPIOA_ModeCfg
0000188c g     F .text	00000058 __swhatbuf_r
00000f26 g     F .text	0000005a GetSysClock
2000076c g     F .highcode	00000034 FLASH_ROM_BEG_FF
200009c8 g     F .highcode	00000060 FLASH_CMD_GET_ROM_INFO
00000f80 g     F .text	00000026 _write
20000aec g       .data	00000000 _edata
20000b08 g       .bss	00000000 _end
20000a80 g       .highcode	00000000 _highcode_vma_end
000025a4 g       .dlalign	00000000 _data_lma
00001ed2 g     F .text	00000046 __swrite
00001bd2 g     F .text	000002ae _vfiprintf_r
0000181e g     F .text	00000068 _fwalk_reent
000016fe g     F .text	00000006 __sfp_lock_release
000024cc g     O .text	00000020 __sf_fake_stdout
0000241a g     F .text	0000000c _read
00000a84  w      .text	00000000 handle_reset
2000031a g     F .highcode	00000162 LowPower_Shutdown
000018e4 g     F .text	00000092 __smakebuf_r
00002148 g     F .text	00000278 _printf_i
20000afc g     O .bss	00000004 __malloc_sbrk_start
00000fce g     F .text	00000030 UART_BaudRateCfg
200007b4 g     F .highcode	0000000e FLASH_ROM_END
20000b00 g     O .bss	00000004 __malloc_free_list
200000a0 g     F .highcode	00000040 LowPower_Idle
00001bd2 g     F .text	000002ae _vfprintf_r
20000966 g     F .highcode	00000050 FLASH_CMD_ROM_VERIFY
20000af4 g     O .bss	00000001 __lock___sfp_recursive_mutex
000023ea g     F .text	0000000c _close
00001704 g     F .text	00000006 __sinit_lock_acquire



Disassembly of section .init:

00000000 <_sinit>:
_start():
F:/private/nanoCH57x-private/doc/CH572EVT/EVT/EXAM/SRC/Startup/startup_CH572.S:18
	.section	.init,"ax",@progbits
	.global	_start
 	.global	_vector_base
	.align	1
_start:
	j	handle_reset
   0:	2850006f          	j	a84 <handle_reset>

Disassembly of section .highcode:

20000000 <_highcode_vma_start>:
	...
_vector_base():
20000008:	000025a0          	.word	0x000025a0
2000000c:	200006bc          	.word	0x200006bc
20000010:	f3f9bda9          	.word	0xf3f9bda9
20000014:	000025a0          	.word	0x000025a0
	...
20000020:	000025a0          	.word	0x000025a0
20000024:	000025a0          	.word	0x000025a0
	...
20000030:	000025a0          	.word	0x000025a0
20000034:	00000000          	.word	0x00000000
20000038:	000025a0          	.word	0x000025a0
	...
20000044:	20000090          	.word	0x20000090
20000048:	00000000          	.word	0x00000000
2000004c:	000025a0          	.word	0x000025a0
20000050:	000025a0          	.word	0x000025a0
20000054:	000025a0          	.word	0x000025a0
20000058:	000025a0          	.word	0x000025a0
2000005c:	00000000          	.word	0x00000000
20000060:	000025a0          	.word	0x000025a0
	...
2000006c:	000025a0          	.word	0x000025a0
20000070:	000025a0          	.word	0x000025a0
20000074:	000025a0          	.word	0x000025a0
20000078:	000025a0          	.word	0x000025a0
2000007c:	000025a0          	.word	0x000025a0
20000080:	00000000          	.word	0x00000000
20000084:	000025a0          	.word	0x000025a0
20000088:	00000000          	.word	0x00000000
2000008c:	000025a0          	.word	0x000025a0

20000090 <GPIOA_IRQHandler>:
GPIOA_IRQHandler():
F:\private\nanoCH57x-private\doc\CH572EVT\EVT\EXAM\PM\obj/../src/Main.c:116
 */
__INTERRUPT
__HIGH_CODE
void GPIOA_IRQHandler(void)
{
    GPIOA_ClearITFlagBit(GPIO_Pin_5);
20000090:	400017b7          	lui	a5,0x40001
20000094:	02000713          	li	a4,32
20000098:	08e79e23          	sh	a4,156(a5) # 4000109c <_eusrstack+0x1fffe09c>
F:\private\nanoCH57x-private\doc\CH572EVT\EVT\EXAM\PM\obj/../src/Main.c:117
}
2000009c:	30200073          	mret

200000a0 <LowPower_Idle>:
LowPower_Idle():
F:/private/nanoCH57x-private/doc/CH572EVT/EVT/EXAM/SRC/StdPeriphDriver/CH57x_pwr.c:130
 *
 * @return  none
 */
__HIGH_CODE
void LowPower_Idle(void)
{
200000a0:	1141                	addi	sp,sp,-16
F:/private/nanoCH57x-private/doc/CH572EVT/EVT/EXAM/SRC/StdPeriphDriver/CH57x_pwr.c:131
    FLASH_ROM_SW_RESET();
200000a2:	4681                	li	a3,0
200000a4:	4601                	li	a2,0
200000a6:	4581                	li	a1,0
200000a8:	4511                	li	a0,4
F:/private/nanoCH57x-private/doc/CH572EVT/EVT/EXAM/SRC/StdPeriphDriver/CH57x_pwr.c:130
{
200000aa:	c606                	sw	ra,12(sp)
F:/private/nanoCH57x-private/doc/CH572EVT/EVT/EXAM/SRC/StdPeriphDriver/CH57x_pwr.c:131
    FLASH_ROM_SW_RESET();
200000ac:	e0001097          	auipc	ra,0xe0001
200000b0:	fac080e7          	jalr	-84(ra) # 1058 <FLASH_EEPROM_CMD>
F:/private/nanoCH57x-private/doc/CH572EVT/EVT/EXAM/SRC/StdPeriphDriver/CH57x_pwr.c:132
    R8_FLASH_CTRL = 0x04; //flash关闭
200000b4:	400027b7          	lui	a5,0x40002
200000b8:	4711                	li	a4,4
200000ba:	80e78323          	sb	a4,-2042(a5) # 40001806 <_eusrstack+0x1fffe806>
F:/private/nanoCH57x-private/doc/CH572EVT/EVT/EXAM/SRC/StdPeriphDriver/CH57x_pwr.c:134

    PFIC->SCTLR &= ~(1 << 2); // sleep
200000be:	e000f7b7          	lui	a5,0xe000f
200000c2:	d0078793          	addi	a5,a5,-768 # e000ed00 <_eusrstack+0xc000bd00>
200000c6:	4b98                	lw	a4,16(a5)
200000c8:	9b6d                	andi	a4,a4,-5
200000ca:	cb98                	sw	a4,16(a5)
__WFI():
F:\private\nanoCH57x-private\doc\CH572EVT\EVT\EXAM\SRC\RVMSIS/core_riscv.h:348
 *
 * @brief   Wait for Interrupt
 */
__attribute__((always_inline)) RV_STATIC_INLINE void __WFI(void)
{
    PFIC->SCTLR &= ~(1 << 3); // wfi
200000cc:	4b98                	lw	a4,16(a5)
200000ce:	9b5d                	andi	a4,a4,-9
200000d0:	cb98                	sw	a4,16(a5)
F:\private\nanoCH57x-private\doc\CH572EVT\EVT\EXAM\SRC\RVMSIS/core_riscv.h:349
    __asm__ volatile("wfi");
200000d2:	10500073          	wfi
LowPower_Idle():
F:/private/nanoCH57x-private/doc/CH572EVT/EVT/EXAM/SRC/StdPeriphDriver/CH57x_pwr.c:136
    __WFI();
    __nop();
200000d6:	0001                	nop
F:/private/nanoCH57x-private/doc/CH572EVT/EVT/EXAM/SRC/StdPeriphDriver/CH57x_pwr.c:137
    __nop();
200000d8:	0001                	nop
F:/private/nanoCH57x-private/doc/CH572EVT/EVT/EXAM/SRC/StdPeriphDriver/CH57x_pwr.c:138
}
200000da:	40b2                	lw	ra,12(sp)
200000dc:	0141                	addi	sp,sp,16
200000de:	8082                	ret

200000e0 <LowPower_Halt>:
LowPower_Halt():
F:/private/nanoCH57x-private/doc/CH572EVT/EVT/EXAM/SRC/StdPeriphDriver/CH57x_pwr.c:151
 *
 * @return  none
 */
__HIGH_CODE
void LowPower_Halt(void)
{
200000e0:	1101                	addi	sp,sp,-32
F:/private/nanoCH57x-private/doc/CH572EVT/EVT/EXAM/SRC/StdPeriphDriver/CH57x_pwr.c:154
    uint8_t x32Mpw;

    FLASH_ROM_SW_RESET();
200000e2:	4681                	li	a3,0
200000e4:	4601                	li	a2,0
200000e6:	4581                	li	a1,0
200000e8:	4511                	li	a0,4
F:/private/nanoCH57x-private/doc/CH572EVT/EVT/EXAM/SRC/StdPeriphDriver/CH57x_pwr.c:151
{
200000ea:	ce06                	sw	ra,28(sp)
F:/private/nanoCH57x-private/doc/CH572EVT/EVT/EXAM/SRC/StdPeriphDriver/CH57x_pwr.c:154
    FLASH_ROM_SW_RESET();
200000ec:	e0001097          	auipc	ra,0xe0001
200000f0:	f6c080e7          	jalr	-148(ra) # 1058 <FLASH_EEPROM_CMD>
F:/private/nanoCH57x-private/doc/CH572EVT/EVT/EXAM/SRC/StdPeriphDriver/CH57x_pwr.c:155
    R8_FLASH_CTRL = 0x04; //flash关闭
200000f4:	400027b7          	lui	a5,0x40002
200000f8:	4711                	li	a4,4
200000fa:	80e78323          	sb	a4,-2042(a5) # 40001806 <_eusrstack+0x1fffe806>
F:/private/nanoCH57x-private/doc/CH572EVT/EVT/EXAM/SRC/StdPeriphDriver/CH57x_pwr.c:156
    x32Mpw = R8_XT32M_TUNE;
200000fe:	400017b7          	lui	a5,0x40001
20000102:	04e7c683          	lbu	a3,78(a5) # 4000104e <_eusrstack+0x1fffe04e>
F:/private/nanoCH57x-private/doc/CH572EVT/EVT/EXAM/SRC/StdPeriphDriver/CH57x_pwr.c:157
    if(!(R8_HFCK_PWR_CTRL&RB_CLK_XT32M_KEEP))
20000106:	27bc                	lbu	a5,10(a5)
F:/private/nanoCH57x-private/doc/CH572EVT/EVT/EXAM/SRC/StdPeriphDriver/CH57x_pwr.c:156
    x32Mpw = R8_XT32M_TUNE;
20000108:	0ff6f693          	zext.b	a3,a3
F:/private/nanoCH57x-private/doc/CH572EVT/EVT/EXAM/SRC/StdPeriphDriver/CH57x_pwr.c:157
    if(!(R8_HFCK_PWR_CTRL&RB_CLK_XT32M_KEEP))
2000010c:	8ba1                	andi	a5,a5,8
2000010e:	e399                	bnez	a5,20000114 <LowPower_Halt+0x34>
F:/private/nanoCH57x-private/doc/CH572EVT/EVT/EXAM/SRC/StdPeriphDriver/CH57x_pwr.c:159
    {
        x32Mpw = (x32Mpw & 0xfc) | 0x03; // 150%额定电流
20000110:	0036e693          	ori	a3,a3,3
__risc_v_disable_irq():
F:\private\nanoCH57x-private\doc\CH572EVT\EVT\EXAM\SRC\RVMSIS/core_riscv.h:154
    __asm volatile("csrrc %0, 0x800, %1" : \
20000114:	08800713          	li	a4,136
20000118:	800737f3          	csrrc	a5,0x800,a4
F:\private\nanoCH57x-private\doc\CH572EVT\EVT\EXAM\SRC\RVMSIS/core_riscv.h:156
    return result & 0x88;
2000011c:	0887f793          	andi	a5,a5,136
LowPower_Halt():
F:/private/nanoCH57x-private/doc/CH572EVT/EVT/EXAM/SRC/StdPeriphDriver/CH57x_pwr.c:162
    }

    sys_safe_access_enable();
20000120:	c03e                	sw	a5,0(sp)
20000122:	0000100f          	fence.i
20000126:	400017b7          	lui	a5,0x40001
2000012a:	05700593          	li	a1,87
2000012e:	04b78023          	sb	a1,64(a5) # 40001040 <_eusrstack+0x1fffe040>
20000132:	fa800613          	li	a2,-88
20000136:	04c78023          	sb	a2,64(a5)
2000013a:	0000100f          	fence.i
F:/private/nanoCH57x-private/doc/CH572EVT/EVT/EXAM/SRC/StdPeriphDriver/CH57x_pwr.c:163
    R8_BAT_DET_CTRL = 0; // 关闭电压监控
2000013e:	02078223          	sb	zero,36(a5)
F:/private/nanoCH57x-private/doc/CH572EVT/EVT/EXAM/SRC/StdPeriphDriver/CH57x_pwr.c:164
    sys_safe_access_disable();
20000142:	04078023          	sb	zero,64(a5)
20000146:	4502                	lw	a0,0(sp)
__risc_v_enable_irq():
F:\private\nanoCH57x-private\doc\CH572EVT\EVT\EXAM\SRC\RVMSIS/core_riscv.h:138
    __asm volatile("csrrs %0, 0x800, %1" : \
20000148:	80052573          	csrrs	a0,0x800,a0
LowPower_Halt():
F:/private/nanoCH57x-private/doc/CH572EVT/EVT/EXAM/SRC/StdPeriphDriver/CH57x_pwr.c:164
2000014c:	0000100f          	fence.i
__risc_v_disable_irq():
F:\private\nanoCH57x-private\doc\CH572EVT\EVT\EXAM\SRC\RVMSIS/core_riscv.h:154
    __asm volatile("csrrc %0, 0x800, %1" : \
20000150:	80073573          	csrrc	a0,0x800,a4
F:\private\nanoCH57x-private\doc\CH572EVT\EVT\EXAM\SRC\RVMSIS/core_riscv.h:156
    return result & 0x88;
20000154:	08857513          	andi	a0,a0,136
LowPower_Halt():
F:/private/nanoCH57x-private/doc/CH572EVT/EVT/EXAM/SRC/StdPeriphDriver/CH57x_pwr.c:165
    sys_safe_access_enable();
20000158:	c22a                	sw	a0,4(sp)
2000015a:	0000100f          	fence.i
2000015e:	04b78023          	sb	a1,64(a5)
20000162:	04c78023          	sb	a2,64(a5)
20000166:	0000100f          	fence.i
F:/private/nanoCH57x-private/doc/CH572EVT/EVT/EXAM/SRC/StdPeriphDriver/CH57x_pwr.c:166
    R8_XT32M_TUNE = x32Mpw;
2000016a:	04d78723          	sb	a3,78(a5)
F:/private/nanoCH57x-private/doc/CH572EVT/EVT/EXAM/SRC/StdPeriphDriver/CH57x_pwr.c:167
    sys_safe_access_disable();
2000016e:	04078023          	sb	zero,64(a5)
20000172:	4692                	lw	a3,4(sp)
__risc_v_enable_irq():
F:\private\nanoCH57x-private\doc\CH572EVT\EVT\EXAM\SRC\RVMSIS/core_riscv.h:138
    __asm volatile("csrrs %0, 0x800, %1" : \
20000174:	8006a6f3          	csrrs	a3,0x800,a3
LowPower_Halt():
F:/private/nanoCH57x-private/doc/CH572EVT/EVT/EXAM/SRC/StdPeriphDriver/CH57x_pwr.c:167
20000178:	0000100f          	fence.i
__risc_v_disable_irq():
F:\private\nanoCH57x-private\doc\CH572EVT\EVT\EXAM\SRC\RVMSIS/core_riscv.h:154
    __asm volatile("csrrc %0, 0x800, %1" : \
2000017c:	800736f3          	csrrc	a3,0x800,a4
F:\private\nanoCH57x-private\doc\CH572EVT\EVT\EXAM\SRC\RVMSIS/core_riscv.h:156
    return result & 0x88;
20000180:	0886f693          	andi	a3,a3,136
LowPower_Halt():
F:/private/nanoCH57x-private/doc/CH572EVT/EVT/EXAM/SRC/StdPeriphDriver/CH57x_pwr.c:168
    sys_safe_access_enable();
20000184:	c436                	sw	a3,8(sp)
20000186:	0000100f          	fence.i
2000018a:	04b78023          	sb	a1,64(a5)
2000018e:	04c78023          	sb	a2,64(a5)
20000192:	0000100f          	fence.i
F:/private/nanoCH57x-private/doc/CH572EVT/EVT/EXAM/SRC/StdPeriphDriver/CH57x_pwr.c:169
    R8_PLL_CONFIG |= (1 << 5);
20000196:	04b7c683          	lbu	a3,75(a5)
2000019a:	0206e693          	ori	a3,a3,32
2000019e:	04d785a3          	sb	a3,75(a5)
F:/private/nanoCH57x-private/doc/CH572EVT/EVT/EXAM/SRC/StdPeriphDriver/CH57x_pwr.c:170
    sys_safe_access_disable();
200001a2:	04078023          	sb	zero,64(a5)
200001a6:	46a2                	lw	a3,8(sp)
__risc_v_enable_irq():
F:\private\nanoCH57x-private\doc\CH572EVT\EVT\EXAM\SRC\RVMSIS/core_riscv.h:138
    __asm volatile("csrrs %0, 0x800, %1" : \
200001a8:	8006a6f3          	csrrs	a3,0x800,a3
LowPower_Halt():
F:/private/nanoCH57x-private/doc/CH572EVT/EVT/EXAM/SRC/StdPeriphDriver/CH57x_pwr.c:170
200001ac:	0000100f          	fence.i
F:/private/nanoCH57x-private/doc/CH572EVT/EVT/EXAM/SRC/StdPeriphDriver/CH57x_pwr.c:172

    PFIC->SCTLR |= (1 << 2); //deep sleep
200001b0:	e000f6b7          	lui	a3,0xe000f
200001b4:	d0068693          	addi	a3,a3,-768 # e000ed00 <_eusrstack+0xc000bd00>
200001b8:	4a88                	lw	a0,16(a3)
200001ba:	00456513          	ori	a0,a0,4
200001be:	ca88                	sw	a0,16(a3)
__WFI():
F:\private\nanoCH57x-private\doc\CH572EVT\EVT\EXAM\SRC\RVMSIS/core_riscv.h:348
    PFIC->SCTLR &= ~(1 << 3); // wfi
200001c0:	4a88                	lw	a0,16(a3)
200001c2:	995d                	andi	a0,a0,-9
200001c4:	ca88                	sw	a0,16(a3)
F:\private\nanoCH57x-private\doc\CH572EVT\EVT\EXAM\SRC\RVMSIS/core_riscv.h:349
    __asm__ volatile("wfi");
200001c6:	10500073          	wfi
LowPower_Halt():
F:/private/nanoCH57x-private/doc/CH572EVT/EVT/EXAM/SRC/StdPeriphDriver/CH57x_pwr.c:174
    __WFI();
    __nop();
200001ca:	0001                	nop
F:/private/nanoCH57x-private/doc/CH572EVT/EVT/EXAM/SRC/StdPeriphDriver/CH57x_pwr.c:175
    __nop();
200001cc:	0001                	nop
__risc_v_disable_irq():
F:\private\nanoCH57x-private\doc\CH572EVT\EVT\EXAM\SRC\RVMSIS/core_riscv.h:154
    __asm volatile("csrrc %0, 0x800, %1" : \
200001ce:	80073773          	csrrc	a4,0x800,a4
F:\private\nanoCH57x-private\doc\CH572EVT\EVT\EXAM\SRC\RVMSIS/core_riscv.h:156
    return result & 0x88;
200001d2:	08877713          	andi	a4,a4,136
LowPower_Halt():
F:/private/nanoCH57x-private/doc/CH572EVT/EVT/EXAM/SRC/StdPeriphDriver/CH57x_pwr.c:176
    sys_safe_access_enable();
200001d6:	c63a                	sw	a4,12(sp)
200001d8:	0000100f          	fence.i
200001dc:	04b78023          	sb	a1,64(a5)
200001e0:	04c78023          	sb	a2,64(a5)
200001e4:	0000100f          	fence.i
F:/private/nanoCH57x-private/doc/CH572EVT/EVT/EXAM/SRC/StdPeriphDriver/CH57x_pwr.c:177
    R8_PLL_CONFIG &= ~(1 << 5);
200001e8:	04b7c703          	lbu	a4,75(a5)
200001ec:	0df77713          	andi	a4,a4,223
200001f0:	04e785a3          	sb	a4,75(a5)
F:/private/nanoCH57x-private/doc/CH572EVT/EVT/EXAM/SRC/StdPeriphDriver/CH57x_pwr.c:178
    sys_safe_access_disable();
200001f4:	04078023          	sb	zero,64(a5)
200001f8:	47b2                	lw	a5,12(sp)
__risc_v_enable_irq():
F:\private\nanoCH57x-private\doc\CH572EVT\EVT\EXAM\SRC\RVMSIS/core_riscv.h:138
    __asm volatile("csrrs %0, 0x800, %1" : \
200001fa:	8007a7f3          	csrrs	a5,0x800,a5
LowPower_Halt():
F:/private/nanoCH57x-private/doc/CH572EVT/EVT/EXAM/SRC/StdPeriphDriver/CH57x_pwr.c:178
200001fe:	0000100f          	fence.i
F:/private/nanoCH57x-private/doc/CH572EVT/EVT/EXAM/SRC/StdPeriphDriver/CH57x_pwr.c:179
}
20000202:	40f2                	lw	ra,28(sp)
20000204:	6105                	addi	sp,sp,32
20000206:	8082                	ret

20000208 <LowPower_Sleep>:
LowPower_Sleep():
F:/private/nanoCH57x-private/doc/CH572EVT/EVT/EXAM/SRC/StdPeriphDriver/CH57x_pwr.c:199
    uint8_t x32Mpw;
    uint16_t power_plan;
    uint8_t clk_sys_cfg;
    uint16_t hfck_pwr_ctrl;

    clk_sys_cfg = R8_CLK_SYS_CFG;
20000208:	400017b7          	lui	a5,0x40001
2000020c:	2798                	lbu	a4,8(a5)
F:/private/nanoCH57x-private/doc/CH572EVT/EVT/EXAM/SRC/StdPeriphDriver/CH57x_pwr.c:200
    hfck_pwr_ctrl = R8_HFCK_PWR_CTRL;
2000020e:	27b8                	lbu	a4,10(a5)
F:/private/nanoCH57x-private/doc/CH572EVT/EVT/EXAM/SRC/StdPeriphDriver/CH57x_pwr.c:201
    x32Mpw = R8_XT32M_TUNE;
20000210:	04e7c683          	lbu	a3,78(a5) # 4000104e <_eusrstack+0x1fffe04e>
F:/private/nanoCH57x-private/doc/CH572EVT/EVT/EXAM/SRC/StdPeriphDriver/CH57x_pwr.c:193
{
20000214:	1141                	addi	sp,sp,-16
__risc_v_disable_irq():
F:\private\nanoCH57x-private\doc\CH572EVT\EVT\EXAM\SRC\RVMSIS/core_riscv.h:154
    __asm volatile("csrrc %0, 0x800, %1" : \
20000216:	08800713          	li	a4,136
LowPower_Sleep():
F:/private/nanoCH57x-private/doc/CH572EVT/EVT/EXAM/SRC/StdPeriphDriver/CH57x_pwr.c:202
    x32Mpw = (x32Mpw & 0xfc) | 0x03; // 150%额定电流
2000021a:	0036e693          	ori	a3,a3,3
__risc_v_disable_irq():
F:\private\nanoCH57x-private\doc\CH572EVT\EVT\EXAM\SRC\RVMSIS/core_riscv.h:154
2000021e:	80073673          	csrrc	a2,0x800,a4
F:\private\nanoCH57x-private\doc\CH572EVT\EVT\EXAM\SRC\RVMSIS/core_riscv.h:156
    return result & 0x88;
20000222:	08867613          	andi	a2,a2,136
LowPower_Sleep():
F:/private/nanoCH57x-private/doc/CH572EVT/EVT/EXAM/SRC/StdPeriphDriver/CH57x_pwr.c:204

    sys_safe_access_enable();
20000226:	c032                	sw	a2,0(sp)
20000228:	0000100f          	fence.i
2000022c:	05700593          	li	a1,87
20000230:	04b78023          	sb	a1,64(a5)
20000234:	fa800613          	li	a2,-88
20000238:	04c78023          	sb	a2,64(a5)
2000023c:	0000100f          	fence.i
F:/private/nanoCH57x-private/doc/CH572EVT/EVT/EXAM/SRC/StdPeriphDriver/CH57x_pwr.c:205
    R8_BAT_DET_CTRL = 0; // 关闭电压监控
20000240:	02078223          	sb	zero,36(a5)
F:/private/nanoCH57x-private/doc/CH572EVT/EVT/EXAM/SRC/StdPeriphDriver/CH57x_pwr.c:206
    sys_safe_access_disable();
20000244:	04078023          	sb	zero,64(a5)
20000248:	4802                	lw	a6,0(sp)
__risc_v_enable_irq():
F:\private\nanoCH57x-private\doc\CH572EVT\EVT\EXAM\SRC\RVMSIS/core_riscv.h:138
    __asm volatile("csrrs %0, 0x800, %1" : \
2000024a:	80082873          	csrrs	a6,0x800,a6
LowPower_Sleep():
F:/private/nanoCH57x-private/doc/CH572EVT/EVT/EXAM/SRC/StdPeriphDriver/CH57x_pwr.c:206
2000024e:	0000100f          	fence.i
__risc_v_disable_irq():
F:\private\nanoCH57x-private\doc\CH572EVT\EVT\EXAM\SRC\RVMSIS/core_riscv.h:154
    __asm volatile("csrrc %0, 0x800, %1" : \
20000252:	80073873          	csrrc	a6,0x800,a4
F:\private\nanoCH57x-private\doc\CH572EVT\EVT\EXAM\SRC\RVMSIS/core_riscv.h:156
    return result & 0x88;
20000256:	08887813          	andi	a6,a6,136
LowPower_Sleep():
F:/private/nanoCH57x-private/doc/CH572EVT/EVT/EXAM/SRC/StdPeriphDriver/CH57x_pwr.c:207
    sys_safe_access_enable();
2000025a:	c242                	sw	a6,4(sp)
2000025c:	0000100f          	fence.i
20000260:	04b78023          	sb	a1,64(a5)
20000264:	04c78023          	sb	a2,64(a5)
20000268:	0000100f          	fence.i
F:/private/nanoCH57x-private/doc/CH572EVT/EVT/EXAM/SRC/StdPeriphDriver/CH57x_pwr.c:208
    R8_XT32M_TUNE = x32Mpw;
2000026c:	04d78723          	sb	a3,78(a5)
F:/private/nanoCH57x-private/doc/CH572EVT/EVT/EXAM/SRC/StdPeriphDriver/CH57x_pwr.c:209
    sys_safe_access_disable();
20000270:	04078023          	sb	zero,64(a5)
20000274:	4692                	lw	a3,4(sp)
__risc_v_enable_irq():
F:\private\nanoCH57x-private\doc\CH572EVT\EVT\EXAM\SRC\RVMSIS/core_riscv.h:138
    __asm volatile("csrrs %0, 0x800, %1" : \
20000276:	8006a6f3          	csrrs	a3,0x800,a3
LowPower_Sleep():
F:/private/nanoCH57x-private/doc/CH572EVT/EVT/EXAM/SRC/StdPeriphDriver/CH57x_pwr.c:209
2000027a:	0000100f          	fence.i
F:/private/nanoCH57x-private/doc/CH572EVT/EVT/EXAM/SRC/StdPeriphDriver/CH57x_pwr.c:211

    PFIC->SCTLR |= (1 << 2); //deep sleep
2000027e:	e000f6b7          	lui	a3,0xe000f
20000282:	d0068693          	addi	a3,a3,-768 # e000ed00 <_eusrstack+0xc000bd00>
20000286:	0106a803          	lw	a6,16(a3)
2000028a:	00486813          	ori	a6,a6,4
2000028e:	0106a823          	sw	a6,16(a3)
F:/private/nanoCH57x-private/doc/CH572EVT/EVT/EXAM/SRC/StdPeriphDriver/CH57x_pwr.c:213

    power_plan |= RB_PWR_PLAN_EN | RB_PWR_CORE | rm | (2<<11);
20000292:	7865                	lui	a6,0xffff9
20000294:	0811                	addi	a6,a6,4 # ffff9004 <_eusrstack+0xdfff6004>
20000296:	01056533          	or	a0,a0,a6
2000029a:	08054533          	zext.h	a0,a0
__risc_v_disable_irq():
F:\private\nanoCH57x-private\doc\CH572EVT\EVT\EXAM\SRC\RVMSIS/core_riscv.h:154
    __asm volatile("csrrc %0, 0x800, %1" : \
2000029e:	80073873          	csrrc	a6,0x800,a4
F:\private\nanoCH57x-private\doc\CH572EVT\EVT\EXAM\SRC\RVMSIS/core_riscv.h:156
    return result & 0x88;
200002a2:	08887813          	andi	a6,a6,136
LowPower_Sleep():
F:/private/nanoCH57x-private/doc/CH572EVT/EVT/EXAM/SRC/StdPeriphDriver/CH57x_pwr.c:215

    sys_safe_access_enable();
200002a6:	c442                	sw	a6,8(sp)
200002a8:	0000100f          	fence.i
200002ac:	04b78023          	sb	a1,64(a5)
200002b0:	04c78023          	sb	a2,64(a5)
200002b4:	0000100f          	fence.i
F:/private/nanoCH57x-private/doc/CH572EVT/EVT/EXAM/SRC/StdPeriphDriver/CH57x_pwr.c:218

    // 需要测试周期数 目前用的3584
    R8_SLP_POWER_CTRL |= 0x40;
200002b8:	00f7c803          	lbu	a6,15(a5)
200002bc:	04086813          	ori	a6,a6,64
200002c0:	010787a3          	sb	a6,15(a5)
F:/private/nanoCH57x-private/doc/CH572EVT/EVT/EXAM/SRC/StdPeriphDriver/CH57x_pwr.c:220

    R16_POWER_PLAN = power_plan;
200002c4:	b38a                	sh	a0,32(a5)
F:/private/nanoCH57x-private/doc/CH572EVT/EVT/EXAM/SRC/StdPeriphDriver/CH57x_pwr.c:221
    sys_safe_access_disable();
200002c6:	04078023          	sb	zero,64(a5)
200002ca:	4522                	lw	a0,8(sp)
__risc_v_enable_irq():
F:\private\nanoCH57x-private\doc\CH572EVT\EVT\EXAM\SRC\RVMSIS/core_riscv.h:138
    __asm volatile("csrrs %0, 0x800, %1" : \
200002cc:	80052573          	csrrs	a0,0x800,a0
LowPower_Sleep():
F:/private/nanoCH57x-private/doc/CH572EVT/EVT/EXAM/SRC/StdPeriphDriver/CH57x_pwr.c:221
200002d0:	0000100f          	fence.i
__WFI():
F:\private\nanoCH57x-private\doc\CH572EVT\EVT\EXAM\SRC\RVMSIS/core_riscv.h:348
    PFIC->SCTLR &= ~(1 << 3); // wfi
200002d4:	4a88                	lw	a0,16(a3)
200002d6:	995d                	andi	a0,a0,-9
200002d8:	ca88                	sw	a0,16(a3)
F:\private\nanoCH57x-private\doc\CH572EVT\EVT\EXAM\SRC\RVMSIS/core_riscv.h:349
    __asm__ volatile("wfi");
200002da:	10500073          	wfi
LowPower_Sleep():
F:/private/nanoCH57x-private/doc/CH572EVT/EVT/EXAM/SRC/StdPeriphDriver/CH57x_pwr.c:233
//    sys_safe_access_enable();
//    R8_PLL_CONFIG |= (1 << 5);
//    sys_safe_access_disable();

    __WFI();
    __nop();
200002de:	0001                	nop
F:/private/nanoCH57x-private/doc/CH572EVT/EVT/EXAM/SRC/StdPeriphDriver/CH57x_pwr.c:234
    __nop();
200002e0:	0001                	nop
__risc_v_disable_irq():
F:\private\nanoCH57x-private\doc\CH572EVT\EVT\EXAM\SRC\RVMSIS/core_riscv.h:154
    __asm volatile("csrrc %0, 0x800, %1" : \
200002e2:	80073773          	csrrc	a4,0x800,a4
F:\private\nanoCH57x-private\doc\CH572EVT\EVT\EXAM\SRC\RVMSIS/core_riscv.h:156
    return result & 0x88;
200002e6:	08877713          	andi	a4,a4,136
LowPower_Sleep():
F:/private/nanoCH57x-private/doc/CH572EVT/EVT/EXAM/SRC/StdPeriphDriver/CH57x_pwr.c:240

//    sys_safe_access_enable();
//    R16_CLK_SYS_CFG = clk_sys_cfg;
//    R8_HFCK_PWR_CTRL = hfck_pwr_ctrl;
//    sys_safe_access_disable();
    sys_safe_access_enable();
200002ea:	c63a                	sw	a4,12(sp)
200002ec:	0000100f          	fence.i
200002f0:	04b78023          	sb	a1,64(a5)
200002f4:	04c78023          	sb	a2,64(a5)
200002f8:	0000100f          	fence.i
F:/private/nanoCH57x-private/doc/CH572EVT/EVT/EXAM/SRC/StdPeriphDriver/CH57x_pwr.c:241
    R16_POWER_PLAN &= ~RB_PWR_PLAN_EN;
200002fc:	339a                	lhu	a4,32(a5)
200002fe:	0746                	slli	a4,a4,0x11
20000300:	8345                	srli	a4,a4,0x11
20000302:	b39a                	sh	a4,32(a5)
F:/private/nanoCH57x-private/doc/CH572EVT/EVT/EXAM/SRC/StdPeriphDriver/CH57x_pwr.c:242
    sys_safe_access_disable();
20000304:	04078023          	sb	zero,64(a5)
20000308:	47b2                	lw	a5,12(sp)
__risc_v_enable_irq():
F:\private\nanoCH57x-private\doc\CH572EVT\EVT\EXAM\SRC\RVMSIS/core_riscv.h:138
    __asm volatile("csrrs %0, 0x800, %1" : \
2000030a:	8007a7f3          	csrrs	a5,0x800,a5
LowPower_Sleep():
F:/private/nanoCH57x-private/doc/CH572EVT/EVT/EXAM/SRC/StdPeriphDriver/CH57x_pwr.c:242
2000030e:	0000100f          	fence.i
F:/private/nanoCH57x-private/doc/CH572EVT/EVT/EXAM/SRC/StdPeriphDriver/CH57x_pwr.c:247

//    sys_safe_access_enable();
//    R8_PLL_CONFIG &= ~(1 << 5);
//    sys_safe_access_disable();
    DelayUs(40);
20000312:	02800513          	li	a0,40
F:/private/nanoCH57x-private/doc/CH572EVT/EVT/EXAM/SRC/StdPeriphDriver/CH57x_pwr.c:248
}
20000316:	0141                	addi	sp,sp,16
F:/private/nanoCH57x-private/doc/CH572EVT/EVT/EXAM/SRC/StdPeriphDriver/CH57x_pwr.c:247
    DelayUs(40);
20000318:	a125                	j	20000740 <mDelayuS>

2000031a <LowPower_Shutdown>:
LowPower_Shutdown():
F:/private/nanoCH57x-private/doc/CH572EVT/EVT/EXAM/SRC/StdPeriphDriver/CH57x_pwr.c:265
 *
 * @return  none
 */
__HIGH_CODE
void LowPower_Shutdown(uint16_t rm)
{
2000031a:	7139                	addi	sp,sp,-64
2000031c:	d452                	sw	s4,40(sp)
F:/private/nanoCH57x-private/doc/CH572EVT/EVT/EXAM/SRC/StdPeriphDriver/CH57x_pwr.c:268
    uint8_t x32Mpw;

    FLASH_ROM_SW_RESET();
2000031e:	4681                	li	a3,0
F:/private/nanoCH57x-private/doc/CH572EVT/EVT/EXAM/SRC/StdPeriphDriver/CH57x_pwr.c:265
{
20000320:	8a2a                	mv	s4,a0
F:/private/nanoCH57x-private/doc/CH572EVT/EVT/EXAM/SRC/StdPeriphDriver/CH57x_pwr.c:268
    FLASH_ROM_SW_RESET();
20000322:	4601                	li	a2,0
20000324:	4581                	li	a1,0
20000326:	4511                	li	a0,4
F:/private/nanoCH57x-private/doc/CH572EVT/EVT/EXAM/SRC/StdPeriphDriver/CH57x_pwr.c:265
{
20000328:	dc22                	sw	s0,56(sp)
2000032a:	da26                	sw	s1,52(sp)
2000032c:	de06                	sw	ra,60(sp)
2000032e:	d84a                	sw	s2,48(sp)
20000330:	d64e                	sw	s3,44(sp)
F:/private/nanoCH57x-private/doc/CH572EVT/EVT/EXAM/SRC/StdPeriphDriver/CH57x_pwr.c:269
    x32Mpw = R8_XT32M_TUNE;
20000332:	40001437          	lui	s0,0x40001
F:/private/nanoCH57x-private/doc/CH572EVT/EVT/EXAM/SRC/StdPeriphDriver/CH57x_pwr.c:268
    FLASH_ROM_SW_RESET();
20000336:	e0001097          	auipc	ra,0xe0001
2000033a:	d22080e7          	jalr	-734(ra) # 1058 <FLASH_EEPROM_CMD>
F:/private/nanoCH57x-private/doc/CH572EVT/EVT/EXAM/SRC/StdPeriphDriver/CH57x_pwr.c:269
    x32Mpw = R8_XT32M_TUNE;
2000033e:	04e44783          	lbu	a5,78(s0) # 4000104e <_eusrstack+0x1fffe04e>
__risc_v_disable_irq():
F:\private\nanoCH57x-private\doc\CH572EVT\EVT\EXAM\SRC\RVMSIS/core_riscv.h:154
    __asm volatile("csrrc %0, 0x800, %1" : \
20000342:	08800493          	li	s1,136
LowPower_Shutdown():
F:/private/nanoCH57x-private/doc/CH572EVT/EVT/EXAM/SRC/StdPeriphDriver/CH57x_pwr.c:270
    x32Mpw = (x32Mpw & 0xfc) | 0x03; // 150%额定电流
20000346:	0037e793          	ori	a5,a5,3
__risc_v_disable_irq():
F:\private\nanoCH57x-private\doc\CH572EVT\EVT\EXAM\SRC\RVMSIS/core_riscv.h:154
2000034a:	8004b773          	csrrc	a4,0x800,s1
F:\private\nanoCH57x-private\doc\CH572EVT\EVT\EXAM\SRC\RVMSIS/core_riscv.h:156
    return result & 0x88;
2000034e:	08877713          	andi	a4,a4,136
LowPower_Shutdown():
F:/private/nanoCH57x-private/doc/CH572EVT/EVT/EXAM/SRC/StdPeriphDriver/CH57x_pwr.c:272

    sys_safe_access_enable();
20000352:	c63a                	sw	a4,12(sp)
20000354:	0000100f          	fence.i
20000358:	05700993          	li	s3,87
2000035c:	05340023          	sb	s3,64(s0)
20000360:	fa800913          	li	s2,-88
20000364:	05240023          	sb	s2,64(s0)
20000368:	0000100f          	fence.i
F:/private/nanoCH57x-private/doc/CH572EVT/EVT/EXAM/SRC/StdPeriphDriver/CH57x_pwr.c:273
    R8_BAT_DET_CTRL = 0; // 关闭电压监控
2000036c:	02040223          	sb	zero,36(s0)
F:/private/nanoCH57x-private/doc/CH572EVT/EVT/EXAM/SRC/StdPeriphDriver/CH57x_pwr.c:274
    sys_safe_access_disable();
20000370:	04040023          	sb	zero,64(s0)
20000374:	4732                	lw	a4,12(sp)
__risc_v_enable_irq():
F:\private\nanoCH57x-private\doc\CH572EVT\EVT\EXAM\SRC\RVMSIS/core_riscv.h:138
    __asm volatile("csrrs %0, 0x800, %1" : \
20000376:	80072773          	csrrs	a4,0x800,a4
LowPower_Shutdown():
F:/private/nanoCH57x-private/doc/CH572EVT/EVT/EXAM/SRC/StdPeriphDriver/CH57x_pwr.c:274
2000037a:	0000100f          	fence.i
__risc_v_disable_irq():
F:\private\nanoCH57x-private\doc\CH572EVT\EVT\EXAM\SRC\RVMSIS/core_riscv.h:154
    __asm volatile("csrrc %0, 0x800, %1" : \
2000037e:	8004b773          	csrrc	a4,0x800,s1
F:\private\nanoCH57x-private\doc\CH572EVT\EVT\EXAM\SRC\RVMSIS/core_riscv.h:156
    return result & 0x88;
20000382:	08877713          	andi	a4,a4,136
LowPower_Shutdown():
F:/private/nanoCH57x-private/doc/CH572EVT/EVT/EXAM/SRC/StdPeriphDriver/CH57x_pwr.c:275
    sys_safe_access_enable();
20000386:	c83a                	sw	a4,16(sp)
20000388:	0000100f          	fence.i
2000038c:	05340023          	sb	s3,64(s0)
20000390:	05240023          	sb	s2,64(s0)
20000394:	0000100f          	fence.i
F:/private/nanoCH57x-private/doc/CH572EVT/EVT/EXAM/SRC/StdPeriphDriver/CH57x_pwr.c:276
    R8_XT32M_TUNE = x32Mpw;
20000398:	04f40723          	sb	a5,78(s0)
F:/private/nanoCH57x-private/doc/CH572EVT/EVT/EXAM/SRC/StdPeriphDriver/CH57x_pwr.c:277
    sys_safe_access_disable();
2000039c:	04040023          	sb	zero,64(s0)
200003a0:	47c2                	lw	a5,16(sp)
__risc_v_enable_irq():
F:\private\nanoCH57x-private\doc\CH572EVT\EVT\EXAM\SRC\RVMSIS/core_riscv.h:138
    __asm volatile("csrrs %0, 0x800, %1" : \
200003a2:	8007a7f3          	csrrs	a5,0x800,a5
LowPower_Shutdown():
F:/private/nanoCH57x-private/doc/CH572EVT/EVT/EXAM/SRC/StdPeriphDriver/CH57x_pwr.c:277
200003a6:	0000100f          	fence.i
F:/private/nanoCH57x-private/doc/CH572EVT/EVT/EXAM/SRC/StdPeriphDriver/CH57x_pwr.c:279

    PFIC->SCTLR |= (1 << 2); //deep sleep
200003aa:	e000f7b7          	lui	a5,0xe000f
200003ae:	d0078793          	addi	a5,a5,-768 # e000ed00 <_eusrstack+0xc000bd00>
200003b2:	4b98                	lw	a4,16(a5)
200003b4:	00476713          	ori	a4,a4,4
200003b8:	cb98                	sw	a4,16(a5)
__risc_v_disable_irq():
F:\private\nanoCH57x-private\doc\CH572EVT\EVT\EXAM\SRC\RVMSIS/core_riscv.h:154
    __asm volatile("csrrc %0, 0x800, %1" : \
200003ba:	8004b773          	csrrc	a4,0x800,s1
F:\private\nanoCH57x-private\doc\CH572EVT\EVT\EXAM\SRC\RVMSIS/core_riscv.h:156
    return result & 0x88;
200003be:	08877713          	andi	a4,a4,136
LowPower_Shutdown():
F:/private/nanoCH57x-private/doc/CH572EVT/EVT/EXAM/SRC/StdPeriphDriver/CH57x_pwr.c:281

    sys_safe_access_enable();
200003c2:	ca3a                	sw	a4,20(sp)
200003c4:	0000100f          	fence.i
200003c8:	05340023          	sb	s3,64(s0)
200003cc:	05240023          	sb	s2,64(s0)
200003d0:	0000100f          	fence.i
F:/private/nanoCH57x-private/doc/CH572EVT/EVT/EXAM/SRC/StdPeriphDriver/CH57x_pwr.c:282
    R8_SLP_POWER_CTRL |= 0x40;
200003d4:	3478                	lbu	a4,15(s0)
200003d6:	04076713          	ori	a4,a4,64
200003da:	b478                	sb	a4,15(s0)
F:/private/nanoCH57x-private/doc/CH572EVT/EVT/EXAM/SRC/StdPeriphDriver/CH57x_pwr.c:283
    sys_safe_access_disable();
200003dc:	04040023          	sb	zero,64(s0)
200003e0:	4752                	lw	a4,20(sp)
__risc_v_enable_irq():
F:\private\nanoCH57x-private\doc\CH572EVT\EVT\EXAM\SRC\RVMSIS/core_riscv.h:138
    __asm volatile("csrrs %0, 0x800, %1" : \
200003e2:	80072773          	csrrs	a4,0x800,a4
LowPower_Shutdown():
F:/private/nanoCH57x-private/doc/CH572EVT/EVT/EXAM/SRC/StdPeriphDriver/CH57x_pwr.c:283
200003e6:	0000100f          	fence.i
__risc_v_disable_irq():
F:\private\nanoCH57x-private\doc\CH572EVT\EVT\EXAM\SRC\RVMSIS/core_riscv.h:154
    __asm volatile("csrrc %0, 0x800, %1" : \
200003ea:	8004b773          	csrrc	a4,0x800,s1
F:\private\nanoCH57x-private\doc\CH572EVT\EVT\EXAM\SRC\RVMSIS/core_riscv.h:156
    return result & 0x88;
200003ee:	08877713          	andi	a4,a4,136
LowPower_Shutdown():
F:/private/nanoCH57x-private/doc/CH572EVT/EVT/EXAM/SRC/StdPeriphDriver/CH57x_pwr.c:284
    sys_safe_access_enable();
200003f2:	cc3a                	sw	a4,24(sp)
200003f4:	0000100f          	fence.i
200003f8:	05340023          	sb	s3,64(s0)
200003fc:	05240023          	sb	s2,64(s0)
20000400:	0000100f          	fence.i
F:/private/nanoCH57x-private/doc/CH572EVT/EVT/EXAM/SRC/StdPeriphDriver/CH57x_pwr.c:285
    R16_POWER_PLAN = RB_PWR_PLAN_EN | rm;
20000404:	28fa1a13          	bseti	s4,s4,0xf
20000408:	03441023          	sh	s4,32(s0)
F:/private/nanoCH57x-private/doc/CH572EVT/EVT/EXAM/SRC/StdPeriphDriver/CH57x_pwr.c:286
    sys_safe_access_disable();
2000040c:	04040023          	sb	zero,64(s0)
20000410:	4762                	lw	a4,24(sp)
__risc_v_enable_irq():
F:\private\nanoCH57x-private\doc\CH572EVT\EVT\EXAM\SRC\RVMSIS/core_riscv.h:138
    __asm volatile("csrrs %0, 0x800, %1" : \
20000412:	80072773          	csrrs	a4,0x800,a4
LowPower_Shutdown():
F:/private/nanoCH57x-private/doc/CH572EVT/EVT/EXAM/SRC/StdPeriphDriver/CH57x_pwr.c:286
20000416:	0000100f          	fence.i
__WFI():
F:\private\nanoCH57x-private\doc\CH572EVT\EVT\EXAM\SRC\RVMSIS/core_riscv.h:348
    PFIC->SCTLR &= ~(1 << 3); // wfi
2000041a:	4b98                	lw	a4,16(a5)
2000041c:	9b5d                	andi	a4,a4,-9
2000041e:	cb98                	sw	a4,16(a5)
F:\private\nanoCH57x-private\doc\CH572EVT\EVT\EXAM\SRC\RVMSIS/core_riscv.h:349
    __asm__ volatile("wfi");
20000420:	10500073          	wfi
LowPower_Shutdown():
F:/private/nanoCH57x-private/doc/CH572EVT/EVT/EXAM/SRC/StdPeriphDriver/CH57x_pwr.c:288
    __WFI();
    __nop();
20000424:	0001                	nop
F:/private/nanoCH57x-private/doc/CH572EVT/EVT/EXAM/SRC/StdPeriphDriver/CH57x_pwr.c:289
    __nop();
20000426:	0001                	nop
F:/private/nanoCH57x-private/doc/CH572EVT/EVT/EXAM/SRC/StdPeriphDriver/CH57x_pwr.c:290
    FLASH_ROM_SW_RESET();
20000428:	4681                	li	a3,0
2000042a:	4601                	li	a2,0
2000042c:	4581                	li	a1,0
2000042e:	4511                	li	a0,4
20000430:	e0001097          	auipc	ra,0xe0001
20000434:	c28080e7          	jalr	-984(ra) # 1058 <FLASH_EEPROM_CMD>
__risc_v_disable_irq():
F:\private\nanoCH57x-private\doc\CH572EVT\EVT\EXAM\SRC\RVMSIS/core_riscv.h:154
    __asm volatile("csrrc %0, 0x800, %1" : \
20000438:	8004b4f3          	csrrc	s1,0x800,s1
F:\private\nanoCH57x-private\doc\CH572EVT\EVT\EXAM\SRC\RVMSIS/core_riscv.h:156
    return result & 0x88;
2000043c:	0884f493          	andi	s1,s1,136
LowPower_Shutdown():
F:/private/nanoCH57x-private/doc/CH572EVT/EVT/EXAM/SRC/StdPeriphDriver/CH57x_pwr.c:291
    sys_safe_access_enable();
20000440:	ce26                	sw	s1,28(sp)
20000442:	0000100f          	fence.i
20000446:	05340023          	sb	s3,64(s0)
2000044a:	05240023          	sb	s2,64(s0)
2000044e:	0000100f          	fence.i
F:/private/nanoCH57x-private/doc/CH572EVT/EVT/EXAM/SRC/StdPeriphDriver/CH57x_pwr.c:292
    R8_RST_WDOG_CTRL |= RB_SOFTWARE_RESET;
20000452:	04644783          	lbu	a5,70(s0)
20000456:	0017e793          	ori	a5,a5,1
2000045a:	04f40323          	sb	a5,70(s0)
F:/private/nanoCH57x-private/doc/CH572EVT/EVT/EXAM/SRC/StdPeriphDriver/CH57x_pwr.c:293
    sys_safe_access_disable();
2000045e:	04040023          	sb	zero,64(s0)
20000462:	47f2                	lw	a5,28(sp)
__risc_v_enable_irq():
F:\private\nanoCH57x-private\doc\CH572EVT\EVT\EXAM\SRC\RVMSIS/core_riscv.h:138
    __asm volatile("csrrs %0, 0x800, %1" : \
20000464:	8007a7f3          	csrrs	a5,0x800,a5
LowPower_Shutdown():
F:/private/nanoCH57x-private/doc/CH572EVT/EVT/EXAM/SRC/StdPeriphDriver/CH57x_pwr.c:293
20000468:	0000100f          	fence.i
F:/private/nanoCH57x-private/doc/CH572EVT/EVT/EXAM/SRC/StdPeriphDriver/CH57x_pwr.c:294
}
2000046c:	50f2                	lw	ra,60(sp)
2000046e:	5462                	lw	s0,56(sp)
20000470:	54d2                	lw	s1,52(sp)
20000472:	5942                	lw	s2,48(sp)
20000474:	59b2                	lw	s3,44(sp)
20000476:	5a22                	lw	s4,40(sp)
20000478:	6121                	addi	sp,sp,64
2000047a:	8082                	ret

2000047c <SetSysClock>:
SetSysClock():
F:/private/nanoCH57x-private/doc/CH572EVT/EVT/EXAM/SRC/StdPeriphDriver/CH57x_sys.c:31
{
    uint16_t clk_sys_cfg;
    uint8_t i;
    uint8_t x32M_c;

    if(sc == RB_CLK_SYS_MOD)  // LSI
2000047c:	0c000793          	li	a5,192
F:/private/nanoCH57x-private/doc/CH572EVT/EVT/EXAM/SRC/StdPeriphDriver/CH57x_sys.c:26
{
20000480:	1101                	addi	sp,sp,-32
F:/private/nanoCH57x-private/doc/CH572EVT/EVT/EXAM/SRC/StdPeriphDriver/CH57x_sys.c:31
    if(sc == RB_CLK_SYS_MOD)  // LSI
20000482:	04f51463          	bne	a0,a5,200004ca <SetSysClock+0x4e>
__risc_v_disable_irq():
F:\private\nanoCH57x-private\doc\CH572EVT\EVT\EXAM\SRC\RVMSIS/core_riscv.h:154
    __asm volatile("csrrc %0, 0x800, %1" : \
20000486:	08800793          	li	a5,136
2000048a:	8007b7f3          	csrrc	a5,0x800,a5
F:\private\nanoCH57x-private\doc\CH572EVT\EVT\EXAM\SRC\RVMSIS/core_riscv.h:156
    return result & 0x88;
2000048e:	0887f793          	andi	a5,a5,136
SetSysClock():
F:/private/nanoCH57x-private/doc/CH572EVT/EVT/EXAM/SRC/StdPeriphDriver/CH57x_sys.c:33
    {
        sys_safe_access_enable();
20000492:	c03e                	sw	a5,0(sp)
20000494:	0000100f          	fence.i
20000498:	400017b7          	lui	a5,0x40001
2000049c:	05700713          	li	a4,87
200004a0:	04e78023          	sb	a4,64(a5) # 40001040 <_eusrstack+0x1fffe040>
200004a4:	fa800713          	li	a4,-88
200004a8:	04e78023          	sb	a4,64(a5)
200004ac:	0000100f          	fence.i
F:/private/nanoCH57x-private/doc/CH572EVT/EVT/EXAM/SRC/StdPeriphDriver/CH57x_sys.c:34
        R8_CLK_SYS_CFG |= RB_CLK_SYS_MOD;
200004b0:	2798                	lbu	a4,8(a5)
200004b2:	0c076713          	ori	a4,a4,192
200004b6:	a798                	sb	a4,8(a5)
F:/private/nanoCH57x-private/doc/CH572EVT/EVT/EXAM/SRC/StdPeriphDriver/CH57x_sys.c:35
        sys_safe_access_disable();
200004b8:	04078023          	sb	zero,64(a5)
200004bc:	4782                	lw	a5,0(sp)
__risc_v_enable_irq():
F:\private\nanoCH57x-private\doc\CH572EVT\EVT\EXAM\SRC\RVMSIS/core_riscv.h:138
    __asm volatile("csrrs %0, 0x800, %1" : \
200004be:	8007a7f3          	csrrs	a5,0x800,a5
SetSysClock():
F:/private/nanoCH57x-private/doc/CH572EVT/EVT/EXAM/SRC/StdPeriphDriver/CH57x_sys.c:86
            }
        }

        sys_safe_access_enable();
        R8_CLK_SYS_CFG = sc;
        sys_safe_access_disable();
200004c2:	0000100f          	fence.i
F:/private/nanoCH57x-private/doc/CH572EVT/EVT/EXAM/SRC/StdPeriphDriver/CH57x_sys.c:88
    }
}
200004c6:	6105                	addi	sp,sp,32
200004c8:	8082                	ret
F:/private/nanoCH57x-private/doc/CH572EVT/EVT/EXAM/SRC/StdPeriphDriver/CH57x_sys.c:39
        if(!(R8_HFCK_PWR_CTRL & RB_CLK_XT32M_PON))
200004ca:	400017b7          	lui	a5,0x40001
200004ce:	27b8                	lbu	a4,10(a5)
200004d0:	8b11                	andi	a4,a4,4
200004d2:	eb69                	bnez	a4,200005a4 <SetSysClock+0x128>
F:/private/nanoCH57x-private/doc/CH572EVT/EVT/EXAM/SRC/StdPeriphDriver/CH57x_sys.c:41
            x32M_c = R8_XT32M_TUNE;
200004d4:	04e7c683          	lbu	a3,78(a5) # 4000104e <_eusrstack+0x1fffe04e>
__risc_v_disable_irq():
F:\private\nanoCH57x-private\doc\CH572EVT\EVT\EXAM\SRC\RVMSIS/core_riscv.h:154
    __asm volatile("csrrc %0, 0x800, %1" : \
200004d8:	08800713          	li	a4,136
SetSysClock():
F:/private/nanoCH57x-private/doc/CH572EVT/EVT/EXAM/SRC/StdPeriphDriver/CH57x_sys.c:41
200004dc:	0ff6f693          	zext.b	a3,a3
__risc_v_disable_irq():
F:\private\nanoCH57x-private\doc\CH572EVT\EVT\EXAM\SRC\RVMSIS/core_riscv.h:154
200004e0:	80073673          	csrrc	a2,0x800,a4
F:\private\nanoCH57x-private\doc\CH572EVT\EVT\EXAM\SRC\RVMSIS/core_riscv.h:156
    return result & 0x88;
200004e4:	08867613          	andi	a2,a2,136
SetSysClock():
F:/private/nanoCH57x-private/doc/CH572EVT/EVT/EXAM/SRC/StdPeriphDriver/CH57x_sys.c:42
            sys_safe_access_enable();
200004e8:	c232                	sw	a2,4(sp)
200004ea:	0000100f          	fence.i
200004ee:	05700813          	li	a6,87
200004f2:	05078023          	sb	a6,64(a5)
200004f6:	fa800593          	li	a1,-88
200004fa:	04b78023          	sb	a1,64(a5)
200004fe:	0000100f          	fence.i
F:/private/nanoCH57x-private/doc/CH572EVT/EVT/EXAM/SRC/StdPeriphDriver/CH57x_sys.c:43
            R8_XT32M_TUNE |= 0x03;
20000502:	04e7c603          	lbu	a2,78(a5)
20000506:	00366613          	ori	a2,a2,3
2000050a:	04c78723          	sb	a2,78(a5)
F:/private/nanoCH57x-private/doc/CH572EVT/EVT/EXAM/SRC/StdPeriphDriver/CH57x_sys.c:44
            R8_HFCK_PWR_CTRL |= RB_CLK_XT32M_PON;
2000050e:	27b0                	lbu	a2,10(a5)
20000510:	00466613          	ori	a2,a2,4
20000514:	a7b0                	sb	a2,10(a5)
F:/private/nanoCH57x-private/doc/CH572EVT/EVT/EXAM/SRC/StdPeriphDriver/CH57x_sys.c:45
            sys_safe_access_disable();
20000516:	04078023          	sb	zero,64(a5)
2000051a:	4612                	lw	a2,4(sp)
__risc_v_enable_irq():
F:\private\nanoCH57x-private\doc\CH572EVT\EVT\EXAM\SRC\RVMSIS/core_riscv.h:138
    __asm volatile("csrrs %0, 0x800, %1" : \
2000051c:	80062673          	csrrs	a2,0x800,a2
SetSysClock():
F:/private/nanoCH57x-private/doc/CH572EVT/EVT/EXAM/SRC/StdPeriphDriver/CH57x_sys.c:45
20000520:	0000100f          	fence.i
F:/private/nanoCH57x-private/doc/CH572EVT/EVT/EXAM/SRC/StdPeriphDriver/CH57x_sys.c:46
            clk_sys_cfg = R8_CLK_SYS_CFG;
20000524:	2790                	lbu	a2,8(a5)
20000526:	0ff67613          	zext.b	a2,a2
__risc_v_disable_irq():
F:\private\nanoCH57x-private\doc\CH572EVT\EVT\EXAM\SRC\RVMSIS/core_riscv.h:154
    __asm volatile("csrrc %0, 0x800, %1" : \
2000052a:	80073773          	csrrc	a4,0x800,a4
F:\private\nanoCH57x-private\doc\CH572EVT\EVT\EXAM\SRC\RVMSIS/core_riscv.h:156
    return result & 0x88;
2000052e:	08877713          	andi	a4,a4,136
SetSysClock():
F:/private/nanoCH57x-private/doc/CH572EVT/EVT/EXAM/SRC/StdPeriphDriver/CH57x_sys.c:47
            sys_safe_access_enable();
20000532:	c43a                	sw	a4,8(sp)
20000534:	0000100f          	fence.i
20000538:	05078023          	sb	a6,64(a5)
2000053c:	04b78023          	sb	a1,64(a5)
20000540:	0000100f          	fence.i
F:/private/nanoCH57x-private/doc/CH572EVT/EVT/EXAM/SRC/StdPeriphDriver/CH57x_sys.c:48
            R8_CLK_SYS_CFG |= 0xC0;
20000544:	2798                	lbu	a4,8(a5)
20000546:	0c076713          	ori	a4,a4,192
2000054a:	a798                	sb	a4,8(a5)
F:/private/nanoCH57x-private/doc/CH572EVT/EVT/EXAM/SRC/StdPeriphDriver/CH57x_sys.c:49
            sys_safe_access_disable();
2000054c:	04078023          	sb	zero,64(a5)
20000550:	47a2                	lw	a5,8(sp)
__risc_v_enable_irq():
F:\private\nanoCH57x-private\doc\CH572EVT\EVT\EXAM\SRC\RVMSIS/core_riscv.h:138
    __asm volatile("csrrs %0, 0x800, %1" : \
20000552:	8007a7f3          	csrrs	a5,0x800,a5
SetSysClock():
F:/private/nanoCH57x-private/doc/CH572EVT/EVT/EXAM/SRC/StdPeriphDriver/CH57x_sys.c:49
20000556:	0000100f          	fence.i
2000055a:	47a5                	li	a5,9
F:/private/nanoCH57x-private/doc/CH572EVT/EVT/EXAM/SRC/StdPeriphDriver/CH57x_sys.c:52 (discriminator 3)
                __nop();
2000055c:	0001                	nop
F:/private/nanoCH57x-private/doc/CH572EVT/EVT/EXAM/SRC/StdPeriphDriver/CH57x_sys.c:50 (discriminator 3)
            for(i=0; i<9; i++)
2000055e:	17fd                	addi	a5,a5,-1
20000560:	0ff7f793          	zext.b	a5,a5
20000564:	ffe5                	bnez	a5,2000055c <SetSysClock+0xe0>
__risc_v_disable_irq():
F:\private\nanoCH57x-private\doc\CH572EVT\EVT\EXAM\SRC\RVMSIS/core_riscv.h:154
    __asm volatile("csrrc %0, 0x800, %1" : \
20000566:	08800793          	li	a5,136
2000056a:	8007b7f3          	csrrc	a5,0x800,a5
F:\private\nanoCH57x-private\doc\CH572EVT\EVT\EXAM\SRC\RVMSIS/core_riscv.h:156
    return result & 0x88;
2000056e:	0887f793          	andi	a5,a5,136
SetSysClock():
F:/private/nanoCH57x-private/doc/CH572EVT/EVT/EXAM/SRC/StdPeriphDriver/CH57x_sys.c:54
            sys_safe_access_enable();
20000572:	c63e                	sw	a5,12(sp)
20000574:	0000100f          	fence.i
20000578:	400017b7          	lui	a5,0x40001
2000057c:	05700713          	li	a4,87
20000580:	04e78023          	sb	a4,64(a5) # 40001040 <_eusrstack+0x1fffe040>
20000584:	fa800713          	li	a4,-88
20000588:	04e78023          	sb	a4,64(a5)
2000058c:	0000100f          	fence.i
F:/private/nanoCH57x-private/doc/CH572EVT/EVT/EXAM/SRC/StdPeriphDriver/CH57x_sys.c:55
            R8_CLK_SYS_CFG = clk_sys_cfg;
20000590:	a790                	sb	a2,8(a5)
F:/private/nanoCH57x-private/doc/CH572EVT/EVT/EXAM/SRC/StdPeriphDriver/CH57x_sys.c:56
            R8_XT32M_TUNE = x32M_c;
20000592:	04d78723          	sb	a3,78(a5)
F:/private/nanoCH57x-private/doc/CH572EVT/EVT/EXAM/SRC/StdPeriphDriver/CH57x_sys.c:57
            sys_safe_access_disable();
20000596:	04078023          	sb	zero,64(a5)
2000059a:	47b2                	lw	a5,12(sp)
__risc_v_enable_irq():
F:\private\nanoCH57x-private\doc\CH572EVT\EVT\EXAM\SRC\RVMSIS/core_riscv.h:138
    __asm volatile("csrrs %0, 0x800, %1" : \
2000059c:	8007a7f3          	csrrs	a5,0x800,a5
SetSysClock():
F:/private/nanoCH57x-private/doc/CH572EVT/EVT/EXAM/SRC/StdPeriphDriver/CH57x_sys.c:57
200005a0:	0000100f          	fence.i
F:/private/nanoCH57x-private/doc/CH572EVT/EVT/EXAM/SRC/StdPeriphDriver/CH57x_sys.c:60
        if((sc & RB_CLK_SYS_MOD) == 0x40) // PLL div
200005a4:	0c057793          	andi	a5,a0,192
200005a8:	04000713          	li	a4,64
200005ac:	08e79963          	bne	a5,a4,2000063e <SetSysClock+0x1c2>
__risc_v_disable_irq():
F:\private\nanoCH57x-private\doc\CH572EVT\EVT\EXAM\SRC\RVMSIS/core_riscv.h:154
    __asm volatile("csrrc %0, 0x800, %1" : \
200005b0:	08800793          	li	a5,136
200005b4:	8007b7f3          	csrrc	a5,0x800,a5
F:\private\nanoCH57x-private\doc\CH572EVT\EVT\EXAM\SRC\RVMSIS/core_riscv.h:156
    return result & 0x88;
200005b8:	0887f793          	andi	a5,a5,136
SetSysClock():
F:/private/nanoCH57x-private/doc/CH572EVT/EVT/EXAM/SRC/StdPeriphDriver/CH57x_sys.c:62
            sys_safe_access_enable();
200005bc:	c83e                	sw	a5,16(sp)
200005be:	0000100f          	fence.i
200005c2:	400017b7          	lui	a5,0x40001
200005c6:	05700713          	li	a4,87
200005ca:	04e78023          	sb	a4,64(a5) # 40001040 <_eusrstack+0x1fffe040>
200005ce:	fa800713          	li	a4,-88
200005d2:	04e78023          	sb	a4,64(a5)
200005d6:	0000100f          	fence.i
F:/private/nanoCH57x-private/doc/CH572EVT/EVT/EXAM/SRC/StdPeriphDriver/CH57x_sys.c:63
            R8_HFCK_PWR_CTRL |= RB_CLK_PLL_PON;
200005da:	27b8                	lbu	a4,10(a5)
F:/private/nanoCH57x-private/doc/CH572EVT/EVT/EXAM/SRC/StdPeriphDriver/CH57x_sys.c:64
            R8_FLASH_CFG = 0X01;
200005dc:	4685                	li	a3,1
F:/private/nanoCH57x-private/doc/CH572EVT/EVT/EXAM/SRC/StdPeriphDriver/CH57x_sys.c:63
            R8_HFCK_PWR_CTRL |= RB_CLK_PLL_PON;
200005de:	01076713          	ori	a4,a4,16
200005e2:	a7b8                	sb	a4,10(a5)
F:/private/nanoCH57x-private/doc/CH572EVT/EVT/EXAM/SRC/StdPeriphDriver/CH57x_sys.c:64
            R8_FLASH_CFG = 0X01;
200005e4:	40002737          	lui	a4,0x40002
200005e8:	80d703a3          	sb	a3,-2041(a4) # 40001807 <_eusrstack+0x1fffe807>
F:/private/nanoCH57x-private/doc/CH572EVT/EVT/EXAM/SRC/StdPeriphDriver/CH57x_sys.c:65
            R8_FLASH_SCK |= 1<<4; //50M
200005ec:	80574683          	lbu	a3,-2043(a4)
200005f0:	0106e693          	ori	a3,a3,16
200005f4:	80d702a3          	sb	a3,-2043(a4)
F:/private/nanoCH57x-private/doc/CH572EVT/EVT/EXAM/SRC/StdPeriphDriver/CH57x_sys.c:66
            sys_safe_access_disable();
200005f8:	04078023          	sb	zero,64(a5)
200005fc:	47c2                	lw	a5,16(sp)
__risc_v_enable_irq():
F:\private\nanoCH57x-private\doc\CH572EVT\EVT\EXAM\SRC\RVMSIS/core_riscv.h:138
    __asm volatile("csrrs %0, 0x800, %1" : \
200005fe:	8007a7f3          	csrrs	a5,0x800,a5
SetSysClock():
F:/private/nanoCH57x-private/doc/CH572EVT/EVT/EXAM/SRC/StdPeriphDriver/CH57x_sys.c:80
                sys_safe_access_disable();
20000602:	0000100f          	fence.i
__risc_v_disable_irq():
F:\private\nanoCH57x-private\doc\CH572EVT\EVT\EXAM\SRC\RVMSIS/core_riscv.h:154
    __asm volatile("csrrc %0, 0x800, %1" : \
20000606:	08800793          	li	a5,136
2000060a:	8007b7f3          	csrrc	a5,0x800,a5
F:\private\nanoCH57x-private\doc\CH572EVT\EVT\EXAM\SRC\RVMSIS/core_riscv.h:156
    return result & 0x88;
2000060e:	0887f793          	andi	a5,a5,136
SetSysClock():
F:/private/nanoCH57x-private/doc/CH572EVT/EVT/EXAM/SRC/StdPeriphDriver/CH57x_sys.c:84
        sys_safe_access_enable();
20000612:	ce3e                	sw	a5,28(sp)
20000614:	0000100f          	fence.i
20000618:	400017b7          	lui	a5,0x40001
2000061c:	05700713          	li	a4,87
20000620:	04e78023          	sb	a4,64(a5) # 40001040 <_eusrstack+0x1fffe040>
20000624:	fa800713          	li	a4,-88
20000628:	04e78023          	sb	a4,64(a5)
2000062c:	0000100f          	fence.i
F:/private/nanoCH57x-private/doc/CH572EVT/EVT/EXAM/SRC/StdPeriphDriver/CH57x_sys.c:85
        R8_CLK_SYS_CFG = sc;
20000630:	0ff57513          	zext.b	a0,a0
20000634:	a788                	sb	a0,8(a5)
F:/private/nanoCH57x-private/doc/CH572EVT/EVT/EXAM/SRC/StdPeriphDriver/CH57x_sys.c:86
        sys_safe_access_disable();
20000636:	04078023          	sb	zero,64(a5)
2000063a:	47f2                	lw	a5,28(sp)
2000063c:	b549                	j	200004be <SetSysClock+0x42>
F:/private/nanoCH57x-private/doc/CH572EVT/EVT/EXAM/SRC/StdPeriphDriver/CH57x_sys.c:70
            if((sc&0x1F) )
2000063e:	01f57793          	andi	a5,a0,31
20000642:	cf9d                	beqz	a5,20000680 <SetSysClock+0x204>
__risc_v_disable_irq():
F:\private\nanoCH57x-private\doc\CH572EVT\EVT\EXAM\SRC\RVMSIS/core_riscv.h:154
    __asm volatile("csrrc %0, 0x800, %1" : \
20000644:	08800793          	li	a5,136
20000648:	8007b7f3          	csrrc	a5,0x800,a5
F:\private\nanoCH57x-private\doc\CH572EVT\EVT\EXAM\SRC\RVMSIS/core_riscv.h:156
    return result & 0x88;
2000064c:	0887f793          	andi	a5,a5,136
SetSysClock():
F:/private/nanoCH57x-private/doc/CH572EVT/EVT/EXAM/SRC/StdPeriphDriver/CH57x_sys.c:72
                sys_safe_access_enable();
20000650:	ca3e                	sw	a5,20(sp)
20000652:	0000100f          	fence.i
20000656:	400017b7          	lui	a5,0x40001
2000065a:	05700713          	li	a4,87
2000065e:	04e78023          	sb	a4,64(a5) # 40001040 <_eusrstack+0x1fffe040>
20000662:	fa800713          	li	a4,-88
20000666:	04e78023          	sb	a4,64(a5)
2000066a:	0000100f          	fence.i
F:/private/nanoCH57x-private/doc/CH572EVT/EVT/EXAM/SRC/StdPeriphDriver/CH57x_sys.c:73
                R8_FLASH_CFG = 0X02;
2000066e:	40002737          	lui	a4,0x40002
20000672:	4689                	li	a3,2
20000674:	80d703a3          	sb	a3,-2041(a4) # 40001807 <_eusrstack+0x1fffe807>
F:/private/nanoCH57x-private/doc/CH572EVT/EVT/EXAM/SRC/StdPeriphDriver/CH57x_sys.c:74
                sys_safe_access_disable();
20000678:	04078023          	sb	zero,64(a5)
2000067c:	47d2                	lw	a5,20(sp)
__risc_v_enable_irq():
F:\private\nanoCH57x-private\doc\CH572EVT\EVT\EXAM\SRC\RVMSIS/core_riscv.h:138
    __asm volatile("csrrs %0, 0x800, %1" : \
2000067e:	b741                	j	200005fe <SetSysClock+0x182>
__risc_v_disable_irq():
F:\private\nanoCH57x-private\doc\CH572EVT\EVT\EXAM\SRC\RVMSIS/core_riscv.h:154
    __asm volatile("csrrc %0, 0x800, %1" : \
20000680:	08800793          	li	a5,136
20000684:	8007b7f3          	csrrc	a5,0x800,a5
F:\private\nanoCH57x-private\doc\CH572EVT\EVT\EXAM\SRC\RVMSIS/core_riscv.h:156
    return result & 0x88;
20000688:	0887f793          	andi	a5,a5,136
SetSysClock():
F:/private/nanoCH57x-private/doc/CH572EVT/EVT/EXAM/SRC/StdPeriphDriver/CH57x_sys.c:78
                sys_safe_access_enable();
2000068c:	cc3e                	sw	a5,24(sp)
2000068e:	0000100f          	fence.i
20000692:	400017b7          	lui	a5,0x40001
20000696:	05700713          	li	a4,87
2000069a:	04e78023          	sb	a4,64(a5) # 40001040 <_eusrstack+0x1fffe040>
2000069e:	fa800713          	li	a4,-88
200006a2:	04e78023          	sb	a4,64(a5)
200006a6:	0000100f          	fence.i
F:/private/nanoCH57x-private/doc/CH572EVT/EVT/EXAM/SRC/StdPeriphDriver/CH57x_sys.c:79
                R8_FLASH_CFG = 0X07;
200006aa:	40002737          	lui	a4,0x40002
200006ae:	469d                	li	a3,7
200006b0:	80d703a3          	sb	a3,-2041(a4) # 40001807 <_eusrstack+0x1fffe807>
F:/private/nanoCH57x-private/doc/CH572EVT/EVT/EXAM/SRC/StdPeriphDriver/CH57x_sys.c:80
                sys_safe_access_disable();
200006b4:	04078023          	sb	zero,64(a5)
200006b8:	47e2                	lw	a5,24(sp)
200006ba:	b791                	j	200005fe <SetSysClock+0x182>

200006bc <HardFault_Handler>:
HardFault_Handler():
F:/private/nanoCH57x-private/doc/CH572EVT/EVT/EXAM/SRC/StdPeriphDriver/CH57x_sys.c:282
 */
__INTERRUPT
__HIGH_CODE
__attribute__((weak))
void HardFault_Handler(void)
{
200006bc:	1141                	addi	sp,sp,-16
F:/private/nanoCH57x-private/doc/CH572EVT/EVT/EXAM/SRC/StdPeriphDriver/CH57x_sys.c:283
    FLASH_ROM_SW_RESET();
200006be:	4681                	li	a3,0
200006c0:	4601                	li	a2,0
200006c2:	4581                	li	a1,0
200006c4:	4511                	li	a0,4
200006c6:	e0001097          	auipc	ra,0xe0001
200006ca:	992080e7          	jalr	-1646(ra) # 1058 <FLASH_EEPROM_CMD>
__risc_v_disable_irq():
F:\private\nanoCH57x-private\doc\CH572EVT\EVT\EXAM\SRC\RVMSIS/core_riscv.h:154
    __asm volatile("csrrc %0, 0x800, %1" : \
200006ce:	08800713          	li	a4,136
200006d2:	800737f3          	csrrc	a5,0x800,a4
F:\private\nanoCH57x-private\doc\CH572EVT\EVT\EXAM\SRC\RVMSIS/core_riscv.h:156
    return result & 0x88;
200006d6:	0887f793          	andi	a5,a5,136
HardFault_Handler():
F:/private/nanoCH57x-private/doc/CH572EVT/EVT/EXAM/SRC/StdPeriphDriver/CH57x_sys.c:284
    sys_safe_access_enable();
200006da:	c43e                	sw	a5,8(sp)
200006dc:	0000100f          	fence.i
200006e0:	400017b7          	lui	a5,0x40001
200006e4:	05700613          	li	a2,87
200006e8:	04c78023          	sb	a2,64(a5) # 40001040 <_eusrstack+0x1fffe040>
200006ec:	fa800693          	li	a3,-88
200006f0:	04d78023          	sb	a3,64(a5)
200006f4:	0000100f          	fence.i
F:/private/nanoCH57x-private/doc/CH572EVT/EVT/EXAM/SRC/StdPeriphDriver/CH57x_sys.c:285
    R16_INT_LSI_TUNE = 0xFFFF;
200006f8:	55fd                	li	a1,-1
200006fa:	b7ce                	sh	a1,44(a5)
F:/private/nanoCH57x-private/doc/CH572EVT/EVT/EXAM/SRC/StdPeriphDriver/CH57x_sys.c:286
    sys_safe_access_disable();
200006fc:	04078023          	sb	zero,64(a5)
20000700:	45a2                	lw	a1,8(sp)
__risc_v_enable_irq():
F:\private\nanoCH57x-private\doc\CH572EVT\EVT\EXAM\SRC\RVMSIS/core_riscv.h:138
    __asm volatile("csrrs %0, 0x800, %1" : \
20000702:	8005a5f3          	csrrs	a1,0x800,a1
HardFault_Handler():
F:/private/nanoCH57x-private/doc/CH572EVT/EVT/EXAM/SRC/StdPeriphDriver/CH57x_sys.c:286
20000706:	0000100f          	fence.i
__risc_v_disable_irq():
F:\private\nanoCH57x-private\doc\CH572EVT\EVT\EXAM\SRC\RVMSIS/core_riscv.h:154
    __asm volatile("csrrc %0, 0x800, %1" : \
2000070a:	80073773          	csrrc	a4,0x800,a4
F:\private\nanoCH57x-private\doc\CH572EVT\EVT\EXAM\SRC\RVMSIS/core_riscv.h:156
    return result & 0x88;
2000070e:	08877713          	andi	a4,a4,136
HardFault_Handler():
F:/private/nanoCH57x-private/doc/CH572EVT/EVT/EXAM/SRC/StdPeriphDriver/CH57x_sys.c:287
    sys_safe_access_enable();
20000712:	c63a                	sw	a4,12(sp)
20000714:	0000100f          	fence.i
20000718:	04c78023          	sb	a2,64(a5)
2000071c:	04d78023          	sb	a3,64(a5)
20000720:	0000100f          	fence.i
F:/private/nanoCH57x-private/doc/CH572EVT/EVT/EXAM/SRC/StdPeriphDriver/CH57x_sys.c:288
    R8_RST_WDOG_CTRL |= RB_SOFTWARE_RESET;
20000724:	0467c703          	lbu	a4,70(a5)
20000728:	00176713          	ori	a4,a4,1
2000072c:	04e78323          	sb	a4,70(a5)
F:/private/nanoCH57x-private/doc/CH572EVT/EVT/EXAM/SRC/StdPeriphDriver/CH57x_sys.c:289
    sys_safe_access_disable();
20000730:	04078023          	sb	zero,64(a5)
20000734:	47b2                	lw	a5,12(sp)
__risc_v_enable_irq():
F:\private\nanoCH57x-private\doc\CH572EVT\EVT\EXAM\SRC\RVMSIS/core_riscv.h:138
    __asm volatile("csrrs %0, 0x800, %1" : \
20000736:	8007a7f3          	csrrs	a5,0x800,a5
HardFault_Handler():
F:/private/nanoCH57x-private/doc/CH572EVT/EVT/EXAM/SRC/StdPeriphDriver/CH57x_sys.c:289
2000073a:	0000100f          	fence.i
F:/private/nanoCH57x-private/doc/CH572EVT/EVT/EXAM/SRC/StdPeriphDriver/CH57x_sys.c:290 (discriminator 1)
    while(1);
2000073e:	a001                	j	2000073e <HardFault_Handler+0x82>

20000740 <mDelayuS>:
mDelayuS():
F:/private/nanoCH57x-private/doc/CH572EVT/EVT/EXAM/SRC/StdPeriphDriver/CH57x_sys.c:307
__HIGH_CODE
void mDelayuS(uint16_t t)
{
    uint32_t i;
#if(FREQ_SYS == 100000000)
    i = t * 25;
20000740:	47e5                	li	a5,25
20000742:	02f50533          	mul	a0,a0,a5
F:/private/nanoCH57x-private/doc/CH572EVT/EVT/EXAM/SRC/StdPeriphDriver/CH57x_sys.c:350 (discriminator 1)
        __nop();
    };
#else
    do
    {
        __nop();
20000746:	0001                	nop
F:/private/nanoCH57x-private/doc/CH572EVT/EVT/EXAM/SRC/StdPeriphDriver/CH57x_sys.c:351 (discriminator 1)
    }while(--i);
20000748:	157d                	addi	a0,a0,-1
2000074a:	fd75                	bnez	a0,20000746 <mDelayuS+0x6>
F:/private/nanoCH57x-private/doc/CH572EVT/EVT/EXAM/SRC/StdPeriphDriver/CH57x_sys.c:353
#endif
}
2000074c:	8082                	ret

2000074e <mDelaymS>:
mDelaymS():
F:/private/nanoCH57x-private/doc/CH572EVT/EVT/EXAM/SRC/StdPeriphDriver/CH57x_sys.c:366
 *
 * @return  none
 */
__HIGH_CODE
void mDelaymS(uint16_t t)
{
2000074e:	1141                	addi	sp,sp,-16
20000750:	c422                	sw	s0,8(sp)
20000752:	c606                	sw	ra,12(sp)
20000754:	842a                	mv	s0,a0
F:/private/nanoCH57x-private/doc/CH572EVT/EVT/EXAM/SRC/StdPeriphDriver/CH57x_sys.c:369 (discriminator 1)
    do
    {
        mDelayuS(1000);
20000756:	3e800513          	li	a0,1000
F:/private/nanoCH57x-private/doc/CH572EVT/EVT/EXAM/SRC/StdPeriphDriver/CH57x_sys.c:370 (discriminator 1)
    }while(--t);
2000075a:	147d                	addi	s0,s0,-1
F:/private/nanoCH57x-private/doc/CH572EVT/EVT/EXAM/SRC/StdPeriphDriver/CH57x_sys.c:369 (discriminator 1)
        mDelayuS(1000);
2000075c:	37d5                	jal	20000740 <mDelayuS>
F:/private/nanoCH57x-private/doc/CH572EVT/EVT/EXAM/SRC/StdPeriphDriver/CH57x_sys.c:370 (discriminator 1)
    }while(--t);
2000075e:	08044433          	zext.h	s0,s0
20000762:	f875                	bnez	s0,20000756 <mDelaymS+0x8>
F:/private/nanoCH57x-private/doc/CH572EVT/EVT/EXAM/SRC/StdPeriphDriver/CH57x_sys.c:371
}
20000764:	40b2                	lw	ra,12(sp)
20000766:	4422                	lw	s0,8(sp)
20000768:	0141                	addi	sp,sp,16
2000076a:	8082                	ret

2000076c <FLASH_ROM_BEG_FF>:
FLASH_ROM_BEG_FF():
2000076c:	80040323          	sb	zero,-2042(s0)
20000770:	4715                	li	a4,5
20000772:	87a2                	mv	a5,s0
20000774:	80e40323          	sb	a4,-2042(s0)
20000778:	0001                	nop
2000077a:	0001                	nop
2000077c:	80a40223          	sb	a0,-2044(s0)
20000780:	8067c703          	lbu	a4,-2042(a5)
20000784:	0762                	slli	a4,a4,0x18
20000786:	8761                	srai	a4,a4,0x18
20000788:	fe074ce3          	bltz	a4,20000780 <FLASH_ROM_BEG_FF+0x14>
2000078c:	80a78223          	sb	a0,-2044(a5)
20000790:	8722                	mv	a4,s0
20000792:	80674783          	lbu	a5,-2042(a4)
20000796:	07e2                	slli	a5,a5,0x18
20000798:	87e1                	srai	a5,a5,0x18
2000079a:	fe07cce3          	bltz	a5,20000792 <FLASH_ROM_BEG_FF+0x26>
2000079e:	8082                	ret

200007a0 <FLASH_ROM_BEG>:
FLASH_ROM_BEG():
200007a0:	80040323          	sb	zero,-2042(s0)
200007a4:	4715                	li	a4,5
200007a6:	80e40323          	sb	a4,-2042(s0)
200007aa:	0001                	nop
200007ac:	0001                	nop
200007ae:	80a40223          	sb	a0,-2044(s0)
200007b2:	8082                	ret

200007b4 <FLASH_ROM_END>:
FLASH_ROM_END():
200007b4:	80640783          	lb	a5,-2042(s0)
200007b8:	fe07cee3          	bltz	a5,200007b4 <FLASH_ROM_END>
200007bc:	80040323          	sb	zero,-2042(s0)
200007c0:	8082                	ret

200007c2 <FLASH_ROM_IN>:
FLASH_ROM_IN():
200007c2:	80640783          	lb	a5,-2042(s0)
200007c6:	fe07cee3          	bltz	a5,200007c2 <FLASH_ROM_IN>
200007ca:	80444503          	lbu	a0,-2044(s0)
200007ce:	8082                	ret

200007d0 <FLASH_ROM_OUT>:
FLASH_ROM_OUT():
200007d0:	80640783          	lb	a5,-2042(s0)
200007d4:	fe07cee3          	bltz	a5,200007d0 <FLASH_ROM_OUT>
200007d8:	80a40223          	sb	a0,-2044(s0)
200007dc:	8082                	ret

200007de <FLASH_ROM_ADDR>:
FLASH_ROM_ADDR():
200007de:	1141                	addi	sp,sp,-16
200007e0:	c426                	sw	s1,8(sp)
200007e2:	c24a                	sw	s2,4(sp)
200007e4:	c04e                	sw	s3,0(sp)
200007e6:	c606                	sw	ra,12(sp)
200007e8:	0bf57713          	andi	a4,a0,191
200007ec:	47ad                	li	a5,11
200007ee:	89aa                	mv	s3,a0
200007f0:	892e                	mv	s2,a1
200007f2:	4495                	li	s1,5
200007f4:	00f70663          	beq	a4,a5,20000800 <FLASH_ROM_ADDR+0x22>
200007f8:	4519                	li	a0,6
200007fa:	375d                	jal	200007a0 <FLASH_ROM_BEG>
200007fc:	3f65                	jal	200007b4 <FLASH_ROM_END>
200007fe:	448d                	li	s1,3
20000800:	854e                	mv	a0,s3
20000802:	3f79                	jal	200007a0 <FLASH_ROM_BEG>
20000804:	59fd                	li	s3,-1
20000806:	14fd                	addi	s1,s1,-1
20000808:	01349863          	bne	s1,s3,20000818 <FLASH_ROM_ADDR+0x3a>
2000080c:	40b2                	lw	ra,12(sp)
2000080e:	44a2                	lw	s1,8(sp)
20000810:	4912                	lw	s2,4(sp)
20000812:	4982                	lw	s3,0(sp)
20000814:	0141                	addi	sp,sp,16
20000816:	8082                	ret
20000818:	01095513          	srli	a0,s2,0x10
2000081c:	0ff57513          	zext.b	a0,a0
20000820:	3f45                	jal	200007d0 <FLASH_ROM_OUT>
20000822:	0922                	slli	s2,s2,0x8
20000824:	b7cd                	j	20000806 <FLASH_ROM_ADDR+0x28>

20000826 <FLASH_ROM_WAIT>:
FLASH_ROM_WAIT():
20000826:	1101                	addi	sp,sp,-32
20000828:	cc26                	sw	s1,24(sp)
2000082a:	ce06                	sw	ra,28(sp)
2000082c:	000804b7          	lui	s1,0x80
20000830:	3751                	jal	200007b4 <FLASH_ROM_END>
20000832:	4515                	li	a0,5
20000834:	37b5                	jal	200007a0 <FLASH_ROM_BEG>
20000836:	3771                	jal	200007c2 <FLASH_ROM_IN>
20000838:	3769                	jal	200007c2 <FLASH_ROM_IN>
2000083a:	c62a                	sw	a0,12(sp)
2000083c:	3fa5                	jal	200007b4 <FLASH_ROM_END>
2000083e:	4532                	lw	a0,12(sp)
20000840:	00157793          	andi	a5,a0,1
20000844:	eb89                	bnez	a5,20000856 <FLASH_ROM_WAIT+0x30>
20000846:	00156513          	ori	a0,a0,1
2000084a:	0ff57513          	zext.b	a0,a0
2000084e:	40f2                	lw	ra,28(sp)
20000850:	44e2                	lw	s1,24(sp)
20000852:	6105                	addi	sp,sp,32
20000854:	8082                	ret
20000856:	14fd                	addi	s1,s1,-1 # 7ffff <_data_lma+0x7da5b>
20000858:	fce9                	bnez	s1,20000832 <FLASH_ROM_WAIT+0xc>
2000085a:	4501                	li	a0,0
2000085c:	bfcd                	j	2000084e <FLASH_ROM_WAIT+0x28>

2000085e <FLASH_START>:
FLASH_START():
2000085e:	1141                	addi	sp,sp,-16
20000860:	c606                	sw	ra,12(sp)
20000862:	400017b7          	lui	a5,0x40001
20000866:	05700713          	li	a4,87
2000086a:	04e78023          	sb	a4,64(a5) # 40001040 <_eusrstack+0x1fffe040>
2000086e:	fa800713          	li	a4,-88
20000872:	04e78023          	sb	a4,64(a5)
20000876:	0447c703          	lbu	a4,68(a5)
2000087a:	0ff00513          	li	a0,255
2000087e:	0e076713          	ori	a4,a4,224
20000882:	04e78223          	sb	a4,68(a5)
20000886:	4791                	li	a5,4
20000888:	80f40323          	sb	a5,-2042(s0)
2000088c:	35c5                	jal	2000076c <FLASH_ROM_BEG_FF>
2000088e:	40b2                	lw	ra,12(sp)
20000890:	0141                	addi	sp,sp,16
20000892:	b70d                	j	200007b4 <FLASH_ROM_END>

20000894 <FLASH_CMD_ROM_WRITE>:
FLASH_CMD_ROM_WRITE():
20000894:	1101                	addi	sp,sp,-32
20000896:	cc26                	sw	s1,24(sp)
20000898:	ca4a                	sw	s2,20(sp)
2000089a:	c84e                	sw	s3,16(sp)
2000089c:	c652                	sw	s4,12(sp)
2000089e:	ce06                	sw	ra,28(sp)
200008a0:	892a                	mv	s2,a0
200008a2:	89ae                	mv	s3,a1
200008a4:	84b2                	mv	s1,a2
200008a6:	4a55                	li	s4,21
200008a8:	3f5d                	jal	2000085e <FLASH_START>
200008aa:	e891                	bnez	s1,200008be <FLASH_CMD_ROM_WRITE+0x2a>
200008ac:	3721                	jal	200007b4 <FLASH_ROM_END>
200008ae:	40f2                	lw	ra,28(sp)
200008b0:	8526                	mv	a0,s1
200008b2:	4952                	lw	s2,20(sp)
200008b4:	44e2                	lw	s1,24(sp)
200008b6:	49c2                	lw	s3,16(sp)
200008b8:	4a32                	lw	s4,12(sp)
200008ba:	6105                	addi	sp,sp,32
200008bc:	8082                	ret
200008be:	85ca                	mv	a1,s2
200008c0:	4509                	li	a0,2
200008c2:	3f31                	jal	200007de <FLASH_ROM_ADDR>
200008c4:	0991                	addi	s3,s3,4
200008c6:	ffc9a703          	lw	a4,-4(s3)
200008ca:	4791                	li	a5,4
200008cc:	80e42023          	sw	a4,-2048(s0)

200008d0 <.loop247>:
200008d0:	80640703          	lb	a4,-2042(s0)
200008d4:	fe074ee3          	bltz	a4,200008d0 <.loop247>
200008d8:	81440323          	sb	s4,-2042(s0)
200008dc:	17fd                	addi	a5,a5,-1
200008de:	fbed                	bnez	a5,200008d0 <.loop247>
200008e0:	14fd                	addi	s1,s1,-1
200008e2:	0911                	addi	s2,s2,4
200008e4:	c481                	beqz	s1,200008ec <.loop247+0x1c>
200008e6:	0ff97793          	zext.b	a5,s2
200008ea:	ffe9                	bnez	a5,200008c4 <FLASH_CMD_ROM_WRITE+0x30>
200008ec:	3f2d                	jal	20000826 <FLASH_ROM_WAIT>
200008ee:	fd55                	bnez	a0,200008aa <FLASH_CMD_ROM_WRITE+0x16>
200008f0:	54fd                	li	s1,-1
200008f2:	bf75                	j	200008ae <FLASH_CMD_ROM_WRITE+0x1a>

200008f4 <FLASH_CMD_ROM_ERASE>:
FLASH_CMD_ROM_ERASE():
200008f4:	1101                	addi	sp,sp,-32
200008f6:	cc26                	sw	s1,24(sp)
200008f8:	ca4a                	sw	s2,20(sp)
200008fa:	c84e                	sw	s3,16(sp)
200008fc:	c652                	sw	s4,12(sp)
200008fe:	c456                	sw	s5,8(sp)
20000900:	c25a                	sw	s6,4(sp)
20000902:	ce06                	sw	ra,28(sp)
20000904:	892a                	mv	s2,a0
20000906:	8a32                	mv	s4,a2
20000908:	498d                	li	s3,3
2000090a:	3f91                	jal	2000085e <FLASH_START>
2000090c:	64c1                	lui	s1,0x10
2000090e:	6ac1                	lui	s5,0x10
20000910:	6b05                	lui	s6,0x1
20000912:	fff48793          	addi	a5,s1,-1 # ffff <_data_lma+0xda5b>
20000916:	0127f7b3          	and	a5,a5,s2
2000091a:	e399                	bnez	a5,20000920 <FLASH_CMD_ROM_ERASE+0x2c>
2000091c:	029a7163          	bgeu	s4,s1,2000093e <FLASH_CMD_ROM_ERASE+0x4a>
20000920:	19fd                	addi	s3,s3,-1
20000922:	8091                	srli	s1,s1,0x4
20000924:	fe0997e3          	bnez	s3,20000912 <FLASH_CMD_ROM_ERASE+0x1e>
20000928:	3571                	jal	200007b4 <FLASH_ROM_END>
2000092a:	4501                	li	a0,0
2000092c:	40f2                	lw	ra,28(sp)
2000092e:	44e2                	lw	s1,24(sp)
20000930:	4952                	lw	s2,20(sp)
20000932:	49c2                	lw	s3,16(sp)
20000934:	4a32                	lw	s4,12(sp)
20000936:	4aa2                	lw	s5,8(sp)
20000938:	4b12                	lw	s6,4(sp)
2000093a:	6105                	addi	sp,sp,32
2000093c:	8082                	ret
2000093e:	0d800513          	li	a0,216
20000942:	01548863          	beq	s1,s5,20000952 <FLASH_CMD_ROM_ERASE+0x5e>
20000946:	02000513          	li	a0,32
2000094a:	01648463          	beq	s1,s6,20000952 <FLASH_CMD_ROM_ERASE+0x5e>
2000094e:	08100513          	li	a0,129
20000952:	85ca                	mv	a1,s2
20000954:	3569                	jal	200007de <FLASH_ROM_ADDR>
20000956:	3dc1                	jal	20000826 <FLASH_ROM_WAIT>
20000958:	c509                	beqz	a0,20000962 <FLASH_CMD_ROM_ERASE+0x6e>
2000095a:	9926                	add	s2,s2,s1
2000095c:	409a0a33          	sub	s4,s4,s1
20000960:	bf75                	j	2000091c <FLASH_CMD_ROM_ERASE+0x28>
20000962:	557d                	li	a0,-1
20000964:	b7e1                	j	2000092c <FLASH_CMD_ROM_ERASE+0x38>

20000966 <FLASH_CMD_ROM_VERIFY>:
FLASH_CMD_ROM_VERIFY():
20000966:	1101                	addi	sp,sp,-32
20000968:	ce06                	sw	ra,28(sp)
2000096a:	cc26                	sw	s1,24(sp)
2000096c:	ca4a                	sw	s2,20(sp)
2000096e:	84b2                	mv	s1,a2
20000970:	c84e                	sw	s3,16(sp)
20000972:	c62a                	sw	a0,12(sp)
20000974:	892e                	mv	s2,a1
20000976:	35e5                	jal	2000085e <FLASH_START>
20000978:	4532                	lw	a0,12(sp)
2000097a:	14fd                	addi	s1,s1,-1
2000097c:	59fd                	li	s3,-1
2000097e:	85aa                	mv	a1,a0
20000980:	452d                	li	a0,11
20000982:	3db1                	jal	200007de <FLASH_ROM_ADDR>
20000984:	01349a63          	bne	s1,s3,20000998 <FLASH_CMD_ROM_VERIFY+0x32>
20000988:	3535                	jal	200007b4 <FLASH_ROM_END>
2000098a:	40f2                	lw	ra,28(sp)
2000098c:	8526                	mv	a0,s1
2000098e:	4952                	lw	s2,20(sp)
20000990:	44e2                	lw	s1,24(sp)
20000992:	49c2                	lw	s3,16(sp)
20000994:	6105                	addi	sp,sp,32
20000996:	8082                	ret
20000998:	352d                	jal	200007c2 <FLASH_ROM_IN>
2000099a:	0034f793          	andi	a5,s1,3
2000099e:	eb91                	bnez	a5,200009b2 <FLASH_CMD_ROM_VERIFY+0x4c>
200009a0:	80042683          	lw	a3,-2048(s0)
200009a4:	00092703          	lw	a4,0(s2)
200009a8:	00490793          	addi	a5,s2,4
200009ac:	fce69ee3          	bne	a3,a4,20000988 <FLASH_CMD_ROM_VERIFY+0x22>
200009b0:	893e                	mv	s2,a5
200009b2:	14fd                	addi	s1,s1,-1
200009b4:	bfc1                	j	20000984 <FLASH_CMD_ROM_VERIFY+0x1e>

200009b6 <FLASH_CMD_ROM_PWR>:
FLASH_CMD_ROM_PWR():
200009b6:	1101                	addi	sp,sp,-32
200009b8:	ce06                	sw	ra,28(sp)
200009ba:	c62a                	sw	a0,12(sp)
200009bc:	354d                	jal	2000085e <FLASH_START>
200009be:	4532                	lw	a0,12(sp)
200009c0:	33c5                	jal	200007a0 <FLASH_ROM_BEG>
200009c2:	40f2                	lw	ra,28(sp)
200009c4:	6105                	addi	sp,sp,32
200009c6:	b3fd                	j	200007b4 <FLASH_ROM_END>

200009c8 <FLASH_CMD_GET_ROM_INFO>:
FLASH_CMD_GET_ROM_INFO():
200009c8:	1101                	addi	sp,sp,-32
200009ca:	ce06                	sw	ra,28(sp)
200009cc:	cc26                	sw	s1,24(sp)
200009ce:	ca4a                	sw	s2,20(sp)
200009d0:	c84e                	sw	s3,16(sp)
200009d2:	c652                	sw	s4,12(sp)
200009d4:	89aa                	mv	s3,a0
200009d6:	c456                	sw	s5,8(sp)
200009d8:	892e                	mv	s2,a1
200009da:	3551                	jal	2000085e <FLASH_START>
200009dc:	000405b7          	lui	a1,0x40
200009e0:	00b9e5b3          	or	a1,s3,a1
200009e4:	452d                	li	a0,11
200009e6:	3be5                	jal	200007de <FLASH_ROM_ADDR>
200009e8:	4481                	li	s1,0
200009ea:	4a8d                	li	s5,3
200009ec:	4a21                	li	s4,8
200009ee:	3bd1                	jal	200007c2 <FLASH_ROM_IN>
200009f0:	01549663          	bne	s1,s5,200009fc <FLASH_CMD_GET_ROM_INFO+0x34>
200009f4:	80042783          	lw	a5,-2048(s0)
200009f8:	00f92023          	sw	a5,0(s2)
200009fc:	0485                	addi	s1,s1,1
200009fe:	ff4498e3          	bne	s1,s4,200009ee <FLASH_CMD_GET_ROM_INFO+0x26>
20000a02:	80042783          	lw	a5,-2048(s0)
20000a06:	01299713          	slli	a4,s3,0x12
20000a0a:	00075c63          	bgez	a4,20000a22 <FLASH_CMD_GET_ROM_INFO+0x5a>
20000a0e:	00f91223          	sh	a5,4(s2)
20000a12:	40f2                	lw	ra,28(sp)
20000a14:	44e2                	lw	s1,24(sp)
20000a16:	4952                	lw	s2,20(sp)
20000a18:	49c2                	lw	s3,16(sp)
20000a1a:	4a32                	lw	s4,12(sp)
20000a1c:	4aa2                	lw	s5,8(sp)
20000a1e:	6105                	addi	sp,sp,32
20000a20:	bb51                	j	200007b4 <FLASH_ROM_END>
20000a22:	00f92223          	sw	a5,4(s2)
20000a26:	b7f5                	j	20000a12 <FLASH_CMD_GET_ROM_INFO+0x4a>

20000a28 <FLASH_CMD_GET_UNIQUE_ID>:
FLASH_CMD_GET_UNIQUE_ID():
20000a28:	1141                	addi	sp,sp,-16
20000a2a:	c606                	sw	ra,12(sp)
20000a2c:	c426                	sw	s1,8(sp)
20000a2e:	c24a                	sw	s2,4(sp)
20000a30:	c04e                	sw	s3,0(sp)
20000a32:	89ae                	mv	s3,a1
20000a34:	352d                	jal	2000085e <FLASH_START>
20000a36:	4581                	li	a1,0
20000a38:	04b00513          	li	a0,75
20000a3c:	334d                	jal	200007de <FLASH_ROM_ADDR>
20000a3e:	44bd                	li	s1,15
20000a40:	597d                	li	s2,-1
20000a42:	3341                	jal	200007c2 <FLASH_ROM_IN>
20000a44:	0074f793          	andi	a5,s1,7
20000a48:	97ce                	add	a5,a5,s3
20000a4a:	0007c703          	lbu	a4,0(a5)
20000a4e:	14fd                	addi	s1,s1,-1
20000a50:	8d39                	xor	a0,a0,a4
20000a52:	00a78023          	sb	a0,0(a5)
20000a56:	ff2496e3          	bne	s1,s2,20000a42 <FLASH_CMD_GET_UNIQUE_ID+0x1a>
20000a5a:	40b2                	lw	ra,12(sp)
20000a5c:	44a2                	lw	s1,8(sp)
20000a5e:	4912                	lw	s2,4(sp)
20000a60:	4982                	lw	s3,0(sp)
20000a62:	0141                	addi	sp,sp,16
20000a64:	bb81                	j	200007b4 <FLASH_ROM_END>

20000a66 <FLASH_CMD_ROM_SW_RESET>:
FLASH_CMD_ROM_SW_RESET():
20000a66:	1141                	addi	sp,sp,-16
20000a68:	c606                	sw	ra,12(sp)
20000a6a:	3bd5                	jal	2000085e <FLASH_START>
20000a6c:	06600513          	li	a0,102
20000a70:	3b05                	jal	200007a0 <FLASH_ROM_BEG>
20000a72:	3389                	jal	200007b4 <FLASH_ROM_END>
20000a74:	09900513          	li	a0,153
20000a78:	3325                	jal	200007a0 <FLASH_ROM_BEG>
20000a7a:	40b2                	lw	ra,12(sp)
20000a7c:	0141                	addi	sp,sp,16
20000a7e:	bb1d                	j	200007b4 <FLASH_ROM_END>

Disassembly of section .text:

00000a84 <handle_reset>:
handle_reset():
F:/private/nanoCH57x-private/doc/CH572EVT/EVT/EXAM/SRC/Startup/startup_CH572.S:119
	.weak	handle_reset
	.align	1
handle_reset:
.option push 
.option	norelax 
	la gp, __global_pointer$
     a84:	20001197          	auipc	gp,0x20001
     a88:	85c18193          	addi	gp,gp,-1956 # 200012e0 <__global_pointer$>
F:/private/nanoCH57x-private/doc/CH572EVT/EVT/EXAM/SRC/Startup/startup_CH572.S:121
1:
	la sp, _eusrstack 
     a8c:	20002117          	auipc	sp,0x20002
     a90:	57410113          	addi	sp,sp,1396 # 20003000 <_eusrstack>
F:/private/nanoCH57x-private/doc/CH572EVT/EVT/EXAM/SRC/Startup/startup_CH572.S:126
.option	pop

/* Load highcode code  section from flash to RAM */
2:
    la a0, _highcode_lma
     a94:	00400513          	li	a0,4
F:/private/nanoCH57x-private/doc/CH572EVT/EVT/EXAM/SRC/Startup/startup_CH572.S:127
    la a1, _highcode_vma_start
     a98:	1ffff597          	auipc	a1,0x1ffff
     a9c:	56858593          	addi	a1,a1,1384 # 20000000 <_highcode_vma_start>
F:/private/nanoCH57x-private/doc/CH572EVT/EVT/EXAM/SRC/Startup/startup_CH572.S:128
    la a2, _highcode_vma_end
     aa0:	20000617          	auipc	a2,0x20000
     aa4:	fe060613          	addi	a2,a2,-32 # 20000a80 <impure_data>
F:/private/nanoCH57x-private/doc/CH572EVT/EVT/EXAM/SRC/Startup/startup_CH572.S:129
    bgeu a1, a2, 2f
     aa8:	00c5fa63          	bgeu	a1,a2,abc <handle_reset+0x38>
F:/private/nanoCH57x-private/doc/CH572EVT/EVT/EXAM/SRC/Startup/startup_CH572.S:131
1:
    lw t0, (a0)
     aac:	00052283          	lw	t0,0(a0)
F:/private/nanoCH57x-private/doc/CH572EVT/EVT/EXAM/SRC/Startup/startup_CH572.S:132
    sw t0, (a1)
     ab0:	0055a023          	sw	t0,0(a1)
F:/private/nanoCH57x-private/doc/CH572EVT/EVT/EXAM/SRC/Startup/startup_CH572.S:133
    addi a0, a0, 4
     ab4:	0511                	addi	a0,a0,4
F:/private/nanoCH57x-private/doc/CH572EVT/EVT/EXAM/SRC/Startup/startup_CH572.S:134
    addi a1, a1, 4
     ab6:	0591                	addi	a1,a1,4
F:/private/nanoCH57x-private/doc/CH572EVT/EVT/EXAM/SRC/Startup/startup_CH572.S:135
    bltu a1, a2, 1b
     ab8:	fec5eae3          	bltu	a1,a2,aac <handle_reset+0x28>
F:/private/nanoCH57x-private/doc/CH572EVT/EVT/EXAM/SRC/Startup/startup_CH572.S:139

/* Load data section from flash to RAM */
2:
	la a0, _data_lma
     abc:	00002517          	auipc	a0,0x2
     ac0:	ae850513          	addi	a0,a0,-1304 # 25a4 <_data_lma>
F:/private/nanoCH57x-private/doc/CH572EVT/EVT/EXAM/SRC/Startup/startup_CH572.S:140
	la a1, _data_vma
     ac4:	20000597          	auipc	a1,0x20000
     ac8:	fbc58593          	addi	a1,a1,-68 # 20000a80 <impure_data>
F:/private/nanoCH57x-private/doc/CH572EVT/EVT/EXAM/SRC/Startup/startup_CH572.S:141
	la a2, _edata
     acc:	80c18613          	addi	a2,gp,-2036 # 20000aec <Freq_LSI>
F:/private/nanoCH57x-private/doc/CH572EVT/EVT/EXAM/SRC/Startup/startup_CH572.S:142
	bgeu a1, a2, 2f
     ad0:	00c5fa63          	bgeu	a1,a2,ae4 <handle_reset+0x60>
F:/private/nanoCH57x-private/doc/CH572EVT/EVT/EXAM/SRC/Startup/startup_CH572.S:144
1:
	lw t0, (a0)
     ad4:	00052283          	lw	t0,0(a0)
F:/private/nanoCH57x-private/doc/CH572EVT/EVT/EXAM/SRC/Startup/startup_CH572.S:145
	sw t0, (a1)
     ad8:	0055a023          	sw	t0,0(a1)
F:/private/nanoCH57x-private/doc/CH572EVT/EVT/EXAM/SRC/Startup/startup_CH572.S:146
	addi a0, a0, 4
     adc:	0511                	addi	a0,a0,4
F:/private/nanoCH57x-private/doc/CH572EVT/EVT/EXAM/SRC/Startup/startup_CH572.S:147
	addi a1, a1, 4
     ade:	0591                	addi	a1,a1,4
F:/private/nanoCH57x-private/doc/CH572EVT/EVT/EXAM/SRC/Startup/startup_CH572.S:148
	bltu a1, a2, 1b
     ae0:	fec5eae3          	bltu	a1,a2,ad4 <handle_reset+0x50>
F:/private/nanoCH57x-private/doc/CH572EVT/EVT/EXAM/SRC/Startup/startup_CH572.S:151
2:
	/* clear bss section */
	la a0, _sbss
     ae4:	80c18513          	addi	a0,gp,-2036 # 20000aec <Freq_LSI>
F:/private/nanoCH57x-private/doc/CH572EVT/EVT/EXAM/SRC/Startup/startup_CH572.S:152
	la a1, _ebss
     ae8:	82818593          	addi	a1,gp,-2008 # 20000b08 <_ebss>
F:/private/nanoCH57x-private/doc/CH572EVT/EVT/EXAM/SRC/Startup/startup_CH572.S:153
	bgeu a0, a1, 2f
     aec:	00b57763          	bgeu	a0,a1,afa <handle_reset+0x76>
F:/private/nanoCH57x-private/doc/CH572EVT/EVT/EXAM/SRC/Startup/startup_CH572.S:155
1:
	sw zero, (a0)
     af0:	00052023          	sw	zero,0(a0)
F:/private/nanoCH57x-private/doc/CH572EVT/EVT/EXAM/SRC/Startup/startup_CH572.S:156
	addi a0, a0, 4
     af4:	0511                	addi	a0,a0,4
F:/private/nanoCH57x-private/doc/CH572EVT/EVT/EXAM/SRC/Startup/startup_CH572.S:157
	bltu a0, a1, 1b
     af6:	feb56de3          	bltu	a0,a1,af0 <handle_reset+0x6c>
F:/private/nanoCH57x-private/doc/CH572EVT/EVT/EXAM/SRC/Startup/startup_CH572.S:161
2:
	/* 用户模式中断使能 */
	/*预取使能*/
	li t0, 0x25
     afa:	02500293          	li	t0,37
F:/private/nanoCH57x-private/doc/CH572EVT/EVT/EXAM/SRC/Startup/startup_CH572.S:162
	csrw 0xbc0, t0
     afe:	bc029073          	csrw	0xbc0,t0
F:/private/nanoCH57x-private/doc/CH572EVT/EVT/EXAM/SRC/Startup/startup_CH572.S:164
	/* 打开嵌套中断、硬件压栈功能 */
	li t0, 0x3
     b02:	428d                	li	t0,3
F:/private/nanoCH57x-private/doc/CH572EVT/EVT/EXAM/SRC/Startup/startup_CH572.S:165
	csrw 0x804, t0
     b04:	80429073          	csrw	0x804,t0
F:/private/nanoCH57x-private/doc/CH572EVT/EVT/EXAM/SRC/Startup/startup_CH572.S:166
	li t0, 0x1
     b08:	4285                	li	t0,1
F:/private/nanoCH57x-private/doc/CH572EVT/EVT/EXAM/SRC/Startup/startup_CH572.S:167
	csrw 0xbc1, t0
     b0a:	bc129073          	csrw	0xbc1,t0
F:/private/nanoCH57x-private/doc/CH572EVT/EVT/EXAM/SRC/Startup/startup_CH572.S:169
	
    li t0, 0x88
     b0e:	08800293          	li	t0,136
F:/private/nanoCH57x-private/doc/CH572EVT/EVT/EXAM/SRC/Startup/startup_CH572.S:170
    csrw mstatus, t0
     b12:	30029073          	csrw	mstatus,t0
F:/private/nanoCH57x-private/doc/CH572EVT/EVT/EXAM/SRC/Startup/startup_CH572.S:171
	la t0, _vector_base
     b16:	1ffff297          	auipc	t0,0x1ffff
     b1a:	4ea28293          	addi	t0,t0,1258 # 20000000 <_highcode_vma_start>
F:/private/nanoCH57x-private/doc/CH572EVT/EVT/EXAM/SRC/Startup/startup_CH572.S:174

	/* 配置向量表模式为绝对地址模式 */
    ori t0, t0, 3
     b1e:	0032e293          	ori	t0,t0,3
F:/private/nanoCH57x-private/doc/CH572EVT/EVT/EXAM/SRC/Startup/startup_CH572.S:175
	csrw mtvec, t0
     b22:	30529073          	csrw	mtvec,t0
F:/private/nanoCH57x-private/doc/CH572EVT/EVT/EXAM/SRC/Startup/startup_CH572.S:177

	la t0, main
     b26:	00000297          	auipc	t0,0x0
     b2a:	04828293          	addi	t0,t0,72 # b6e <main>
F:/private/nanoCH57x-private/doc/CH572EVT/EVT/EXAM/SRC/Startup/startup_CH572.S:178
	csrw mepc, t0
     b2e:	34129073          	csrw	mepc,t0
F:/private/nanoCH57x-private/doc/CH572EVT/EVT/EXAM/SRC/Startup/startup_CH572.S:180
	
	mret
     b32:	30200073          	mret

00000b36 <memset>:
memset():
     b36:	832a                	mv	t1,a0
     b38:	c611                	beqz	a2,b44 <memset+0xe>
     b3a:	00b30023          	sb	a1,0(t1)
     b3e:	167d                	addi	a2,a2,-1
     b40:	0305                	addi	t1,t1,1
     b42:	fe65                	bnez	a2,b3a <memset+0x4>
     b44:	8082                	ret

00000b46 <DebugInit>:
DebugInit():
F:\private\nanoCH57x-private\doc\CH572EVT\EVT\EXAM\PM\obj/../src/Main.c:28
{
     b46:	1141                	addi	sp,sp,-16
     b48:	c606                	sw	ra,12(sp)
F:\private\nanoCH57x-private\doc\CH572EVT\EVT\EXAM\PM\obj/../src/Main.c:29
    GPIOA_SetBits(bTXD_0);
     b4a:	400017b7          	lui	a5,0x40001
     b4e:	4721                	li	a4,8
     b50:	0ae7ac23          	sw	a4,184(a5) # 400010b8 <_eusrstack+0x1fffe0b8>
F:\private\nanoCH57x-private\doc\CH572EVT\EVT\EXAM\PM\obj/../src/Main.c:30
    GPIOA_ModeCfg(bRXD_0, GPIO_ModeIN_PU);      // RXD-配置上拉输入
     b54:	4585                	li	a1,1
     b56:	4511                	li	a0,4
     b58:	2acd                	jal	d4a <GPIOA_ModeCfg>
F:\private\nanoCH57x-private\doc\CH572EVT\EVT\EXAM\PM\obj/../src/Main.c:31
    GPIOA_ModeCfg(bTXD_0, GPIO_ModeOut_PP_5mA); // TXD-配置推挽输出，注意先让IO口输出高电平
     b5a:	458d                	li	a1,3
     b5c:	4521                	li	a0,8
     b5e:	22f5                	jal	d4a <GPIOA_ModeCfg>
F:\private\nanoCH57x-private\doc\CH572EVT\EVT\EXAM\PM\obj/../src/Main.c:32
    UART_Remap(ENABLE, UART_TX_REMAP_PA3, UART_RX_REMAP_PA2);
     b60:	4601                	li	a2,0
     b62:	4581                	li	a1,0
     b64:	4505                	li	a0,1
     b66:	21e9                	jal	1030 <UART_Remap>
F:\private\nanoCH57x-private\doc\CH572EVT\EVT\EXAM\PM\obj/../src/Main.c:34
}
     b68:	40b2                	lw	ra,12(sp)
     b6a:	0141                	addi	sp,sp,16
F:\private\nanoCH57x-private\doc\CH572EVT\EVT\EXAM\PM\obj/../src/Main.c:33
    UART_DefInit();
     b6c:	a949                	j	ffe <UART_DefInit>

00000b6e <main>:
main():
F:\private\nanoCH57x-private\doc\CH572EVT\EVT\EXAM\PM\obj/../src/Main.c:44
{
     b6e:	1141                	addi	sp,sp,-16
F:\private\nanoCH57x-private\doc\CH572EVT\EVT\EXAM\PM\obj/../src/Main.c:45
    HSECFG_Capacitance(HSECap_18p);
     b70:	4519                	li	a0,6
F:\private\nanoCH57x-private\doc\CH572EVT\EVT\EXAM\PM\obj/../src/Main.c:44
{
     b72:	c606                	sw	ra,12(sp)
F:\private\nanoCH57x-private\doc\CH572EVT\EVT\EXAM\PM\obj/../src/Main.c:45
    HSECFG_Capacitance(HSECap_18p);
     b74:	2259                	jal	cfa <HSECFG_Capacitance>
F:\private\nanoCH57x-private\doc\CH572EVT\EVT\EXAM\PM\obj/../src/Main.c:46
    SetSysClock(CLK_SOURCE_HSE_PLL_100MHz);
     b76:	04600513          	li	a0,70
     b7a:	20000097          	auipc	ra,0x20000
     b7e:	902080e7          	jalr	-1790(ra) # 2000047c <SetSysClock>
F:\private\nanoCH57x-private\doc\CH572EVT\EVT\EXAM\PM\obj/../src/Main.c:47
    GPIOA_ModeCfg(GPIO_Pin_All, GPIO_ModeIN_PU);
     b82:	4585                	li	a1,1
     b84:	557d                	li	a0,-1
     b86:	22d1                	jal	d4a <GPIOA_ModeCfg>
F:\private\nanoCH57x-private\doc\CH572EVT\EVT\EXAM\PM\obj/../src/Main.c:50
    DebugInit();
     b88:	3f7d                	jal	b46 <DebugInit>
F:\private\nanoCH57x-private\doc\CH572EVT\EVT\EXAM\PM\obj/../src/Main.c:51
    PRINT("Start @ChipID=%02x\n", R8_CHIP_ID);
     b8a:	400017b7          	lui	a5,0x40001
     b8e:	0417c583          	lbu	a1,65(a5) # 40001041 <_eusrstack+0x1fffe041>
     b92:	00002517          	auipc	a0,0x2
     b96:	89650513          	addi	a0,a0,-1898 # 2428 <_read+0xe>
     b9a:	2bd5                	jal	118e <iprintf>
F:\private\nanoCH57x-private\doc\CH572EVT\EVT\EXAM\PM\obj/../src/Main.c:52
    DelayMs(200);
     b9c:	0c800513          	li	a0,200
     ba0:	20000097          	auipc	ra,0x20000
     ba4:	bae080e7          	jalr	-1106(ra) # 2000074e <mDelaymS>
F:\private\nanoCH57x-private\doc\CH572EVT\EVT\EXAM\PM\obj/../src/Main.c:56
    GPIOA_ModeCfg(GPIO_Pin_5, GPIO_ModeIN_PU);
     ba8:	4585                	li	a1,1
     baa:	02000513          	li	a0,32
     bae:	2a71                	jal	d4a <GPIOA_ModeCfg>
F:\private\nanoCH57x-private\doc\CH572EVT\EVT\EXAM\PM\obj/../src/Main.c:57
    GPIOA_ITModeCfg(GPIO_Pin_5, GPIO_ITMode_FallEdge); // 下降沿唤醒
     bb0:	4589                	li	a1,2
     bb2:	02000513          	li	a0,32
     bb6:	2c19                	jal	dcc <GPIOA_ITModeCfg>
PFIC_EnableIRQ():
F:\private\nanoCH57x-private\doc\CH572EVT\EVT\EXAM\SRC\RVMSIS/core_riscv.h:173
    PFIC->IENR[((uint32_t)(IRQn) >> 5)] = (1 << ((uint32_t)(IRQn) & 0x1F));
     bb8:	e000e7b7          	lui	a5,0xe000e
     bbc:	00020737          	lui	a4,0x20
     bc0:	10e7a023          	sw	a4,256(a5) # e000e100 <_eusrstack+0xc000b100>
main():
F:\private\nanoCH57x-private\doc\CH572EVT\EVT\EXAM\PM\obj/../src/Main.c:59
    PWR_PeriphWakeUpCfg(ENABLE, RB_SLP_GPIO_WAKE, Fsys_Delay_4096);
     bc4:	461d                	li	a2,7
     bc6:	45c1                	li	a1,16
     bc8:	4505                	li	a0,1
     bca:	2c9d                	jal	e40 <PWR_PeriphWakeUpCfg>
F:\private\nanoCH57x-private\doc\CH572EVT\EVT\EXAM\PM\obj/../src/Main.c:63
    PRINT("IDLE mode sleep \n");
     bcc:	00002517          	auipc	a0,0x2
     bd0:	87050513          	addi	a0,a0,-1936 # 243c <_read+0x22>
     bd4:	2df5                	jal	12d0 <puts>
F:\private\nanoCH57x-private\doc\CH572EVT\EVT\EXAM\PM\obj/../src/Main.c:64
    DelayMs(1);
     bd6:	4505                	li	a0,1
     bd8:	20000097          	auipc	ra,0x20000
     bdc:	b76080e7          	jalr	-1162(ra) # 2000074e <mDelaymS>
F:\private\nanoCH57x-private\doc\CH572EVT\EVT\EXAM\PM\obj/../src/Main.c:65
    LowPower_Idle();
     be0:	1ffff097          	auipc	ra,0x1ffff
     be4:	4c0080e7          	jalr	1216(ra) # 200000a0 <LowPower_Idle>
F:\private\nanoCH57x-private\doc\CH572EVT\EVT\EXAM\PM\obj/../src/Main.c:66
    PRINT("wake.. \n");
     be8:	00002517          	auipc	a0,0x2
     bec:	86850513          	addi	a0,a0,-1944 # 2450 <_read+0x36>
     bf0:	25c5                	jal	12d0 <puts>
F:\private\nanoCH57x-private\doc\CH572EVT\EVT\EXAM\PM\obj/../src/Main.c:67
    DelayMs(500);
     bf2:	1f400513          	li	a0,500
     bf6:	20000097          	auipc	ra,0x20000
     bfa:	b58080e7          	jalr	-1192(ra) # 2000074e <mDelaymS>
F:\private\nanoCH57x-private\doc\CH572EVT\EVT\EXAM\PM\obj/../src/Main.c:71
    PRINT("Halt mode sleep \n");
     bfe:	00002517          	auipc	a0,0x2
     c02:	85a50513          	addi	a0,a0,-1958 # 2458 <_read+0x3e>
     c06:	25e9                	jal	12d0 <puts>
F:\private\nanoCH57x-private\doc\CH572EVT\EVT\EXAM\PM\obj/../src/Main.c:72
    DelayMs(2);
     c08:	4509                	li	a0,2
     c0a:	20000097          	auipc	ra,0x20000
     c0e:	b44080e7          	jalr	-1212(ra) # 2000074e <mDelaymS>
F:\private\nanoCH57x-private\doc\CH572EVT\EVT\EXAM\PM\obj/../src/Main.c:73
    LowPower_Halt();
     c12:	1ffff097          	auipc	ra,0x1ffff
     c16:	4ce080e7          	jalr	1230(ra) # 200000e0 <LowPower_Halt>
F:\private\nanoCH57x-private\doc\CH572EVT\EVT\EXAM\PM\obj/../src/Main.c:74
    HSECFG_Current(HSE_RCur_100); // 降为额定电流(低功耗函数中提升了HSE偏置电流)
     c1a:	4505                	li	a0,1
     c1c:	2841                	jal	cac <HSECFG_Current>
F:\private\nanoCH57x-private\doc\CH572EVT\EVT\EXAM\PM\obj/../src/Main.c:75
    DelayMs(2);
     c1e:	4509                	li	a0,2
     c20:	20000097          	auipc	ra,0x20000
     c24:	b2e080e7          	jalr	-1234(ra) # 2000074e <mDelaymS>
F:\private\nanoCH57x-private\doc\CH572EVT\EVT\EXAM\PM\obj/../src/Main.c:76
    PRINT("wake.. \n");
     c28:	00002517          	auipc	a0,0x2
     c2c:	82850513          	addi	a0,a0,-2008 # 2450 <_read+0x36>
     c30:	2545                	jal	12d0 <puts>
F:\private\nanoCH57x-private\doc\CH572EVT\EVT\EXAM\PM\obj/../src/Main.c:77
    DelayMs(500);
     c32:	1f400513          	li	a0,500
     c36:	20000097          	auipc	ra,0x20000
     c3a:	b18080e7          	jalr	-1256(ra) # 2000074e <mDelaymS>
F:\private\nanoCH57x-private\doc\CH572EVT\EVT\EXAM\PM\obj/../src/Main.c:81
    PRINT("sleep mode sleep \n");
     c3e:	00002517          	auipc	a0,0x2
     c42:	82e50513          	addi	a0,a0,-2002 # 246c <_read+0x52>
     c46:	2569                	jal	12d0 <puts>
F:\private\nanoCH57x-private\doc\CH572EVT\EVT\EXAM\PM\obj/../src/Main.c:82
    DelayMs(2);
     c48:	4509                	li	a0,2
     c4a:	20000097          	auipc	ra,0x20000
     c4e:	b04080e7          	jalr	-1276(ra) # 2000074e <mDelaymS>
F:\private\nanoCH57x-private\doc\CH572EVT\EVT\EXAM\PM\obj/../src/Main.c:83
    LowPower_Sleep( RB_PWR_RAM12K | RB_PWR_EXTEND);
     c52:	4529                	li	a0,10
     c54:	1ffff097          	auipc	ra,0x1ffff
     c58:	5b4080e7          	jalr	1460(ra) # 20000208 <LowPower_Sleep>
F:\private\nanoCH57x-private\doc\CH572EVT\EVT\EXAM\PM\obj/../src/Main.c:84
    PRINT("wake.. \n");
     c5c:	00001517          	auipc	a0,0x1
     c60:	7f450513          	addi	a0,a0,2036 # 2450 <_read+0x36>
     c64:	25b5                	jal	12d0 <puts>
F:\private\nanoCH57x-private\doc\CH572EVT\EVT\EXAM\PM\obj/../src/Main.c:85
    DelayMs(500);
     c66:	1f400513          	li	a0,500
     c6a:	20000097          	auipc	ra,0x20000
     c6e:	ae4080e7          	jalr	-1308(ra) # 2000074e <mDelaymS>
F:\private\nanoCH57x-private\doc\CH572EVT\EVT\EXAM\PM\obj/../src/Main.c:89
    PRINT("shut down mode sleep \n");
     c72:	00002517          	auipc	a0,0x2
     c76:	80e50513          	addi	a0,a0,-2034 # 2480 <_read+0x66>
     c7a:	2d99                	jal	12d0 <puts>
F:\private\nanoCH57x-private\doc\CH572EVT\EVT\EXAM\PM\obj/../src/Main.c:90
    DelayMs(2);
     c7c:	4509                	li	a0,2
     c7e:	20000097          	auipc	ra,0x20000
     c82:	ad0080e7          	jalr	-1328(ra) # 2000074e <mDelaymS>
F:\private\nanoCH57x-private\doc\CH572EVT\EVT\EXAM\PM\obj/../src/Main.c:91
    LowPower_Shutdown(0); //全部断电，唤醒后复位
     c86:	4501                	li	a0,0
     c88:	1ffff097          	auipc	ra,0x1ffff
     c8c:	692080e7          	jalr	1682(ra) # 2000031a <LowPower_Shutdown>
F:\private\nanoCH57x-private\doc\CH572EVT\EVT\EXAM\PM\obj/../src/Main.c:96
    HSECFG_Current(HSE_RCur_100); // 降为额定电流(低功耗函数中提升了HSE偏置电流)
     c90:	4505                	li	a0,1
     c92:	2829                	jal	cac <HSECFG_Current>
F:\private\nanoCH57x-private\doc\CH572EVT\EVT\EXAM\PM\obj/../src/Main.c:97
    PRINT("wake.. \n");
     c94:	00001517          	auipc	a0,0x1
     c98:	7bc50513          	addi	a0,a0,1980 # 2450 <_read+0x36>
     c9c:	2d15                	jal	12d0 <puts>
F:\private\nanoCH57x-private\doc\CH572EVT\EVT\EXAM\PM\obj/../src/Main.c:98
    DelayMs(500);
     c9e:	1f400513          	li	a0,500
     ca2:	20000097          	auipc	ra,0x20000
     ca6:	aac080e7          	jalr	-1364(ra) # 2000074e <mDelaymS>
F:\private\nanoCH57x-private\doc\CH572EVT\EVT\EXAM\PM\obj/../src/Main.c:101 (discriminator 1)
    while(1)
     caa:	a001                	j	caa <main+0x13c>

00000cac <HSECFG_Current>:
HSECFG_Current():
F:/private/nanoCH57x-private/doc/CH572EVT/EVT/EXAM/SRC/StdPeriphDriver/CH57x_clk.c:60
 */
void HSECFG_Current(HSECurrentTypeDef c)
{
    uint8_t x32M_c;

    x32M_c = R8_XT32M_TUNE;
     cac:	400017b7          	lui	a5,0x40001
     cb0:	04e7c703          	lbu	a4,78(a5) # 4000104e <_eusrstack+0x1fffe04e>
F:/private/nanoCH57x-private/doc/CH572EVT/EVT/EXAM/SRC/StdPeriphDriver/CH57x_clk.c:61
    x32M_c = (x32M_c & 0xfc) | (c & 0x03);
     cb4:	890d                	andi	a0,a0,3
F:/private/nanoCH57x-private/doc/CH572EVT/EVT/EXAM/SRC/StdPeriphDriver/CH57x_clk.c:57
{
     cb6:	1141                	addi	sp,sp,-16
F:/private/nanoCH57x-private/doc/CH572EVT/EVT/EXAM/SRC/StdPeriphDriver/CH57x_clk.c:61
    x32M_c = (x32M_c & 0xfc) | (c & 0x03);
     cb8:	0fc77713          	andi	a4,a4,252
     cbc:	8f49                	or	a4,a4,a0
__risc_v_disable_irq():
F:\private\nanoCH57x-private\doc\CH572EVT\EVT\EXAM\SRC\RVMSIS/core_riscv.h:154
    __asm volatile("csrrc %0, 0x800, %1" : \
     cbe:	08800693          	li	a3,136
     cc2:	8006b6f3          	csrrc	a3,0x800,a3
F:\private\nanoCH57x-private\doc\CH572EVT\EVT\EXAM\SRC\RVMSIS/core_riscv.h:156
    return result & 0x88;
     cc6:	0886f693          	andi	a3,a3,136
HSECFG_Current():
F:/private/nanoCH57x-private/doc/CH572EVT/EVT/EXAM/SRC/StdPeriphDriver/CH57x_clk.c:63

    sys_safe_access_enable();
     cca:	c636                	sw	a3,12(sp)
     ccc:	0000100f          	fence.i
     cd0:	05700693          	li	a3,87
     cd4:	04d78023          	sb	a3,64(a5)
     cd8:	fa800693          	li	a3,-88
     cdc:	04d78023          	sb	a3,64(a5)
     ce0:	0000100f          	fence.i
F:/private/nanoCH57x-private/doc/CH572EVT/EVT/EXAM/SRC/StdPeriphDriver/CH57x_clk.c:64
    R8_XT32M_TUNE = x32M_c;
     ce4:	04e78723          	sb	a4,78(a5)
F:/private/nanoCH57x-private/doc/CH572EVT/EVT/EXAM/SRC/StdPeriphDriver/CH57x_clk.c:65
    sys_safe_access_disable();
     ce8:	04078023          	sb	zero,64(a5)
     cec:	47b2                	lw	a5,12(sp)
__risc_v_enable_irq():
F:\private\nanoCH57x-private\doc\CH572EVT\EVT\EXAM\SRC\RVMSIS/core_riscv.h:138
    __asm volatile("csrrs %0, 0x800, %1" : \
     cee:	8007a7f3          	csrrs	a5,0x800,a5
HSECFG_Current():
F:/private/nanoCH57x-private/doc/CH572EVT/EVT/EXAM/SRC/StdPeriphDriver/CH57x_clk.c:65
     cf2:	0000100f          	fence.i
F:/private/nanoCH57x-private/doc/CH572EVT/EVT/EXAM/SRC/StdPeriphDriver/CH57x_clk.c:66
}
     cf6:	0141                	addi	sp,sp,16
     cf8:	8082                	ret

00000cfa <HSECFG_Capacitance>:
HSECFG_Capacitance():
F:/private/nanoCH57x-private/doc/CH572EVT/EVT/EXAM/SRC/StdPeriphDriver/CH57x_clk.c:81
 */
void HSECFG_Capacitance(HSECapTypeDef c)
{
    uint8_t x32M_c;

    x32M_c = R8_XT32M_TUNE;
     cfa:	40001737          	lui	a4,0x40001
     cfe:	04e74783          	lbu	a5,78(a4) # 4000104e <_eusrstack+0x1fffe04e>
F:/private/nanoCH57x-private/doc/CH572EVT/EVT/EXAM/SRC/StdPeriphDriver/CH57x_clk.c:82
    x32M_c = (x32M_c & 0x0f) | (c << 4);
     d02:	0512                	slli	a0,a0,0x4
F:/private/nanoCH57x-private/doc/CH572EVT/EVT/EXAM/SRC/StdPeriphDriver/CH57x_clk.c:78
{
     d04:	1141                	addi	sp,sp,-16
F:/private/nanoCH57x-private/doc/CH572EVT/EVT/EXAM/SRC/StdPeriphDriver/CH57x_clk.c:82
    x32M_c = (x32M_c & 0x0f) | (c << 4);
     d06:	8bbd                	andi	a5,a5,15
     d08:	8fc9                	or	a5,a5,a0
     d0a:	0ff7f793          	zext.b	a5,a5
__risc_v_disable_irq():
F:\private\nanoCH57x-private\doc\CH572EVT\EVT\EXAM\SRC\RVMSIS/core_riscv.h:154
    __asm volatile("csrrc %0, 0x800, %1" : \
     d0e:	08800693          	li	a3,136
     d12:	8006b6f3          	csrrc	a3,0x800,a3
F:\private\nanoCH57x-private\doc\CH572EVT\EVT\EXAM\SRC\RVMSIS/core_riscv.h:156
    return result & 0x88;
     d16:	0886f693          	andi	a3,a3,136
HSECFG_Capacitance():
F:/private/nanoCH57x-private/doc/CH572EVT/EVT/EXAM/SRC/StdPeriphDriver/CH57x_clk.c:84

    sys_safe_access_enable();
     d1a:	c636                	sw	a3,12(sp)
     d1c:	0000100f          	fence.i
     d20:	05700693          	li	a3,87
     d24:	04d70023          	sb	a3,64(a4)
     d28:	fa800693          	li	a3,-88
     d2c:	04d70023          	sb	a3,64(a4)
     d30:	0000100f          	fence.i
F:/private/nanoCH57x-private/doc/CH572EVT/EVT/EXAM/SRC/StdPeriphDriver/CH57x_clk.c:85
    R8_XT32M_TUNE = x32M_c;
     d34:	04f70723          	sb	a5,78(a4)
F:/private/nanoCH57x-private/doc/CH572EVT/EVT/EXAM/SRC/StdPeriphDriver/CH57x_clk.c:86
    sys_safe_access_disable();
     d38:	04070023          	sb	zero,64(a4)
     d3c:	47b2                	lw	a5,12(sp)
__risc_v_enable_irq():
F:\private\nanoCH57x-private\doc\CH572EVT\EVT\EXAM\SRC\RVMSIS/core_riscv.h:138
    __asm volatile("csrrs %0, 0x800, %1" : \
     d3e:	8007a7f3          	csrrs	a5,0x800,a5
HSECFG_Capacitance():
F:/private/nanoCH57x-private/doc/CH572EVT/EVT/EXAM/SRC/StdPeriphDriver/CH57x_clk.c:86
     d42:	0000100f          	fence.i
F:/private/nanoCH57x-private/doc/CH572EVT/EVT/EXAM/SRC/StdPeriphDriver/CH57x_clk.c:87
}
     d46:	0141                	addi	sp,sp,16
     d48:	8082                	ret

00000d4a <GPIOA_ModeCfg>:
GPIOA_ModeCfg():
F:/private/nanoCH57x-private/doc/CH572EVT/EVT/EXAM/SRC/StdPeriphDriver/CH57x_gpio.c:27
 *
 * @return  none
 */
void GPIOA_ModeCfg(uint32_t pin, GPIOModeTypeDef mode)
{
    switch(mode)
     d4a:	4791                	li	a5,4
     d4c:	04b7ec63          	bltu	a5,a1,da4 <GPIOA_ModeCfg+0x5a>
     d50:	00001797          	auipc	a5,0x1
     d54:	74878793          	addi	a5,a5,1864 # 2498 <_read+0x7e>
     d58:	20f5c5b3          	sh2add	a1,a1,a5
     d5c:	4198                	lw	a4,0(a1)
     d5e:	973e                	add	a4,a4,a5
     d60:	400017b7          	lui	a5,0x40001
     d64:	0b478793          	addi	a5,a5,180 # 400010b4 <_eusrstack+0x1fffe0b4>
     d68:	8702                	jr	a4
F:/private/nanoCH57x-private/doc/CH572EVT/EVT/EXAM/SRC/StdPeriphDriver/CH57x_gpio.c:30
    {
        case GPIO_ModeIN_Floating:
            R32_PA_PD_DRV &= ~pin;
     d6a:	4394                	lw	a3,0(a5)
     d6c:	40001737          	lui	a4,0x40001
     d70:	40a6f6b3          	andn	a3,a3,a0
F:/private/nanoCH57x-private/doc/CH572EVT/EVT/EXAM/SRC/StdPeriphDriver/CH57x_gpio.c:42
            R32_PA_PU |= pin;
            R32_PA_DIR &= ~pin;
            break;

        case GPIO_ModeIN_PD:
            R32_PA_PD_DRV |= pin;
     d74:	c394                	sw	a3,0(a5)
F:/private/nanoCH57x-private/doc/CH572EVT/EVT/EXAM/SRC/StdPeriphDriver/CH57x_gpio.c:43
            R32_PA_PU &= ~pin;
     d76:	0b070693          	addi	a3,a4,176 # 400010b0 <_eusrstack+0x1fffe0b0>
     d7a:	429c                	lw	a5,0(a3)
     d7c:	40a7f7b3          	andn	a5,a5,a0
     d80:	a819                	j	d96 <GPIOA_ModeCfg+0x4c>
F:/private/nanoCH57x-private/doc/CH572EVT/EVT/EXAM/SRC/StdPeriphDriver/CH57x_gpio.c:36
            R32_PA_PD_DRV &= ~pin;
     d82:	4394                	lw	a3,0(a5)
     d84:	40001737          	lui	a4,0x40001
     d88:	40a6f6b3          	andn	a3,a3,a0
     d8c:	c394                	sw	a3,0(a5)
F:/private/nanoCH57x-private/doc/CH572EVT/EVT/EXAM/SRC/StdPeriphDriver/CH57x_gpio.c:37
            R32_PA_PU |= pin;
     d8e:	0b070693          	addi	a3,a4,176 # 400010b0 <_eusrstack+0x1fffe0b0>
     d92:	429c                	lw	a5,0(a3)
     d94:	8fc9                	or	a5,a5,a0
F:/private/nanoCH57x-private/doc/CH572EVT/EVT/EXAM/SRC/StdPeriphDriver/CH57x_gpio.c:43
            R32_PA_PU &= ~pin;
     d96:	c29c                	sw	a5,0(a3)
F:/private/nanoCH57x-private/doc/CH572EVT/EVT/EXAM/SRC/StdPeriphDriver/CH57x_gpio.c:44
            R32_PA_DIR &= ~pin;
     d98:	0a070793          	addi	a5,a4,160
     d9c:	4398                	lw	a4,0(a5)
     d9e:	40a77733          	andn	a4,a4,a0
F:/private/nanoCH57x-private/doc/CH572EVT/EVT/EXAM/SRC/StdPeriphDriver/CH57x_gpio.c:54
            R32_PA_DIR |= pin;
            break;

        case GPIO_ModeOut_PP_20mA:
            R32_PA_PD_DRV |= pin;
            R32_PA_DIR |= pin;
     da2:	c398                	sw	a4,0(a5)
F:/private/nanoCH57x-private/doc/CH572EVT/EVT/EXAM/SRC/StdPeriphDriver/CH57x_gpio.c:60
            break;

        default:
            break;
    }
}
     da4:	8082                	ret
F:/private/nanoCH57x-private/doc/CH572EVT/EVT/EXAM/SRC/StdPeriphDriver/CH57x_gpio.c:42
            R32_PA_PD_DRV |= pin;
     da6:	4394                	lw	a3,0(a5)
     da8:	40001737          	lui	a4,0x40001
     dac:	8ec9                	or	a3,a3,a0
     dae:	b7d9                	j	d74 <GPIOA_ModeCfg+0x2a>
F:/private/nanoCH57x-private/doc/CH572EVT/EVT/EXAM/SRC/StdPeriphDriver/CH57x_gpio.c:48
            R32_PA_PD_DRV &= ~pin;
     db0:	4398                	lw	a4,0(a5)
     db2:	40a77733          	andn	a4,a4,a0
F:/private/nanoCH57x-private/doc/CH572EVT/EVT/EXAM/SRC/StdPeriphDriver/CH57x_gpio.c:53
            R32_PA_PD_DRV |= pin;
     db6:	c398                	sw	a4,0(a5)
F:/private/nanoCH57x-private/doc/CH572EVT/EVT/EXAM/SRC/StdPeriphDriver/CH57x_gpio.c:54
            R32_PA_DIR |= pin;
     db8:	400017b7          	lui	a5,0x40001
     dbc:	0a078793          	addi	a5,a5,160 # 400010a0 <_eusrstack+0x1fffe0a0>
     dc0:	4398                	lw	a4,0(a5)
     dc2:	8f49                	or	a4,a4,a0
     dc4:	bff9                	j	da2 <GPIOA_ModeCfg+0x58>
F:/private/nanoCH57x-private/doc/CH572EVT/EVT/EXAM/SRC/StdPeriphDriver/CH57x_gpio.c:53
            R32_PA_PD_DRV |= pin;
     dc6:	4398                	lw	a4,0(a5)
     dc8:	8f49                	or	a4,a4,a0
     dca:	b7f5                	j	db6 <GPIOA_ModeCfg+0x6c>

00000dcc <GPIOA_ITModeCfg>:
GPIOA_ITModeCfg():
F:/private/nanoCH57x-private/doc/CH572EVT/EVT/EXAM/SRC/StdPeriphDriver/CH57x_gpio.c:74
 *
 * @return  none
 */
void GPIOA_ITModeCfg(uint32_t pin, GPIOITModeTpDef mode)
{
    switch(mode)
     dcc:	4789                	li	a5,2
F:/private/nanoCH57x-private/doc/CH572EVT/EVT/EXAM/SRC/StdPeriphDriver/CH57x_gpio.c:77
    {
        case GPIO_ITMode_LowLevel: // 低电平触发
            R16_PA_INT_MODE &= ~pin;
     dce:	08054733          	zext.h	a4,a0
F:/private/nanoCH57x-private/doc/CH572EVT/EVT/EXAM/SRC/StdPeriphDriver/CH57x_gpio.c:74
    switch(mode)
     dd2:	04f58b63          	beq	a1,a5,e28 <GPIOA_ITModeCfg+0x5c>
     dd6:	02b7e263          	bltu	a5,a1,dfa <GPIOA_ITModeCfg+0x2e>
     dda:	fff74613          	not	a2,a4
     dde:	e99d                	bnez	a1,e14 <GPIOA_ITModeCfg+0x48>
F:/private/nanoCH57x-private/doc/CH572EVT/EVT/EXAM/SRC/StdPeriphDriver/CH57x_gpio.c:77
            R16_PA_INT_MODE &= ~pin;
     de0:	400017b7          	lui	a5,0x40001
     de4:	0947d683          	lhu	a3,148(a5) # 40001094 <_eusrstack+0x1fffe094>
     de8:	8ef1                	and	a3,a3,a2
F:/private/nanoCH57x-private/doc/CH572EVT/EVT/EXAM/SRC/StdPeriphDriver/CH57x_gpio.c:87
            R16_PA_INT_MODE &= ~pin;
            R32_PA_OUT |= pin;
            break;

        case GPIO_ITMode_FallEdge: // 下降沿触发
            R16_PA_INT_MODE |= pin;
     dea:	08d79a23          	sh	a3,148(a5)
F:/private/nanoCH57x-private/doc/CH572EVT/EVT/EXAM/SRC/StdPeriphDriver/CH57x_gpio.c:88
            R32_PA_CLR |= pin;
     dee:	0ac78793          	addi	a5,a5,172
F:/private/nanoCH57x-private/doc/CH572EVT/EVT/EXAM/SRC/StdPeriphDriver/CH57x_gpio.c:93
            break;

        case GPIO_ITMode_RiseEdge: // 上升沿触发
            R16_PA_INT_MODE |= pin;
            R32_PA_OUT |= pin;
     df2:	4394                	lw	a3,0(a5)
     df4:	8ec9                	or	a3,a3,a0
     df6:	c394                	sw	a3,0(a5)
F:/private/nanoCH57x-private/doc/CH572EVT/EVT/EXAM/SRC/StdPeriphDriver/CH57x_gpio.c:94
            break;
     df8:	a021                	j	e00 <GPIOA_ITModeCfg+0x34>
F:/private/nanoCH57x-private/doc/CH572EVT/EVT/EXAM/SRC/StdPeriphDriver/CH57x_gpio.c:74
    switch(mode)
     dfa:	478d                	li	a5,3
     dfc:	02f58c63          	beq	a1,a5,e34 <GPIOA_ITModeCfg+0x68>
F:/private/nanoCH57x-private/doc/CH572EVT/EVT/EXAM/SRC/StdPeriphDriver/CH57x_gpio.c:99

        default:
            break;
    }
    R16_PA_INT_IF = pin;
     e00:	400017b7          	lui	a5,0x40001
     e04:	08e79e23          	sh	a4,156(a5) # 4000109c <_eusrstack+0x1fffe09c>
F:/private/nanoCH57x-private/doc/CH572EVT/EVT/EXAM/SRC/StdPeriphDriver/CH57x_gpio.c:100
    R16_PA_INT_EN |= pin;
     e08:	0907d683          	lhu	a3,144(a5)
     e0c:	8f55                	or	a4,a4,a3
     e0e:	08e79823          	sh	a4,144(a5)
F:/private/nanoCH57x-private/doc/CH572EVT/EVT/EXAM/SRC/StdPeriphDriver/CH57x_gpio.c:101
}
     e12:	8082                	ret
F:/private/nanoCH57x-private/doc/CH572EVT/EVT/EXAM/SRC/StdPeriphDriver/CH57x_gpio.c:82
            R16_PA_INT_MODE &= ~pin;
     e14:	400017b7          	lui	a5,0x40001
     e18:	0947d683          	lhu	a3,148(a5) # 40001094 <_eusrstack+0x1fffe094>
     e1c:	8ef1                	and	a3,a3,a2
F:/private/nanoCH57x-private/doc/CH572EVT/EVT/EXAM/SRC/StdPeriphDriver/CH57x_gpio.c:92
            R16_PA_INT_MODE |= pin;
     e1e:	08d79a23          	sh	a3,148(a5)
F:/private/nanoCH57x-private/doc/CH572EVT/EVT/EXAM/SRC/StdPeriphDriver/CH57x_gpio.c:93
            R32_PA_OUT |= pin;
     e22:	0a878793          	addi	a5,a5,168
     e26:	b7f1                	j	df2 <GPIOA_ITModeCfg+0x26>
F:/private/nanoCH57x-private/doc/CH572EVT/EVT/EXAM/SRC/StdPeriphDriver/CH57x_gpio.c:87
            R16_PA_INT_MODE |= pin;
     e28:	400017b7          	lui	a5,0x40001
     e2c:	0947d683          	lhu	a3,148(a5) # 40001094 <_eusrstack+0x1fffe094>
     e30:	8ed9                	or	a3,a3,a4
     e32:	bf65                	j	dea <GPIOA_ITModeCfg+0x1e>
F:/private/nanoCH57x-private/doc/CH572EVT/EVT/EXAM/SRC/StdPeriphDriver/CH57x_gpio.c:92
            R16_PA_INT_MODE |= pin;
     e34:	400017b7          	lui	a5,0x40001
     e38:	0947d683          	lhu	a3,148(a5) # 40001094 <_eusrstack+0x1fffe094>
     e3c:	8ed9                	or	a3,a3,a4
     e3e:	b7c5                	j	e1e <GPIOA_ITModeCfg+0x52>

00000e40 <PWR_PeriphWakeUpCfg>:
PWR_PeriphWakeUpCfg():
F:/private/nanoCH57x-private/doc/CH572EVT/EVT/EXAM/SRC/StdPeriphDriver/CH57x_pwr.c:61
{
     e40:	1141                	addi	sp,sp,-16
F:/private/nanoCH57x-private/doc/CH572EVT/EVT/EXAM/SRC/StdPeriphDriver/CH57x_pwr.c:62
    if(s == DISABLE)
     e42:	e139                	bnez	a0,e88 <PWR_PeriphWakeUpCfg+0x48>
__risc_v_disable_irq():
F:\private\nanoCH57x-private\doc\CH572EVT\EVT\EXAM\SRC\RVMSIS/core_riscv.h:154
    __asm volatile("csrrc %0, 0x800, %1" : \
     e44:	08800793          	li	a5,136
     e48:	8007b7f3          	csrrc	a5,0x800,a5
F:\private\nanoCH57x-private\doc\CH572EVT\EVT\EXAM\SRC\RVMSIS/core_riscv.h:156
    return result & 0x88;
     e4c:	0887f793          	andi	a5,a5,136
PWR_PeriphWakeUpCfg():
F:/private/nanoCH57x-private/doc/CH572EVT/EVT/EXAM/SRC/StdPeriphDriver/CH57x_pwr.c:64
        sys_safe_access_enable();
     e50:	c03e                	sw	a5,0(sp)
     e52:	0000100f          	fence.i
     e56:	400017b7          	lui	a5,0x40001
     e5a:	05700713          	li	a4,87
     e5e:	04e78023          	sb	a4,64(a5) # 40001040 <_eusrstack+0x1fffe040>
     e62:	fa800713          	li	a4,-88
     e66:	04e78023          	sb	a4,64(a5)
     e6a:	0000100f          	fence.i
F:/private/nanoCH57x-private/doc/CH572EVT/EVT/EXAM/SRC/StdPeriphDriver/CH57x_pwr.c:65
        R8_SLP_WAKE_CTRL &= ~perph;
     e6e:	27f8                	lbu	a4,14(a5)
     e70:	40b775b3          	andn	a1,a4,a1
     e74:	a7ec                	sb	a1,14(a5)
F:/private/nanoCH57x-private/doc/CH572EVT/EVT/EXAM/SRC/StdPeriphDriver/CH57x_pwr.c:66
        sys_safe_access_disable();
     e76:	04078023          	sb	zero,64(a5)
     e7a:	4782                	lw	a5,0(sp)
__risc_v_enable_irq():
F:\private\nanoCH57x-private\doc\CH572EVT\EVT\EXAM\SRC\RVMSIS/core_riscv.h:138
    __asm volatile("csrrs %0, 0x800, %1" : \
     e7c:	8007a7f3          	csrrs	a5,0x800,a5
PWR_PeriphWakeUpCfg():
F:/private/nanoCH57x-private/doc/CH572EVT/EVT/EXAM/SRC/StdPeriphDriver/CH57x_pwr.c:78
        sys_safe_access_disable();
     e80:	0000100f          	fence.i
F:/private/nanoCH57x-private/doc/CH572EVT/EVT/EXAM/SRC/StdPeriphDriver/CH57x_pwr.c:80
}
     e84:	0141                	addi	sp,sp,16
     e86:	8082                	ret
__risc_v_disable_irq():
F:\private\nanoCH57x-private\doc\CH572EVT\EVT\EXAM\SRC\RVMSIS/core_riscv.h:154
    __asm volatile("csrrc %0, 0x800, %1" : \
     e88:	08800713          	li	a4,136
     e8c:	800737f3          	csrrc	a5,0x800,a4
F:\private\nanoCH57x-private\doc\CH572EVT\EVT\EXAM\SRC\RVMSIS/core_riscv.h:156
    return result & 0x88;
     e90:	0887f793          	andi	a5,a5,136
PWR_PeriphWakeUpCfg():
F:/private/nanoCH57x-private/doc/CH572EVT/EVT/EXAM/SRC/StdPeriphDriver/CH57x_pwr.c:70
        sys_safe_access_enable();
     e94:	c23e                	sw	a5,4(sp)
     e96:	0000100f          	fence.i
     e9a:	400017b7          	lui	a5,0x40001
     e9e:	05700813          	li	a6,87
     ea2:	05078023          	sb	a6,64(a5) # 40001040 <_eusrstack+0x1fffe040>
     ea6:	fa800513          	li	a0,-88
     eaa:	04a78023          	sb	a0,64(a5)
     eae:	0000100f          	fence.i
F:/private/nanoCH57x-private/doc/CH572EVT/EVT/EXAM/SRC/StdPeriphDriver/CH57x_pwr.c:71
        R8_SLP_WAKE_CTRL |= RB_WAKE_EV_MODE | perph;
     eb2:	27f4                	lbu	a3,14(a5)
     eb4:	8ecd                	or	a3,a3,a1
     eb6:	0406e693          	ori	a3,a3,64
     eba:	a7f4                	sb	a3,14(a5)
F:/private/nanoCH57x-private/doc/CH572EVT/EVT/EXAM/SRC/StdPeriphDriver/CH57x_pwr.c:72
        sys_safe_access_disable();
     ebc:	04078023          	sb	zero,64(a5)
     ec0:	4692                	lw	a3,4(sp)
__risc_v_enable_irq():
F:\private\nanoCH57x-private\doc\CH572EVT\EVT\EXAM\SRC\RVMSIS/core_riscv.h:138
    __asm volatile("csrrs %0, 0x800, %1" : \
     ec2:	8006a6f3          	csrrs	a3,0x800,a3
PWR_PeriphWakeUpCfg():
F:/private/nanoCH57x-private/doc/CH572EVT/EVT/EXAM/SRC/StdPeriphDriver/CH57x_pwr.c:72
     ec6:	0000100f          	fence.i
__risc_v_disable_irq():
F:\private\nanoCH57x-private\doc\CH572EVT\EVT\EXAM\SRC\RVMSIS/core_riscv.h:154
    __asm volatile("csrrc %0, 0x800, %1" : \
     eca:	800736f3          	csrrc	a3,0x800,a4
F:\private\nanoCH57x-private\doc\CH572EVT\EVT\EXAM\SRC\RVMSIS/core_riscv.h:156
    return result & 0x88;
     ece:	0886f693          	andi	a3,a3,136
PWR_PeriphWakeUpCfg():
F:/private/nanoCH57x-private/doc/CH572EVT/EVT/EXAM/SRC/StdPeriphDriver/CH57x_pwr.c:73
        sys_safe_access_enable();
     ed2:	c436                	sw	a3,8(sp)
     ed4:	0000100f          	fence.i
     ed8:	05078023          	sb	a6,64(a5)
     edc:	04a78023          	sb	a0,64(a5)
     ee0:	0000100f          	fence.i
F:/private/nanoCH57x-private/doc/CH572EVT/EVT/EXAM/SRC/StdPeriphDriver/CH57x_pwr.c:74
        R8_SLP_POWER_CTRL &= ~(RB_WAKE_DLY_MOD);
     ee4:	37f4                	lbu	a3,15(a5)
     ee6:	0f86f693          	andi	a3,a3,248
     eea:	b7f4                	sb	a3,15(a5)
F:/private/nanoCH57x-private/doc/CH572EVT/EVT/EXAM/SRC/StdPeriphDriver/CH57x_pwr.c:75
        sys_safe_access_disable();
     eec:	04078023          	sb	zero,64(a5)
     ef0:	46a2                	lw	a3,8(sp)
__risc_v_enable_irq():
F:\private\nanoCH57x-private\doc\CH572EVT\EVT\EXAM\SRC\RVMSIS/core_riscv.h:138
    __asm volatile("csrrs %0, 0x800, %1" : \
     ef2:	8006a6f3          	csrrs	a3,0x800,a3
PWR_PeriphWakeUpCfg():
F:/private/nanoCH57x-private/doc/CH572EVT/EVT/EXAM/SRC/StdPeriphDriver/CH57x_pwr.c:75
     ef6:	0000100f          	fence.i
__risc_v_disable_irq():
F:\private\nanoCH57x-private\doc\CH572EVT\EVT\EXAM\SRC\RVMSIS/core_riscv.h:154
    __asm volatile("csrrc %0, 0x800, %1" : \
     efa:	80073773          	csrrc	a4,0x800,a4
F:\private\nanoCH57x-private\doc\CH572EVT\EVT\EXAM\SRC\RVMSIS/core_riscv.h:156
    return result & 0x88;
     efe:	08877713          	andi	a4,a4,136
PWR_PeriphWakeUpCfg():
F:/private/nanoCH57x-private/doc/CH572EVT/EVT/EXAM/SRC/StdPeriphDriver/CH57x_pwr.c:76
        sys_safe_access_enable();
     f02:	c63a                	sw	a4,12(sp)
     f04:	0000100f          	fence.i
     f08:	05078023          	sb	a6,64(a5)
     f0c:	04a78023          	sb	a0,64(a5)
     f10:	0000100f          	fence.i
F:/private/nanoCH57x-private/doc/CH572EVT/EVT/EXAM/SRC/StdPeriphDriver/CH57x_pwr.c:77
        R8_SLP_POWER_CTRL |= mode;
     f14:	37f8                	lbu	a4,15(a5)
     f16:	8e59                	or	a2,a2,a4
     f18:	0ff67613          	zext.b	a2,a2
     f1c:	b7f0                	sb	a2,15(a5)
F:/private/nanoCH57x-private/doc/CH572EVT/EVT/EXAM/SRC/StdPeriphDriver/CH57x_pwr.c:78
        sys_safe_access_disable();
     f1e:	04078023          	sb	zero,64(a5)
     f22:	47b2                	lw	a5,12(sp)
     f24:	bfa1                	j	e7c <PWR_PeriphWakeUpCfg+0x3c>

00000f26 <GetSysClock>:
GetSysClock():
F:/private/nanoCH57x-private/doc/CH572EVT/EVT/EXAM/SRC/StdPeriphDriver/CH57x_sys.c:101
    if((R8_CLK_SYS_CFG & RB_CLK_SYS_MOD) == RB_CLK_SYS_MOD)
     f26:	400017b7          	lui	a5,0x40001
     f2a:	2798                	lbu	a4,8(a5)
     f2c:	0c000693          	li	a3,192
     f30:	0c077713          	andi	a4,a4,192
     f34:	00d71563          	bne	a4,a3,f3e <GetSysClock+0x18>
F:/private/nanoCH57x-private/doc/CH572EVT/EVT/EXAM/SRC/StdPeriphDriver/CH57x_sys.c:103
        return (Freq_LSI);
     f38:	80c1a503          	lw	a0,-2036(gp) # 20000aec <Freq_LSI>
     f3c:	8082                	ret
F:/private/nanoCH57x-private/doc/CH572EVT/EVT/EXAM/SRC/StdPeriphDriver/CH57x_sys.c:105
    else if((R8_CLK_SYS_CFG & RB_CLK_SYS_MOD) == 0x40)
     f3e:	2798                	lbu	a4,8(a5)
     f40:	04000693          	li	a3,64
     f44:	0c077713          	andi	a4,a4,192
     f48:	02d71063          	bne	a4,a3,f68 <GetSysClock+0x42>
F:/private/nanoCH57x-private/doc/CH572EVT/EVT/EXAM/SRC/StdPeriphDriver/CH57x_sys.c:107
        return (600000000 / ((R8_CLK_SYS_CFG & 0x1f)?(R8_CLK_SYS_CFG & 0x1f):32));
     f4c:	2794                	lbu	a3,8(a5)
     f4e:	02000713          	li	a4,32
     f52:	8afd                	andi	a3,a3,31
     f54:	c299                	beqz	a3,f5a <GetSysClock+0x34>
F:/private/nanoCH57x-private/doc/CH572EVT/EVT/EXAM/SRC/StdPeriphDriver/CH57x_sys.c:107 (discriminator 1)
     f56:	2798                	lbu	a4,8(a5)
     f58:	8b7d                	andi	a4,a4,31
F:/private/nanoCH57x-private/doc/CH572EVT/EVT/EXAM/SRC/StdPeriphDriver/CH57x_sys.c:107 (discriminator 4)
     f5a:	23c34537          	lui	a0,0x23c34
     f5e:	60050513          	addi	a0,a0,1536 # 23c34600 <_eusrstack+0x3c31600>
F:/private/nanoCH57x-private/doc/CH572EVT/EVT/EXAM/SRC/StdPeriphDriver/CH57x_sys.c:111 (discriminator 4)
        return (32000000 / ((R8_CLK_SYS_CFG & 0x1f)?(R8_CLK_SYS_CFG & 0x1f):32));
     f62:	02e54533          	div	a0,a0,a4
F:/private/nanoCH57x-private/doc/CH572EVT/EVT/EXAM/SRC/StdPeriphDriver/CH57x_sys.c:113 (discriminator 4)
}
     f66:	8082                	ret
F:/private/nanoCH57x-private/doc/CH572EVT/EVT/EXAM/SRC/StdPeriphDriver/CH57x_sys.c:111
        return (32000000 / ((R8_CLK_SYS_CFG & 0x1f)?(R8_CLK_SYS_CFG & 0x1f):32));
     f68:	2794                	lbu	a3,8(a5)
     f6a:	02000713          	li	a4,32
     f6e:	8afd                	andi	a3,a3,31
     f70:	c299                	beqz	a3,f76 <GetSysClock+0x50>
F:/private/nanoCH57x-private/doc/CH572EVT/EVT/EXAM/SRC/StdPeriphDriver/CH57x_sys.c:111 (discriminator 1)
     f72:	2798                	lbu	a4,8(a5)
     f74:	8b7d                	andi	a4,a4,31
F:/private/nanoCH57x-private/doc/CH572EVT/EVT/EXAM/SRC/StdPeriphDriver/CH57x_sys.c:111 (discriminator 4)
     f76:	01e85537          	lui	a0,0x1e85
     f7a:	80050513          	addi	a0,a0,-2048 # 1e84800 <_data_lma+0x1e8225c>
     f7e:	b7d5                	j	f62 <GetSysClock+0x3c>

00000f80 <_write>:
_write():
F:/private/nanoCH57x-private/doc/CH572EVT/EVT/EXAM/SRC/StdPeriphDriver/CH57x_sys.c:375

#ifdef DEBUG
int _write(int fd, char *buf, int size)
{
     f80:	8532                	mv	a0,a2
F:/private/nanoCH57x-private/doc/CH572EVT/EVT/EXAM/SRC/StdPeriphDriver/CH57x_sys.c:377
    int i;
    for(i = 0; i < size; i++)
     f82:	4781                	li	a5,0
F:/private/nanoCH57x-private/doc/CH572EVT/EVT/EXAM/SRC/StdPeriphDriver/CH57x_sys.c:379
    {
        while(R8_UART_TFC == UART_FIFO_SIZE);                  /* 等待数据发送 */
     f84:	40003737          	lui	a4,0x40003
     f88:	46a1                	li	a3,8
F:/private/nanoCH57x-private/doc/CH572EVT/EVT/EXAM/SRC/StdPeriphDriver/CH57x_sys.c:377 (discriminator 1)
    for(i = 0; i < size; i++)
     f8a:	00a7c363          	blt	a5,a0,f90 <_write+0x10>
F:/private/nanoCH57x-private/doc/CH572EVT/EVT/EXAM/SRC/StdPeriphDriver/CH57x_sys.c:383
            R8_UART_THR = *buf++; /* 发送数据 */
    }
    return size;
}
     f8e:	8082                	ret
F:/private/nanoCH57x-private/doc/CH572EVT/EVT/EXAM/SRC/StdPeriphDriver/CH57x_sys.c:379 (discriminator 1)
        while(R8_UART_TFC == UART_FIFO_SIZE);                  /* 等待数据发送 */
     f90:	40b74603          	lbu	a2,1035(a4) # 4000340b <_eusrstack+0x2000040b>
     f94:	fed60ee3          	beq	a2,a3,f90 <_write+0x10>
F:/private/nanoCH57x-private/doc/CH572EVT/EVT/EXAM/SRC/StdPeriphDriver/CH57x_sys.c:380 (discriminator 2)
            R8_UART_THR = *buf++; /* 发送数据 */
     f98:	00f58633          	add	a2,a1,a5
     f9c:	2210                	lbu	a2,0(a2)
F:/private/nanoCH57x-private/doc/CH572EVT/EVT/EXAM/SRC/StdPeriphDriver/CH57x_sys.c:377 (discriminator 2)
    for(i = 0; i < size; i++)
     f9e:	0785                	addi	a5,a5,1 # 40001001 <_eusrstack+0x1fffe001>
F:/private/nanoCH57x-private/doc/CH572EVT/EVT/EXAM/SRC/StdPeriphDriver/CH57x_sys.c:380 (discriminator 2)
            R8_UART_THR = *buf++; /* 发送数据 */
     fa0:	40c70423          	sb	a2,1032(a4)
F:/private/nanoCH57x-private/doc/CH572EVT/EVT/EXAM/SRC/StdPeriphDriver/CH57x_sys.c:377 (discriminator 2)
    for(i = 0; i < size; i++)
     fa4:	b7dd                	j	f8a <_write+0xa>

00000fa6 <_sbrk>:
_sbrk():
F:/private/nanoCH57x-private/doc/CH572EVT/EVT/EXAM/SRC/StdPeriphDriver/CH57x_sys.c:400
void *_sbrk(ptrdiff_t incr)
{
    extern char _end[];
    static char *curbrk = _end;

    if ((curbrk + incr < _end) || ((uint32_t)curbrk + incr > (__get_SP() - 64)))
     fa6:	20000697          	auipc	a3,0x20000
     faa:	b3a68693          	addi	a3,a3,-1222 # 20000ae0 <curbrk.0>
F:/private/nanoCH57x-private/doc/CH572EVT/EVT/EXAM/SRC/StdPeriphDriver/CH57x_sys.c:396
{
     fae:	87aa                	mv	a5,a0
F:/private/nanoCH57x-private/doc/CH572EVT/EVT/EXAM/SRC/StdPeriphDriver/CH57x_sys.c:400
    if ((curbrk + incr < _end) || ((uint32_t)curbrk + incr > (__get_SP() - 64)))
     fb0:	4288                	lw	a0,0(a3)
     fb2:	82818713          	addi	a4,gp,-2008 # 20000b08 <_ebss>
     fb6:	97aa                	add	a5,a5,a0
     fb8:	00e7e963          	bltu	a5,a4,fca <_sbrk+0x24>
__get_SP():
F:\private\nanoCH57x-private\doc\CH572EVT\EVT\EXAM\SRC\RVMSIS/core_riscv.h:630 (discriminator 1)
 */
__attribute__((always_inline)) RV_STATIC_INLINE uint32_t __get_SP(void)
{
    uint32_t result;

    __ASM volatile("mv %0," "sp" : "=r"(result) :);
     fbc:	870a                	mv	a4,sp
_sbrk():
F:/private/nanoCH57x-private/doc/CH572EVT/EVT/EXAM/SRC/StdPeriphDriver/CH57x_sys.c:400 (discriminator 1)
     fbe:	fc070713          	addi	a4,a4,-64
     fc2:	00f76463          	bltu	a4,a5,fca <_sbrk+0x24>
F:/private/nanoCH57x-private/doc/CH572EVT/EVT/EXAM/SRC/StdPeriphDriver/CH57x_sys.c:403
    return NULL - 1;

    curbrk += incr;
     fc6:	c29c                	sw	a5,0(a3)
F:/private/nanoCH57x-private/doc/CH572EVT/EVT/EXAM/SRC/StdPeriphDriver/CH57x_sys.c:404
    return curbrk - incr;
     fc8:	8082                	ret
F:/private/nanoCH57x-private/doc/CH572EVT/EVT/EXAM/SRC/StdPeriphDriver/CH57x_sys.c:401
    return NULL - 1;
     fca:	557d                	li	a0,-1
F:/private/nanoCH57x-private/doc/CH572EVT/EVT/EXAM/SRC/StdPeriphDriver/CH57x_sys.c:405
}
     fcc:	8082                	ret

00000fce <UART_BaudRateCfg>:
UART_BaudRateCfg():
F:/private/nanoCH57x-private/doc/CH572EVT/EVT/EXAM/SRC/StdPeriphDriver/CH57x_uart.c:43
 * @param   baudrate    - 波特率
 *
 * @return  none
 */
void UART_BaudRateCfg(uint32_t baudrate)
{
     fce:	1141                	addi	sp,sp,-16
     fd0:	c422                	sw	s0,8(sp)
     fd2:	c606                	sw	ra,12(sp)
     fd4:	842a                	mv	s0,a0
F:/private/nanoCH57x-private/doc/CH572EVT/EVT/EXAM/SRC/StdPeriphDriver/CH57x_uart.c:46
    uint32_t x;

    x = 10 * GetSysClock() / 8 / baudrate;
     fd6:	3f81                	jal	f26 <GetSysClock>
     fd8:	4729                	li	a4,10
     fda:	02e507b3          	mul	a5,a0,a4
F:/private/nanoCH57x-private/doc/CH572EVT/EVT/EXAM/SRC/StdPeriphDriver/CH57x_uart.c:49
    x = (x + 5) / 10;
    R16_UART_DL = (uint16_t)x;
}
     fde:	40b2                	lw	ra,12(sp)
F:/private/nanoCH57x-private/doc/CH572EVT/EVT/EXAM/SRC/StdPeriphDriver/CH57x_uart.c:46
    x = 10 * GetSysClock() / 8 / baudrate;
     fe0:	838d                	srli	a5,a5,0x3
     fe2:	0287d7b3          	divu	a5,a5,s0
F:/private/nanoCH57x-private/doc/CH572EVT/EVT/EXAM/SRC/StdPeriphDriver/CH57x_uart.c:49
}
     fe6:	4422                	lw	s0,8(sp)
F:/private/nanoCH57x-private/doc/CH572EVT/EVT/EXAM/SRC/StdPeriphDriver/CH57x_uart.c:47
    x = (x + 5) / 10;
     fe8:	0795                	addi	a5,a5,5
     fea:	02e7d7b3          	divu	a5,a5,a4
F:/private/nanoCH57x-private/doc/CH572EVT/EVT/EXAM/SRC/StdPeriphDriver/CH57x_uart.c:48
    R16_UART_DL = (uint16_t)x;
     fee:	40003737          	lui	a4,0x40003
     ff2:	0807c7b3          	zext.h	a5,a5
     ff6:	40f71623          	sh	a5,1036(a4) # 4000340c <_eusrstack+0x2000040c>
F:/private/nanoCH57x-private/doc/CH572EVT/EVT/EXAM/SRC/StdPeriphDriver/CH57x_uart.c:49
}
     ffa:	0141                	addi	sp,sp,16
     ffc:	8082                	ret

00000ffe <UART_DefInit>:
UART_DefInit():
F:/private/nanoCH57x-private/doc/CH572EVT/EVT/EXAM/SRC/StdPeriphDriver/CH57x_uart.c:26
    UART_BaudRateCfg(115200);
     ffe:	6571                	lui	a0,0x1c
F:/private/nanoCH57x-private/doc/CH572EVT/EVT/EXAM/SRC/StdPeriphDriver/CH57x_uart.c:25
{
    1000:	1141                	addi	sp,sp,-16
F:/private/nanoCH57x-private/doc/CH572EVT/EVT/EXAM/SRC/StdPeriphDriver/CH57x_uart.c:26
    UART_BaudRateCfg(115200);
    1002:	20050513          	addi	a0,a0,512 # 1c200 <_data_lma+0x19c5c>
F:/private/nanoCH57x-private/doc/CH572EVT/EVT/EXAM/SRC/StdPeriphDriver/CH57x_uart.c:25
{
    1006:	c606                	sw	ra,12(sp)
F:/private/nanoCH57x-private/doc/CH572EVT/EVT/EXAM/SRC/StdPeriphDriver/CH57x_uart.c:26
    UART_BaudRateCfg(115200);
    1008:	37d9                	jal	fce <UART_BaudRateCfg>
F:/private/nanoCH57x-private/doc/CH572EVT/EVT/EXAM/SRC/StdPeriphDriver/CH57x_uart.c:27
    R8_UART_FCR = (2 << 6) | RB_FCR_FIFO_EN; // FIFO打开，触发点4字节
    100a:	400037b7          	lui	a5,0x40003
    100e:	f8100713          	li	a4,-127
    1012:	40e78123          	sb	a4,1026(a5) # 40003402 <_eusrstack+0x20000402>
F:/private/nanoCH57x-private/doc/CH572EVT/EVT/EXAM/SRC/StdPeriphDriver/CH57x_uart.c:28
    R8_UART_LCR = RB_LCR_WORD_SZ;
    1016:	470d                	li	a4,3
    1018:	40e781a3          	sb	a4,1027(a5)
F:/private/nanoCH57x-private/doc/CH572EVT/EVT/EXAM/SRC/StdPeriphDriver/CH57x_uart.c:29
    R8_UART_IER = RB_IER_TXD_EN;
    101c:	04000713          	li	a4,64
    1020:	40e780a3          	sb	a4,1025(a5)
F:/private/nanoCH57x-private/doc/CH572EVT/EVT/EXAM/SRC/StdPeriphDriver/CH57x_uart.c:30
    R8_UART_DIV = 1;
    1024:	4705                	li	a4,1
    1026:	40e78723          	sb	a4,1038(a5)
F:/private/nanoCH57x-private/doc/CH572EVT/EVT/EXAM/SRC/StdPeriphDriver/CH57x_uart.c:31
}
    102a:	40b2                	lw	ra,12(sp)
    102c:	0141                	addi	sp,sp,16
    102e:	8082                	ret

00001030 <UART_Remap>:
UART_Remap():
F:/private/nanoCH57x-private/doc/CH572EVT/EVT/EXAM/SRC/StdPeriphDriver/CH57x_uart.c:153
 */
void UART_Remap(FunctionalState s, UARTTxPinRemapDef u_tx, UARTRxPinRemapDef u_rx)
{
    if(s)
    {
        R16_PIN_ALTERNATE_H &= ~(RB_UART_TXD | RB_UART_RXD); // 该寄存器仅在上电复位和ShutDown睡眠时清0
    1030:	40001737          	lui	a4,0x40001
    1034:	2f3e                	lhu	a5,26(a4)
    1036:	0807c7b3          	zext.h	a5,a5
    103a:	fc07f793          	andi	a5,a5,-64
    103e:	0807c7b3          	zext.h	a5,a5
    1042:	af3e                	sh	a5,26(a4)
F:/private/nanoCH57x-private/doc/CH572EVT/EVT/EXAM/SRC/StdPeriphDriver/CH57x_uart.c:151
    if(s)
    1044:	c909                	beqz	a0,1056 <UART_Remap+0x26>
F:/private/nanoCH57x-private/doc/CH572EVT/EVT/EXAM/SRC/StdPeriphDriver/CH57x_uart.c:154
        R16_PIN_ALTERNATE_H |= (u_tx << 3) | u_rx;
    1046:	2f3e                	lhu	a5,26(a4)
    1048:	058e                	slli	a1,a1,0x3
    104a:	8e5d                	or	a2,a2,a5
    104c:	8dd1                	or	a1,a1,a2
    104e:	0805c5b3          	zext.h	a1,a1
    1052:	af2e                	sh	a1,26(a4)
    1054:	8082                	ret
F:/private/nanoCH57x-private/doc/CH572EVT/EVT/EXAM/SRC/StdPeriphDriver/CH57x_uart.c:160
    }
    else
    {
        R16_PIN_ALTERNATE_H &= ~(RB_UART_TXD | RB_UART_RXD);
    }
}
    1056:	8082                	ret

00001058 <FLASH_EEPROM_CMD>:
FLASH_EEPROM_CMD():
    1058:	1101                	addi	sp,sp,-32
    105a:	872a                	mv	a4,a0
    105c:	ce06                	sw	ra,28(sp)
    105e:	852e                	mv	a0,a1
    1060:	cc26                	sw	s1,24(sp)
    1062:	85b2                	mv	a1,a2
    1064:	ca4a                	sw	s2,20(sp)
    1066:	8636                	mv	a2,a3
    1068:	c622                	sw	s0,12(sp)
    106a:	40002437          	lui	s0,0x40002
    106e:	e000e7b7          	lui	a5,0xe000e
    1072:	56fd                	li	a3,-1
    1074:	0007a903          	lw	s2,0(a5) # e000e000 <_eusrstack+0xc000b000>
    1078:	43c4                	lw	s1,4(a5)
    107a:	18d7a023          	sw	a3,384(a5)
    107e:	18d7a223          	sw	a3,388(a5)
    1082:	fff70793          	addi	a5,a4,-1 # 40000fff <_eusrstack+0x1fffdfff>
    1086:	0ff7f793          	zext.b	a5,a5
    108a:	4689                	li	a3,2
    108c:	0af6e063          	bltu	a3,a5,112c <FLASH_EEPROM_CMD+0xd4>
    1090:	400017b7          	lui	a5,0x40001
    1094:	0457c783          	lbu	a5,69(a5) # 40001045 <_eusrstack+0x1fffe045>
    1098:	000406b7          	lui	a3,0x40
    109c:	0207f793          	andi	a5,a5,32
    10a0:	e399                	bnez	a5,10a6 <FLASH_EEPROM_CMD+0x4e>
    10a2:	0003c6b7          	lui	a3,0x3c
    10a6:	57f9                	li	a5,-2
    10a8:	04d57563          	bgeu	a0,a3,10f2 <FLASH_EEPROM_CMD+0x9a>
    10ac:	00c50833          	add	a6,a0,a2
    10b0:	0506e163          	bltu	a3,a6,10f2 <FLASH_EEPROM_CMD+0x9a>
    10b4:	4789                	li	a5,2
    10b6:	04f71463          	bne	a4,a5,10fe <FLASH_EEPROM_CMD+0xa6>
    10ba:	8209                	srli	a2,a2,0x2
    10bc:	1ffff097          	auipc	ra,0x1ffff
    10c0:	7d8080e7          	jalr	2008(ra) # 20000894 <FLASH_CMD_ROM_WRITE>
    10c4:	87aa                	mv	a5,a0
    10c6:	40001737          	lui	a4,0x40001
    10ca:	05700693          	li	a3,87
    10ce:	04d70023          	sb	a3,64(a4) # 40001040 <_eusrstack+0x1fffe040>
    10d2:	fa800693          	li	a3,-88
    10d6:	04d70023          	sb	a3,64(a4)
    10da:	04474683          	lbu	a3,68(a4)
    10de:	8ac1                	andi	a3,a3,16
    10e0:	04d70223          	sb	a3,68(a4)
    10e4:	e000e737          	lui	a4,0xe000e
    10e8:	11272023          	sw	s2,256(a4) # e000e100 <_eusrstack+0xc000b100>
    10ec:	10972223          	sw	s1,260(a4)
    10f0:	4432                	lw	s0,12(sp)
    10f2:	40f2                	lw	ra,28(sp)
    10f4:	44e2                	lw	s1,24(sp)
    10f6:	4952                	lw	s2,20(sp)
    10f8:	853e                	mv	a0,a5
    10fa:	6105                	addi	sp,sp,32
    10fc:	8082                	ret
    10fe:	4785                	li	a5,1
    1100:	00f71f63          	bne	a4,a5,111e <FLASH_EEPROM_CMD+0xc6>
    1104:	6785                	lui	a5,0x1
    1106:	17fd                	addi	a5,a5,-1 # fff <UART_DefInit+0x1>
    1108:	963e                	add	a2,a2,a5
    110a:	8fe9                	and	a5,a5,a0
    110c:	963e                	add	a2,a2,a5
    110e:	77fd                	lui	a5,0xfffff
    1110:	8e7d                	and	a2,a2,a5
    1112:	8d7d                	and	a0,a0,a5
    1114:	1ffff097          	auipc	ra,0x1ffff
    1118:	7e0080e7          	jalr	2016(ra) # 200008f4 <FLASH_CMD_ROM_ERASE>
    111c:	b765                	j	10c4 <FLASH_EEPROM_CMD+0x6c>
    111e:	20000097          	auipc	ra,0x20000
    1122:	848080e7          	jalr	-1976(ra) # 20000966 <FLASH_CMD_ROM_VERIFY>
    1126:	00150793          	addi	a5,a0,1
    112a:	bf71                	j	10c6 <FLASH_EEPROM_CMD+0x6e>
    112c:	47b5                	li	a5,13
    112e:	00f71a63          	bne	a4,a5,1142 <FLASH_EEPROM_CMD+0xea>
    1132:	0b900513          	li	a0,185
    1136:	20000097          	auipc	ra,0x20000
    113a:	880080e7          	jalr	-1920(ra) # 200009b6 <FLASH_CMD_ROM_PWR>
    113e:	4781                	li	a5,0
    1140:	b759                	j	10c6 <FLASH_EEPROM_CMD+0x6e>
    1142:	47b1                	li	a5,12
    1144:	00f71563          	bne	a4,a5,114e <FLASH_EEPROM_CMD+0xf6>
    1148:	0ab00513          	li	a0,171
    114c:	b7ed                	j	1136 <FLASH_EEPROM_CMD+0xde>
    114e:	4799                	li	a5,6
    1150:	00f71763          	bne	a4,a5,115e <FLASH_EEPROM_CMD+0x106>
    1154:	20000097          	auipc	ra,0x20000
    1158:	874080e7          	jalr	-1932(ra) # 200009c8 <FLASH_CMD_GET_ROM_INFO>
    115c:	b7cd                	j	113e <FLASH_EEPROM_CMD+0xe6>
    115e:	479d                	li	a5,7
    1160:	00f71b63          	bne	a4,a5,1176 <FLASH_EEPROM_CMD+0x11e>
    1164:	0005a023          	sw	zero,0(a1)
    1168:	0005a223          	sw	zero,4(a1)
    116c:	20000097          	auipc	ra,0x20000
    1170:	8bc080e7          	jalr	-1860(ra) # 20000a28 <FLASH_CMD_GET_UNIQUE_ID>
    1174:	b7e9                	j	113e <FLASH_EEPROM_CMD+0xe6>
    1176:	4791                	li	a5,4
    1178:	00f71763          	bne	a4,a5,1186 <FLASH_EEPROM_CMD+0x12e>
    117c:	20000097          	auipc	ra,0x20000
    1180:	8ea080e7          	jalr	-1814(ra) # 20000a66 <FLASH_CMD_ROM_SW_RESET>
    1184:	bf6d                	j	113e <FLASH_EEPROM_CMD+0xe6>
    1186:	4781                	li	a5,0
    1188:	df1d                	beqz	a4,10c6 <FLASH_EEPROM_CMD+0x6e>
    118a:	57f1                	li	a5,-4
    118c:	bf2d                	j	10c6 <FLASH_EEPROM_CMD+0x6e>

0000118e <iprintf>:
printf():
    118e:	715d                	addi	sp,sp,-80
    1190:	d422                	sw	s0,40(sp)
    1192:	d606                	sw	ra,44(sp)
    1194:	842a                	mv	s0,a0
    1196:	da2e                	sw	a1,52(sp)
    1198:	dc32                	sw	a2,56(sp)
    119a:	de36                	sw	a3,60(sp)
    119c:	c0ba                	sw	a4,64(sp)
    119e:	c2be                	sw	a5,68(sp)
    11a0:	c4c2                	sw	a6,72(sp)
    11a2:	c6c6                	sw	a7,76(sp)
    11a4:	20000517          	auipc	a0,0x20000
    11a8:	94052503          	lw	a0,-1728(a0) # 20000ae4 <_impure_ptr>
    11ac:	c511                	beqz	a0,11b8 <iprintf+0x2a>
    11ae:	4d1c                	lw	a5,24(a0)
    11b0:	e781                	bnez	a5,11b8 <iprintf+0x2a>
    11b2:	c62a                	sw	a0,12(sp)
    11b4:	2bb1                	jal	1710 <__sinit>
    11b6:	4532                	lw	a0,12(sp)
    11b8:	450c                	lw	a1,8(a0)
    11ba:	1854                	addi	a3,sp,52
    11bc:	8622                	mv	a2,s0
    11be:	ce36                	sw	a3,28(sp)
    11c0:	213000ef          	jal	ra,1bd2 <_vfiprintf_r>
    11c4:	50b2                	lw	ra,44(sp)
    11c6:	5422                	lw	s0,40(sp)
    11c8:	6161                	addi	sp,sp,80
    11ca:	8082                	ret

000011cc <_puts_r>:
_puts_r():
    11cc:	1101                	addi	sp,sp,-32
    11ce:	ca26                	sw	s1,20(sp)
    11d0:	ce06                	sw	ra,28(sp)
    11d2:	cc22                	sw	s0,24(sp)
    11d4:	c84a                	sw	s2,16(sp)
    11d6:	c64e                	sw	s3,12(sp)
    11d8:	c452                	sw	s4,8(sp)
    11da:	84aa                	mv	s1,a0
    11dc:	e119                	bnez	a0,11e2 <_puts_r+0x16>
    11de:	451c                	lw	a5,8(a0)
    11e0:	9002                	ebreak
    11e2:	4d1c                	lw	a5,24(a0)
    11e4:	892e                	mv	s2,a1
    11e6:	e3ad                	bnez	a5,1248 <_puts_r+0x7c>
    11e8:	2325                	jal	1710 <__sinit>
    11ea:	4c9c                	lw	a5,24(s1)
    11ec:	4480                	lw	s0,8(s1)
    11ee:	cfb9                	beqz	a5,124c <_puts_r+0x80>
    11f0:	00001797          	auipc	a5,0x1
    11f4:	2fc78793          	addi	a5,a5,764 # 24ec <__sf_fake_stdin>
    11f8:	04f41d63          	bne	s0,a5,1252 <_puts_r+0x86>
    11fc:	40c0                	lw	s0,4(s1)
    11fe:	507c                	lw	a5,100(s0)
    1200:	8b85                	andi	a5,a5,1
    1202:	e799                	bnez	a5,1210 <_puts_r+0x44>
    1204:	245e                	lhu	a5,12(s0)
    1206:	2007f793          	andi	a5,a5,512
    120a:	e399                	bnez	a5,1210 <_puts_r+0x44>
    120c:	4c28                	lw	a0,88(s0)
    120e:	2dad                	jal	1888 <__retarget_lock_acquire_recursive>
    1210:	245e                	lhu	a5,12(s0)
    1212:	8ba1                	andi	a5,a5,8
    1214:	c399                	beqz	a5,121a <_puts_r+0x4e>
    1216:	481c                	lw	a5,16(s0)
    1218:	e3d5                	bnez	a5,12bc <_puts_r+0xf0>
    121a:	85a2                	mv	a1,s0
    121c:	8526                	mv	a0,s1
    121e:	2aad                	jal	1398 <__swsetup_r>
    1220:	cd51                	beqz	a0,12bc <_puts_r+0xf0>
    1222:	54fd                	li	s1,-1
    1224:	507c                	lw	a5,100(s0)
    1226:	8b85                	andi	a5,a5,1
    1228:	e799                	bnez	a5,1236 <_puts_r+0x6a>
    122a:	245e                	lhu	a5,12(s0)
    122c:	2007f793          	andi	a5,a5,512
    1230:	e399                	bnez	a5,1236 <_puts_r+0x6a>
    1232:	4c28                	lw	a0,88(s0)
    1234:	2d99                	jal	188a <__retarget_lock_release_recursive>
    1236:	40f2                	lw	ra,28(sp)
    1238:	4462                	lw	s0,24(sp)
    123a:	4942                	lw	s2,16(sp)
    123c:	49b2                	lw	s3,12(sp)
    123e:	4a22                	lw	s4,8(sp)
    1240:	8526                	mv	a0,s1
    1242:	44d2                	lw	s1,20(sp)
    1244:	6105                	addi	sp,sp,32
    1246:	8082                	ret
    1248:	4500                	lw	s0,8(a0)
    124a:	b75d                	j	11f0 <_puts_r+0x24>
    124c:	8526                	mv	a0,s1
    124e:	21c9                	jal	1710 <__sinit>
    1250:	b745                	j	11f0 <_puts_r+0x24>
    1252:	00001797          	auipc	a5,0x1
    1256:	27a78793          	addi	a5,a5,634 # 24cc <__sf_fake_stdout>
    125a:	00f41463          	bne	s0,a5,1262 <_puts_r+0x96>
    125e:	4480                	lw	s0,8(s1)
    1260:	bf79                	j	11fe <_puts_r+0x32>
    1262:	00001797          	auipc	a5,0x1
    1266:	24a78793          	addi	a5,a5,586 # 24ac <__sf_fake_stderr>
    126a:	f8f41ae3          	bne	s0,a5,11fe <_puts_r+0x32>
    126e:	44c0                	lw	s0,12(s1)
    1270:	b779                	j	11fe <_puts_r+0x32>
    1272:	c41c                	sw	a5,8(s0)
    1274:	0905                	addi	s2,s2,1
    1276:	0207c863          	bltz	a5,12a6 <_puts_r+0xda>
    127a:	401c                	lw	a5,0(s0)
    127c:	00178713          	addi	a4,a5,1
    1280:	c018                	sw	a4,0(s0)
    1282:	a38c                	sb	a1,0(a5)
    1284:	441c                	lw	a5,8(s0)
    1286:	00094583          	lbu	a1,0(s2)
    128a:	17fd                	addi	a5,a5,-1
    128c:	f1fd                	bnez	a1,1272 <_puts_r+0xa6>
    128e:	c41c                	sw	a5,8(s0)
    1290:	0207d963          	bgez	a5,12c2 <_puts_r+0xf6>
    1294:	8622                	mv	a2,s0
    1296:	45a9                	li	a1,10
    1298:	8526                	mv	a0,s1
    129a:	2089                	jal	12dc <__swbuf_r>
    129c:	57fd                	li	a5,-1
    129e:	f8f502e3          	beq	a0,a5,1222 <_puts_r+0x56>
    12a2:	44a9                	li	s1,10
    12a4:	b741                	j	1224 <_puts_r+0x58>
    12a6:	4c18                	lw	a4,24(s0)
    12a8:	00e7c463          	blt	a5,a4,12b0 <_puts_r+0xe4>
    12ac:	fd4597e3          	bne	a1,s4,127a <_puts_r+0xae>
    12b0:	8622                	mv	a2,s0
    12b2:	8526                	mv	a0,s1
    12b4:	2025                	jal	12dc <__swbuf_r>
    12b6:	fd3517e3          	bne	a0,s3,1284 <_puts_r+0xb8>
    12ba:	b7a5                	j	1222 <_puts_r+0x56>
    12bc:	59fd                	li	s3,-1
    12be:	4a29                	li	s4,10
    12c0:	b7d1                	j	1284 <_puts_r+0xb8>
    12c2:	401c                	lw	a5,0(s0)
    12c4:	00178713          	addi	a4,a5,1
    12c8:	c018                	sw	a4,0(s0)
    12ca:	4729                	li	a4,10
    12cc:	a398                	sb	a4,0(a5)
    12ce:	bfd1                	j	12a2 <_puts_r+0xd6>

000012d0 <puts>:
puts():
    12d0:	85aa                	mv	a1,a0
    12d2:	20000517          	auipc	a0,0x20000
    12d6:	81252503          	lw	a0,-2030(a0) # 20000ae4 <_impure_ptr>
    12da:	bdcd                	j	11cc <_puts_r>

000012dc <__swbuf_r>:
__swbuf_r():
    12dc:	1101                	addi	sp,sp,-32
    12de:	cc22                	sw	s0,24(sp)
    12e0:	ca26                	sw	s1,20(sp)
    12e2:	c84a                	sw	s2,16(sp)
    12e4:	ce06                	sw	ra,28(sp)
    12e6:	c64e                	sw	s3,12(sp)
    12e8:	84aa                	mv	s1,a0
    12ea:	892e                	mv	s2,a1
    12ec:	8432                	mv	s0,a2
    12ee:	c501                	beqz	a0,12f6 <__swbuf_r+0x1a>
    12f0:	4d1c                	lw	a5,24(a0)
    12f2:	e391                	bnez	a5,12f6 <__swbuf_r+0x1a>
    12f4:	2931                	jal	1710 <__sinit>
    12f6:	00001797          	auipc	a5,0x1
    12fa:	1f678793          	addi	a5,a5,502 # 24ec <__sf_fake_stdin>
    12fe:	02f41763          	bne	s0,a5,132c <__swbuf_r+0x50>
    1302:	40c0                	lw	s0,4(s1)
    1304:	4c1c                	lw	a5,24(s0)
    1306:	c41c                	sw	a5,8(s0)
    1308:	245e                	lhu	a5,12(s0)
    130a:	8ba1                	andi	a5,a5,8
    130c:	c399                	beqz	a5,1312 <__swbuf_r+0x36>
    130e:	481c                	lw	a5,16(s0)
    1310:	ef95                	bnez	a5,134c <__swbuf_r+0x70>
    1312:	85a2                	mv	a1,s0
    1314:	8526                	mv	a0,s1
    1316:	2049                	jal	1398 <__swsetup_r>
    1318:	c915                	beqz	a0,134c <__swbuf_r+0x70>
    131a:	597d                	li	s2,-1
    131c:	40f2                	lw	ra,28(sp)
    131e:	4462                	lw	s0,24(sp)
    1320:	44d2                	lw	s1,20(sp)
    1322:	49b2                	lw	s3,12(sp)
    1324:	854a                	mv	a0,s2
    1326:	4942                	lw	s2,16(sp)
    1328:	6105                	addi	sp,sp,32
    132a:	8082                	ret
    132c:	00001797          	auipc	a5,0x1
    1330:	1a078793          	addi	a5,a5,416 # 24cc <__sf_fake_stdout>
    1334:	00f41463          	bne	s0,a5,133c <__swbuf_r+0x60>
    1338:	4480                	lw	s0,8(s1)
    133a:	b7e9                	j	1304 <__swbuf_r+0x28>
    133c:	00001797          	auipc	a5,0x1
    1340:	17078793          	addi	a5,a5,368 # 24ac <__sf_fake_stderr>
    1344:	fcf410e3          	bne	s0,a5,1304 <__swbuf_r+0x28>
    1348:	44c0                	lw	s0,12(s1)
    134a:	bf6d                	j	1304 <__swbuf_r+0x28>
    134c:	481c                	lw	a5,16(s0)
    134e:	4008                	lw	a0,0(s0)
    1350:	0ff97993          	zext.b	s3,s2
    1354:	0ff97913          	zext.b	s2,s2
    1358:	8d1d                	sub	a0,a0,a5
    135a:	485c                	lw	a5,20(s0)
    135c:	00f54663          	blt	a0,a5,1368 <__swbuf_r+0x8c>
    1360:	85a2                	mv	a1,s0
    1362:	8526                	mv	a0,s1
    1364:	2ca1                	jal	15bc <_fflush_r>
    1366:	f955                	bnez	a0,131a <__swbuf_r+0x3e>
    1368:	441c                	lw	a5,8(s0)
    136a:	0505                	addi	a0,a0,1
    136c:	17fd                	addi	a5,a5,-1
    136e:	c41c                	sw	a5,8(s0)
    1370:	401c                	lw	a5,0(s0)
    1372:	00178713          	addi	a4,a5,1
    1376:	c018                	sw	a4,0(s0)
    1378:	01378023          	sb	s3,0(a5)
    137c:	485c                	lw	a5,20(s0)
    137e:	00a78863          	beq	a5,a0,138e <__swbuf_r+0xb2>
    1382:	245e                	lhu	a5,12(s0)
    1384:	8b85                	andi	a5,a5,1
    1386:	dbd9                	beqz	a5,131c <__swbuf_r+0x40>
    1388:	47a9                	li	a5,10
    138a:	f8f919e3          	bne	s2,a5,131c <__swbuf_r+0x40>
    138e:	85a2                	mv	a1,s0
    1390:	8526                	mv	a0,s1
    1392:	242d                	jal	15bc <_fflush_r>
    1394:	d541                	beqz	a0,131c <__swbuf_r+0x40>
    1396:	b751                	j	131a <__swbuf_r+0x3e>

00001398 <__swsetup_r>:
__swsetup_r():
    1398:	1141                	addi	sp,sp,-16
    139a:	c422                	sw	s0,8(sp)
    139c:	c226                	sw	s1,4(sp)
    139e:	c04a                	sw	s2,0(sp)
    13a0:	c606                	sw	ra,12(sp)
    13a2:	1ffff497          	auipc	s1,0x1ffff
    13a6:	7424a483          	lw	s1,1858(s1) # 20000ae4 <_impure_ptr>
    13aa:	892a                	mv	s2,a0
    13ac:	842e                	mv	s0,a1
    13ae:	c489                	beqz	s1,13b8 <__swsetup_r+0x20>
    13b0:	4c9c                	lw	a5,24(s1)
    13b2:	e399                	bnez	a5,13b8 <__swsetup_r+0x20>
    13b4:	8526                	mv	a0,s1
    13b6:	2ea9                	jal	1710 <__sinit>
    13b8:	00001797          	auipc	a5,0x1
    13bc:	13478793          	addi	a5,a5,308 # 24ec <__sf_fake_stdin>
    13c0:	02f41363          	bne	s0,a5,13e6 <__swsetup_r+0x4e>
    13c4:	40c0                	lw	s0,4(s1)
    13c6:	00c41783          	lh	a5,12(s0) # 4000200c <_eusrstack+0x1ffff00c>
    13ca:	0087f713          	andi	a4,a5,8
    13ce:	e725                	bnez	a4,1436 <__swsetup_r+0x9e>
    13d0:	0107f713          	andi	a4,a5,16
    13d4:	eb0d                	bnez	a4,1406 <__swsetup_r+0x6e>
    13d6:	4725                	li	a4,9
    13d8:	00e92023          	sw	a4,0(s2)
    13dc:	0407e793          	ori	a5,a5,64
    13e0:	a45e                	sh	a5,12(s0)
    13e2:	557d                	li	a0,-1
    13e4:	a071                	j	1470 <__swsetup_r+0xd8>
    13e6:	00001797          	auipc	a5,0x1
    13ea:	0e678793          	addi	a5,a5,230 # 24cc <__sf_fake_stdout>
    13ee:	00f41463          	bne	s0,a5,13f6 <__swsetup_r+0x5e>
    13f2:	4480                	lw	s0,8(s1)
    13f4:	bfc9                	j	13c6 <__swsetup_r+0x2e>
    13f6:	00001797          	auipc	a5,0x1
    13fa:	0b678793          	addi	a5,a5,182 # 24ac <__sf_fake_stderr>
    13fe:	fcf414e3          	bne	s0,a5,13c6 <__swsetup_r+0x2e>
    1402:	44c0                	lw	s0,12(s1)
    1404:	b7c9                	j	13c6 <__swsetup_r+0x2e>
    1406:	8b91                	andi	a5,a5,4
    1408:	c39d                	beqz	a5,142e <__swsetup_r+0x96>
    140a:	584c                	lw	a1,52(s0)
    140c:	c989                	beqz	a1,141e <__swsetup_r+0x86>
    140e:	04440793          	addi	a5,s0,68
    1412:	00f58463          	beq	a1,a5,141a <__swsetup_r+0x82>
    1416:	854a                	mv	a0,s2
    1418:	2bb9                	jal	1976 <_free_r>
    141a:	02042a23          	sw	zero,52(s0)
    141e:	245e                	lhu	a5,12(s0)
    1420:	00042223          	sw	zero,4(s0)
    1424:	fdb7f793          	andi	a5,a5,-37
    1428:	a45e                	sh	a5,12(s0)
    142a:	481c                	lw	a5,16(s0)
    142c:	c01c                	sw	a5,0(s0)
    142e:	245e                	lhu	a5,12(s0)
    1430:	0087e793          	ori	a5,a5,8
    1434:	a45e                	sh	a5,12(s0)
    1436:	481c                	lw	a5,16(s0)
    1438:	eb99                	bnez	a5,144e <__swsetup_r+0xb6>
    143a:	245e                	lhu	a5,12(s0)
    143c:	20000713          	li	a4,512
    1440:	2807f793          	andi	a5,a5,640
    1444:	00e78563          	beq	a5,a4,144e <__swsetup_r+0xb6>
    1448:	85a2                	mv	a1,s0
    144a:	854a                	mv	a0,s2
    144c:	2961                	jal	18e4 <__smakebuf_r>
    144e:	00c41783          	lh	a5,12(s0)
    1452:	0017f713          	andi	a4,a5,1
    1456:	c31d                	beqz	a4,147c <__swsetup_r+0xe4>
    1458:	4858                	lw	a4,20(s0)
    145a:	00042423          	sw	zero,8(s0)
    145e:	40e00733          	neg	a4,a4
    1462:	cc18                	sw	a4,24(s0)
    1464:	4818                	lw	a4,16(s0)
    1466:	4501                	li	a0,0
    1468:	e701                	bnez	a4,1470 <__swsetup_r+0xd8>
    146a:	0807f713          	andi	a4,a5,128
    146e:	f73d                	bnez	a4,13dc <__swsetup_r+0x44>
    1470:	40b2                	lw	ra,12(sp)
    1472:	4422                	lw	s0,8(sp)
    1474:	4492                	lw	s1,4(sp)
    1476:	4902                	lw	s2,0(sp)
    1478:	0141                	addi	sp,sp,16
    147a:	8082                	ret
    147c:	0027f713          	andi	a4,a5,2
    1480:	4681                	li	a3,0
    1482:	e311                	bnez	a4,1486 <__swsetup_r+0xee>
    1484:	4854                	lw	a3,20(s0)
    1486:	c414                	sw	a3,8(s0)
    1488:	bff1                	j	1464 <__swsetup_r+0xcc>

0000148a <__sflush_r>:
__sflush_r():
    148a:	00c59783          	lh	a5,12(a1)
    148e:	1101                	addi	sp,sp,-32
    1490:	cc22                	sw	s0,24(sp)
    1492:	ca26                	sw	s1,20(sp)
    1494:	ce06                	sw	ra,28(sp)
    1496:	c84a                	sw	s2,16(sp)
    1498:	c64e                	sw	s3,12(sp)
    149a:	0087f713          	andi	a4,a5,8
    149e:	84aa                	mv	s1,a0
    14a0:	842e                	mv	s0,a1
    14a2:	e379                	bnez	a4,1568 <__sflush_r+0xde>
    14a4:	41d8                	lw	a4,4(a1)
    14a6:	00e04563          	bgtz	a4,14b0 <__sflush_r+0x26>
    14aa:	41b8                	lw	a4,64(a1)
    14ac:	08e05663          	blez	a4,1538 <__sflush_r+0xae>
    14b0:	5458                	lw	a4,44(s0)
    14b2:	c359                	beqz	a4,1538 <__sflush_r+0xae>
    14b4:	0004a903          	lw	s2,0(s1)
    14b8:	0004a023          	sw	zero,0(s1)
    14bc:	500c                	lw	a1,32(s0)
    14be:	48c7d793          	bexti	a5,a5,0xc
    14c2:	cba9                	beqz	a5,1514 <__sflush_r+0x8a>
    14c4:	4870                	lw	a2,84(s0)
    14c6:	245e                	lhu	a5,12(s0)
    14c8:	8b91                	andi	a5,a5,4
    14ca:	c799                	beqz	a5,14d8 <__sflush_r+0x4e>
    14cc:	405c                	lw	a5,4(s0)
    14ce:	8e1d                	sub	a2,a2,a5
    14d0:	585c                	lw	a5,52(s0)
    14d2:	c399                	beqz	a5,14d8 <__sflush_r+0x4e>
    14d4:	403c                	lw	a5,64(s0)
    14d6:	8e1d                	sub	a2,a2,a5
    14d8:	545c                	lw	a5,44(s0)
    14da:	500c                	lw	a1,32(s0)
    14dc:	4681                	li	a3,0
    14de:	8526                	mv	a0,s1
    14e0:	9782                	jalr	a5
    14e2:	57fd                	li	a5,-1
    14e4:	04f50c63          	beq	a0,a5,153c <__sflush_r+0xb2>
    14e8:	481c                	lw	a5,16(s0)
    14ea:	6705                	lui	a4,0x1
    14ec:	00042223          	sw	zero,4(s0)
    14f0:	c01c                	sw	a5,0(s0)
    14f2:	245e                	lhu	a5,12(s0)
    14f4:	8ff9                	and	a5,a5,a4
    14f6:	c391                	beqz	a5,14fa <__sflush_r+0x70>
    14f8:	c868                	sw	a0,84(s0)
    14fa:	584c                	lw	a1,52(s0)
    14fc:	0124a023          	sw	s2,0(s1)
    1500:	cd85                	beqz	a1,1538 <__sflush_r+0xae>
    1502:	04440793          	addi	a5,s0,68
    1506:	00f58463          	beq	a1,a5,150e <__sflush_r+0x84>
    150a:	8526                	mv	a0,s1
    150c:	21ad                	jal	1976 <_free_r>
    150e:	02042a23          	sw	zero,52(s0)
    1512:	a01d                	j	1538 <__sflush_r+0xae>
    1514:	4601                	li	a2,0
    1516:	4685                	li	a3,1
    1518:	8526                	mv	a0,s1
    151a:	9702                	jalr	a4
    151c:	57fd                	li	a5,-1
    151e:	862a                	mv	a2,a0
    1520:	faf513e3          	bne	a0,a5,14c6 <__sflush_r+0x3c>
    1524:	409c                	lw	a5,0(s1)
    1526:	d3c5                	beqz	a5,14c6 <__sflush_r+0x3c>
    1528:	4775                	li	a4,29
    152a:	00e78563          	beq	a5,a4,1534 <__sflush_r+0xaa>
    152e:	4759                	li	a4,22
    1530:	06e79563          	bne	a5,a4,159a <__sflush_r+0x110>
    1534:	0124a023          	sw	s2,0(s1)
    1538:	4501                	li	a0,0
    153a:	a0b5                	j	15a6 <__sflush_r+0x11c>
    153c:	4098                	lw	a4,0(s1)
    153e:	00c41783          	lh	a5,12(s0)
    1542:	cf01                	beqz	a4,155a <__sflush_r+0xd0>
    1544:	46f5                	li	a3,29
    1546:	00d70563          	beq	a4,a3,1550 <__sflush_r+0xc6>
    154a:	46d9                	li	a3,22
    154c:	04d71963          	bne	a4,a3,159e <__sflush_r+0x114>
    1550:	481c                	lw	a5,16(s0)
    1552:	00042223          	sw	zero,4(s0)
    1556:	c01c                	sw	a5,0(s0)
    1558:	b74d                	j	14fa <__sflush_r+0x70>
    155a:	4818                	lw	a4,16(s0)
    155c:	00042223          	sw	zero,4(s0)
    1560:	48c7d793          	bexti	a5,a5,0xc
    1564:	c018                	sw	a4,0(s0)
    1566:	bf41                	j	14f6 <__sflush_r+0x6c>
    1568:	0105a983          	lw	s3,16(a1)
    156c:	fc0986e3          	beqz	s3,1538 <__sflush_r+0xae>
    1570:	0005a903          	lw	s2,0(a1)
    1574:	8b8d                	andi	a5,a5,3
    1576:	0135a023          	sw	s3,0(a1)
    157a:	41390933          	sub	s2,s2,s3
    157e:	4701                	li	a4,0
    1580:	e391                	bnez	a5,1584 <__sflush_r+0xfa>
    1582:	49d8                	lw	a4,20(a1)
    1584:	c418                	sw	a4,8(s0)
    1586:	fb2059e3          	blez	s2,1538 <__sflush_r+0xae>
    158a:	541c                	lw	a5,40(s0)
    158c:	500c                	lw	a1,32(s0)
    158e:	86ca                	mv	a3,s2
    1590:	864e                	mv	a2,s3
    1592:	8526                	mv	a0,s1
    1594:	9782                	jalr	a5
    1596:	00a04f63          	bgtz	a0,15b4 <__sflush_r+0x12a>
    159a:	00c41783          	lh	a5,12(s0)
    159e:	0407e793          	ori	a5,a5,64
    15a2:	a45e                	sh	a5,12(s0)
    15a4:	557d                	li	a0,-1
    15a6:	40f2                	lw	ra,28(sp)
    15a8:	4462                	lw	s0,24(sp)
    15aa:	44d2                	lw	s1,20(sp)
    15ac:	4942                	lw	s2,16(sp)
    15ae:	49b2                	lw	s3,12(sp)
    15b0:	6105                	addi	sp,sp,32
    15b2:	8082                	ret
    15b4:	99aa                	add	s3,s3,a0
    15b6:	40a90933          	sub	s2,s2,a0
    15ba:	b7f1                	j	1586 <__sflush_r+0xfc>

000015bc <_fflush_r>:
_fflush_r():
    15bc:	499c                	lw	a5,16(a1)
    15be:	1141                	addi	sp,sp,-16
    15c0:	c606                	sw	ra,12(sp)
    15c2:	c422                	sw	s0,8(sp)
    15c4:	c226                	sw	s1,4(sp)
    15c6:	eb81                	bnez	a5,15d6 <_fflush_r+0x1a>
    15c8:	4481                	li	s1,0
    15ca:	40b2                	lw	ra,12(sp)
    15cc:	4422                	lw	s0,8(sp)
    15ce:	8526                	mv	a0,s1
    15d0:	4492                	lw	s1,4(sp)
    15d2:	0141                	addi	sp,sp,16
    15d4:	8082                	ret
    15d6:	84aa                	mv	s1,a0
    15d8:	842e                	mv	s0,a1
    15da:	c501                	beqz	a0,15e2 <_fflush_r+0x26>
    15dc:	4d1c                	lw	a5,24(a0)
    15de:	e391                	bnez	a5,15e2 <_fflush_r+0x26>
    15e0:	2a05                	jal	1710 <__sinit>
    15e2:	00001797          	auipc	a5,0x1
    15e6:	f0a78793          	addi	a5,a5,-246 # 24ec <__sf_fake_stdin>
    15ea:	02f41c63          	bne	s0,a5,1622 <_fflush_r+0x66>
    15ee:	40c0                	lw	s0,4(s1)
    15f0:	00c41783          	lh	a5,12(s0)
    15f4:	dbf1                	beqz	a5,15c8 <_fflush_r+0xc>
    15f6:	5078                	lw	a4,100(s0)
    15f8:	8b05                	andi	a4,a4,1
    15fa:	e711                	bnez	a4,1606 <_fflush_r+0x4a>
    15fc:	2007f793          	andi	a5,a5,512
    1600:	e399                	bnez	a5,1606 <_fflush_r+0x4a>
    1602:	4c28                	lw	a0,88(s0)
    1604:	2451                	jal	1888 <__retarget_lock_acquire_recursive>
    1606:	8526                	mv	a0,s1
    1608:	85a2                	mv	a1,s0
    160a:	3541                	jal	148a <__sflush_r>
    160c:	507c                	lw	a5,100(s0)
    160e:	84aa                	mv	s1,a0
    1610:	8b85                	andi	a5,a5,1
    1612:	ffc5                	bnez	a5,15ca <_fflush_r+0xe>
    1614:	245e                	lhu	a5,12(s0)
    1616:	2007f793          	andi	a5,a5,512
    161a:	fbc5                	bnez	a5,15ca <_fflush_r+0xe>
    161c:	4c28                	lw	a0,88(s0)
    161e:	24b5                	jal	188a <__retarget_lock_release_recursive>
    1620:	b76d                	j	15ca <_fflush_r+0xe>
    1622:	00001797          	auipc	a5,0x1
    1626:	eaa78793          	addi	a5,a5,-342 # 24cc <__sf_fake_stdout>
    162a:	00f41463          	bne	s0,a5,1632 <_fflush_r+0x76>
    162e:	4480                	lw	s0,8(s1)
    1630:	b7c1                	j	15f0 <_fflush_r+0x34>
    1632:	00001797          	auipc	a5,0x1
    1636:	e7a78793          	addi	a5,a5,-390 # 24ac <__sf_fake_stderr>
    163a:	faf41be3          	bne	s0,a5,15f0 <_fflush_r+0x34>
    163e:	44c0                	lw	s0,12(s1)
    1640:	bf45                	j	15f0 <_fflush_r+0x34>

00001642 <std>:
std():
    1642:	1141                	addi	sp,sp,-16
    1644:	c422                	sw	s0,8(sp)
    1646:	c606                	sw	ra,12(sp)
    1648:	842a                	mv	s0,a0
    164a:	a54e                	sh	a1,12(a0)
    164c:	a572                	sh	a2,14(a0)
    164e:	00052023          	sw	zero,0(a0)
    1652:	00052223          	sw	zero,4(a0)
    1656:	00052423          	sw	zero,8(a0)
    165a:	06052223          	sw	zero,100(a0)
    165e:	00052823          	sw	zero,16(a0)
    1662:	00052a23          	sw	zero,20(a0)
    1666:	00052c23          	sw	zero,24(a0)
    166a:	4621                	li	a2,8
    166c:	4581                	li	a1,0
    166e:	05c50513          	addi	a0,a0,92
    1672:	cc4ff0ef          	jal	ra,b36 <memset>
    1676:	00001797          	auipc	a5,0x1
    167a:	83278793          	addi	a5,a5,-1998 # 1ea8 <__sread>
    167e:	d05c                	sw	a5,36(s0)
    1680:	00001797          	auipc	a5,0x1
    1684:	85278793          	addi	a5,a5,-1966 # 1ed2 <__swrite>
    1688:	d41c                	sw	a5,40(s0)
    168a:	00001797          	auipc	a5,0x1
    168e:	88e78793          	addi	a5,a5,-1906 # 1f18 <__sseek>
    1692:	d45c                	sw	a5,44(s0)
    1694:	00001797          	auipc	a5,0x1
    1698:	8b278793          	addi	a5,a5,-1870 # 1f46 <__sclose>
    169c:	40b2                	lw	ra,12(sp)
    169e:	d000                	sw	s0,32(s0)
    16a0:	d81c                	sw	a5,48(s0)
    16a2:	4422                	lw	s0,8(sp)
    16a4:	0141                	addi	sp,sp,16
    16a6:	8082                	ret

000016a8 <_cleanup_r>:
_cleanup_r():
    16a8:	00000597          	auipc	a1,0x0
    16ac:	f1458593          	addi	a1,a1,-236 # 15bc <_fflush_r>
    16b0:	a2bd                	j	181e <_fwalk_reent>

000016b2 <__sfmoreglue>:
__sfmoreglue():
    16b2:	1141                	addi	sp,sp,-16
    16b4:	c226                	sw	s1,4(sp)
    16b6:	06800793          	li	a5,104
    16ba:	fff58493          	addi	s1,a1,-1
    16be:	02f484b3          	mul	s1,s1,a5
    16c2:	c04a                	sw	s2,0(sp)
    16c4:	892e                	mv	s2,a1
    16c6:	c422                	sw	s0,8(sp)
    16c8:	c606                	sw	ra,12(sp)
    16ca:	07448593          	addi	a1,s1,116
    16ce:	2e69                	jal	1a68 <_malloc_r>
    16d0:	842a                	mv	s0,a0
    16d2:	cd01                	beqz	a0,16ea <__sfmoreglue+0x38>
    16d4:	00052023          	sw	zero,0(a0)
    16d8:	01252223          	sw	s2,4(a0)
    16dc:	0531                	addi	a0,a0,12
    16de:	c408                	sw	a0,8(s0)
    16e0:	06848613          	addi	a2,s1,104
    16e4:	4581                	li	a1,0
    16e6:	c50ff0ef          	jal	ra,b36 <memset>
    16ea:	40b2                	lw	ra,12(sp)
    16ec:	8522                	mv	a0,s0
    16ee:	4422                	lw	s0,8(sp)
    16f0:	4492                	lw	s1,4(sp)
    16f2:	4902                	lw	s2,0(sp)
    16f4:	0141                	addi	sp,sp,16
    16f6:	8082                	ret

000016f8 <__sfp_lock_acquire>:
__sfp_lock_acquire():
    16f8:	81418513          	addi	a0,gp,-2028 # 20000af4 <__lock___sfp_recursive_mutex>
    16fc:	a271                	j	1888 <__retarget_lock_acquire_recursive>

000016fe <__sfp_lock_release>:
__sfp_lock_release():
    16fe:	81418513          	addi	a0,gp,-2028 # 20000af4 <__lock___sfp_recursive_mutex>
    1702:	a261                	j	188a <__retarget_lock_release_recursive>

00001704 <__sinit_lock_acquire>:
__sinit_lock_acquire():
    1704:	81818513          	addi	a0,gp,-2024 # 20000af8 <__lock___sinit_recursive_mutex>
    1708:	a241                	j	1888 <__retarget_lock_acquire_recursive>

0000170a <__sinit_lock_release>:
__sinit_lock_release():
    170a:	81818513          	addi	a0,gp,-2024 # 20000af8 <__lock___sinit_recursive_mutex>
    170e:	aab5                	j	188a <__retarget_lock_release_recursive>

00001710 <__sinit>:
__sinit():
    1710:	1141                	addi	sp,sp,-16
    1712:	c422                	sw	s0,8(sp)
    1714:	c606                	sw	ra,12(sp)
    1716:	842a                	mv	s0,a0
    1718:	37f5                	jal	1704 <__sinit_lock_acquire>
    171a:	4c1c                	lw	a5,24(s0)
    171c:	c789                	beqz	a5,1726 <__sinit+0x16>
    171e:	4422                	lw	s0,8(sp)
    1720:	40b2                	lw	ra,12(sp)
    1722:	0141                	addi	sp,sp,16
    1724:	b7dd                	j	170a <__sinit_lock_release>
    1726:	00000797          	auipc	a5,0x0
    172a:	f8278793          	addi	a5,a5,-126 # 16a8 <_cleanup_r>
    172e:	d41c                	sw	a5,40(s0)
    1730:	04042423          	sw	zero,72(s0)
    1734:	04042623          	sw	zero,76(s0)
    1738:	04042823          	sw	zero,80(s0)
    173c:	8081a783          	lw	a5,-2040(gp) # 20000ae8 <_global_impure_ptr>
    1740:	00879463          	bne	a5,s0,1748 <__sinit+0x38>
    1744:	4785                	li	a5,1
    1746:	cc1c                	sw	a5,24(s0)
    1748:	8522                	mv	a0,s0
    174a:	203d                	jal	1778 <__sfp>
    174c:	c048                	sw	a0,4(s0)
    174e:	8522                	mv	a0,s0
    1750:	2025                	jal	1778 <__sfp>
    1752:	c408                	sw	a0,8(s0)
    1754:	8522                	mv	a0,s0
    1756:	200d                	jal	1778 <__sfp>
    1758:	c448                	sw	a0,12(s0)
    175a:	4048                	lw	a0,4(s0)
    175c:	4601                	li	a2,0
    175e:	4591                	li	a1,4
    1760:	35cd                	jal	1642 <std>
    1762:	4408                	lw	a0,8(s0)
    1764:	4605                	li	a2,1
    1766:	45a5                	li	a1,9
    1768:	3de9                	jal	1642 <std>
    176a:	4448                	lw	a0,12(s0)
    176c:	4609                	li	a2,2
    176e:	45c9                	li	a1,18
    1770:	3dc9                	jal	1642 <std>
    1772:	4785                	li	a5,1
    1774:	cc1c                	sw	a5,24(s0)
    1776:	b765                	j	171e <__sinit+0xe>

00001778 <__sfp>:
__sfp():
    1778:	1141                	addi	sp,sp,-16
    177a:	c226                	sw	s1,4(sp)
    177c:	c04a                	sw	s2,0(sp)
    177e:	c606                	sw	ra,12(sp)
    1780:	c422                	sw	s0,8(sp)
    1782:	892a                	mv	s2,a0
    1784:	3f95                	jal	16f8 <__sfp_lock_acquire>
    1786:	8081a483          	lw	s1,-2040(gp) # 20000ae8 <_global_impure_ptr>
    178a:	4c9c                	lw	a5,24(s1)
    178c:	e399                	bnez	a5,1792 <__sfp+0x1a>
    178e:	8526                	mv	a0,s1
    1790:	3741                	jal	1710 <__sinit>
    1792:	04848493          	addi	s1,s1,72
    1796:	4480                	lw	s0,8(s1)
    1798:	40dc                	lw	a5,4(s1)
    179a:	17fd                	addi	a5,a5,-1
    179c:	0007d663          	bgez	a5,17a8 <__sfp+0x30>
    17a0:	409c                	lw	a5,0(s1)
    17a2:	c3bd                	beqz	a5,1808 <__sfp+0x90>
    17a4:	4084                	lw	s1,0(s1)
    17a6:	bfc5                	j	1796 <__sfp+0x1e>
    17a8:	00c41703          	lh	a4,12(s0)
    17ac:	eb39                	bnez	a4,1802 <__sfp+0x8a>
    17ae:	77c1                	lui	a5,0xffff0
    17b0:	0785                	addi	a5,a5,1 # ffff0001 <_eusrstack+0xdffed001>
    17b2:	c45c                	sw	a5,12(s0)
    17b4:	05840513          	addi	a0,s0,88
    17b8:	06042223          	sw	zero,100(s0)
    17bc:	20e9                	jal	1886 <__retarget_lock_init_recursive>
    17be:	3781                	jal	16fe <__sfp_lock_release>
    17c0:	4621                	li	a2,8
    17c2:	00042023          	sw	zero,0(s0)
    17c6:	00042423          	sw	zero,8(s0)
    17ca:	00042223          	sw	zero,4(s0)
    17ce:	00042823          	sw	zero,16(s0)
    17d2:	00042a23          	sw	zero,20(s0)
    17d6:	00042c23          	sw	zero,24(s0)
    17da:	4581                	li	a1,0
    17dc:	05c40513          	addi	a0,s0,92
    17e0:	b56ff0ef          	jal	ra,b36 <memset>
    17e4:	02042a23          	sw	zero,52(s0)
    17e8:	02042c23          	sw	zero,56(s0)
    17ec:	04042423          	sw	zero,72(s0)
    17f0:	04042623          	sw	zero,76(s0)
    17f4:	40b2                	lw	ra,12(sp)
    17f6:	8522                	mv	a0,s0
    17f8:	4422                	lw	s0,8(sp)
    17fa:	4492                	lw	s1,4(sp)
    17fc:	4902                	lw	s2,0(sp)
    17fe:	0141                	addi	sp,sp,16
    1800:	8082                	ret
    1802:	06840413          	addi	s0,s0,104
    1806:	bf51                	j	179a <__sfp+0x22>
    1808:	4591                	li	a1,4
    180a:	854a                	mv	a0,s2
    180c:	355d                	jal	16b2 <__sfmoreglue>
    180e:	c088                	sw	a0,0(s1)
    1810:	842a                	mv	s0,a0
    1812:	f949                	bnez	a0,17a4 <__sfp+0x2c>
    1814:	35ed                	jal	16fe <__sfp_lock_release>
    1816:	47b1                	li	a5,12
    1818:	00f92023          	sw	a5,0(s2)
    181c:	bfe1                	j	17f4 <__sfp+0x7c>

0000181e <_fwalk_reent>:
_fwalk_reent():
    181e:	7179                	addi	sp,sp,-48
    1820:	d422                	sw	s0,40(sp)
    1822:	d04a                	sw	s2,32(sp)
    1824:	ce4e                	sw	s3,28(sp)
    1826:	cc52                	sw	s4,24(sp)
    1828:	c85a                	sw	s6,16(sp)
    182a:	c65e                	sw	s7,12(sp)
    182c:	d606                	sw	ra,44(sp)
    182e:	d226                	sw	s1,36(sp)
    1830:	ca56                	sw	s5,20(sp)
    1832:	892a                	mv	s2,a0
    1834:	8a2e                	mv	s4,a1
    1836:	04850413          	addi	s0,a0,72
    183a:	4981                	li	s3,0
    183c:	4b05                	li	s6,1
    183e:	5bfd                	li	s7,-1
    1840:	4404                	lw	s1,8(s0)
    1842:	00442a83          	lw	s5,4(s0)
    1846:	1afd                	addi	s5,s5,-1 # ffff <_data_lma+0xda5b>
    1848:	020ad063          	bgez	s5,1868 <_fwalk_reent+0x4a>
    184c:	4000                	lw	s0,0(s0)
    184e:	f86d                	bnez	s0,1840 <_fwalk_reent+0x22>
    1850:	50b2                	lw	ra,44(sp)
    1852:	5422                	lw	s0,40(sp)
    1854:	5492                	lw	s1,36(sp)
    1856:	5902                	lw	s2,32(sp)
    1858:	4a62                	lw	s4,24(sp)
    185a:	4ad2                	lw	s5,20(sp)
    185c:	4b42                	lw	s6,16(sp)
    185e:	4bb2                	lw	s7,12(sp)
    1860:	854e                	mv	a0,s3
    1862:	49f2                	lw	s3,28(sp)
    1864:	6145                	addi	sp,sp,48
    1866:	8082                	ret
    1868:	24de                	lhu	a5,12(s1)
    186a:	00fb7b63          	bgeu	s6,a5,1880 <_fwalk_reent+0x62>
    186e:	00e49783          	lh	a5,14(s1)
    1872:	01778763          	beq	a5,s7,1880 <_fwalk_reent+0x62>
    1876:	85a6                	mv	a1,s1
    1878:	854a                	mv	a0,s2
    187a:	9a02                	jalr	s4
    187c:	00a9e9b3          	or	s3,s3,a0
    1880:	06848493          	addi	s1,s1,104
    1884:	b7c9                	j	1846 <_fwalk_reent+0x28>

00001886 <__retarget_lock_init_recursive>:
__retarget_lock_init_recursive():
    1886:	8082                	ret

00001888 <__retarget_lock_acquire_recursive>:
__retarget_lock_acquire_recursive():
    1888:	8082                	ret

0000188a <__retarget_lock_release_recursive>:
__retarget_lock_release_recursive():
    188a:	8082                	ret

0000188c <__swhatbuf_r>:
__swhatbuf_r():
    188c:	7159                	addi	sp,sp,-112
    188e:	d4a2                	sw	s0,104(sp)
    1890:	842e                	mv	s0,a1
    1892:	00e59583          	lh	a1,14(a1)
    1896:	d2a6                	sw	s1,100(sp)
    1898:	d0ca                	sw	s2,96(sp)
    189a:	d686                	sw	ra,108(sp)
    189c:	84b2                	mv	s1,a2
    189e:	8936                	mv	s2,a3
    18a0:	0205d263          	bgez	a1,18c4 <__swhatbuf_r+0x38>
    18a4:	245e                	lhu	a5,12(s0)
    18a6:	0807f793          	andi	a5,a5,128
    18aa:	eb8d                	bnez	a5,18dc <__swhatbuf_r+0x50>
    18ac:	40000713          	li	a4,1024
    18b0:	50b6                	lw	ra,108(sp)
    18b2:	5426                	lw	s0,104(sp)
    18b4:	00f92023          	sw	a5,0(s2)
    18b8:	c098                	sw	a4,0(s1)
    18ba:	5906                	lw	s2,96(sp)
    18bc:	5496                	lw	s1,100(sp)
    18be:	4501                	li	a0,0
    18c0:	6165                	addi	sp,sp,112
    18c2:	8082                	ret
    18c4:	0030                	addi	a2,sp,8
    18c6:	2de1                	jal	1f9e <_fstat_r>
    18c8:	fc054ee3          	bltz	a0,18a4 <__swhatbuf_r+0x18>
    18cc:	4732                	lw	a4,12(sp)
    18ce:	67bd                	lui	a5,0xf
    18d0:	8ff9                	and	a5,a5,a4
    18d2:	7779                	lui	a4,0xffffe
    18d4:	97ba                	add	a5,a5,a4
    18d6:	0017b793          	seqz	a5,a5
    18da:	bfc9                	j	18ac <__swhatbuf_r+0x20>
    18dc:	4781                	li	a5,0
    18de:	04000713          	li	a4,64
    18e2:	b7f9                	j	18b0 <__swhatbuf_r+0x24>

000018e4 <__smakebuf_r>:
__smakebuf_r():
    18e4:	25de                	lhu	a5,12(a1)
    18e6:	7179                	addi	sp,sp,-48
    18e8:	d422                	sw	s0,40(sp)
    18ea:	d606                	sw	ra,44(sp)
    18ec:	d226                	sw	s1,36(sp)
    18ee:	d04a                	sw	s2,32(sp)
    18f0:	ce4e                	sw	s3,28(sp)
    18f2:	8b89                	andi	a5,a5,2
    18f4:	842e                	mv	s0,a1
    18f6:	cf91                	beqz	a5,1912 <__smakebuf_r+0x2e>
    18f8:	04740793          	addi	a5,s0,71
    18fc:	c01c                	sw	a5,0(s0)
    18fe:	c81c                	sw	a5,16(s0)
    1900:	4785                	li	a5,1
    1902:	c85c                	sw	a5,20(s0)
    1904:	50b2                	lw	ra,44(sp)
    1906:	5422                	lw	s0,40(sp)
    1908:	5492                	lw	s1,36(sp)
    190a:	5902                	lw	s2,32(sp)
    190c:	49f2                	lw	s3,28(sp)
    190e:	6145                	addi	sp,sp,48
    1910:	8082                	ret
    1912:	0074                	addi	a3,sp,12
    1914:	0030                	addi	a2,sp,8
    1916:	84aa                	mv	s1,a0
    1918:	3f95                	jal	188c <__swhatbuf_r>
    191a:	49a2                	lw	s3,8(sp)
    191c:	892a                	mv	s2,a0
    191e:	8526                	mv	a0,s1
    1920:	85ce                	mv	a1,s3
    1922:	2299                	jal	1a68 <_malloc_r>
    1924:	e919                	bnez	a0,193a <__smakebuf_r+0x56>
    1926:	00c41783          	lh	a5,12(s0)
    192a:	2007f713          	andi	a4,a5,512
    192e:	fb79                	bnez	a4,1904 <__smakebuf_r+0x20>
    1930:	9bf1                	andi	a5,a5,-4
    1932:	0027e793          	ori	a5,a5,2
    1936:	a45e                	sh	a5,12(s0)
    1938:	b7c1                	j	18f8 <__smakebuf_r+0x14>
    193a:	00000797          	auipc	a5,0x0
    193e:	d6e78793          	addi	a5,a5,-658 # 16a8 <_cleanup_r>
    1942:	d49c                	sw	a5,40(s1)
    1944:	245e                	lhu	a5,12(s0)
    1946:	c008                	sw	a0,0(s0)
    1948:	c808                	sw	a0,16(s0)
    194a:	0807e793          	ori	a5,a5,128
    194e:	a45e                	sh	a5,12(s0)
    1950:	47b2                	lw	a5,12(sp)
    1952:	01342a23          	sw	s3,20(s0)
    1956:	cb99                	beqz	a5,196c <__smakebuf_r+0x88>
    1958:	00e41583          	lh	a1,14(s0)
    195c:	8526                	mv	a0,s1
    195e:	25a5                	jal	1fc6 <_isatty_r>
    1960:	c511                	beqz	a0,196c <__smakebuf_r+0x88>
    1962:	245e                	lhu	a5,12(s0)
    1964:	9bf1                	andi	a5,a5,-4
    1966:	0017e793          	ori	a5,a5,1
    196a:	a45e                	sh	a5,12(s0)
    196c:	245e                	lhu	a5,12(s0)
    196e:	0127e533          	or	a0,a5,s2
    1972:	a44a                	sh	a0,12(s0)
    1974:	bf41                	j	1904 <__smakebuf_r+0x20>

00001976 <_free_r>:
_free_r():
    1976:	cdd1                	beqz	a1,1a12 <_free_r+0x9c>
    1978:	ffc5a783          	lw	a5,-4(a1)
    197c:	1101                	addi	sp,sp,-32
    197e:	cc22                	sw	s0,24(sp)
    1980:	ce06                	sw	ra,28(sp)
    1982:	ffc58413          	addi	s0,a1,-4
    1986:	0007d363          	bgez	a5,198c <_free_r+0x16>
    198a:	943e                	add	s0,s0,a5
    198c:	c62a                	sw	a0,12(sp)
    198e:	2545                	jal	202e <__malloc_lock>
    1990:	82018713          	addi	a4,gp,-2016 # 20000b00 <__malloc_free_list>
    1994:	431c                	lw	a5,0(a4)
    1996:	4532                	lw	a0,12(sp)
    1998:	eb81                	bnez	a5,19a8 <_free_r+0x32>
    199a:	00042223          	sw	zero,4(s0)
    199e:	c300                	sw	s0,0(a4)
    19a0:	4462                	lw	s0,24(sp)
    19a2:	40f2                	lw	ra,28(sp)
    19a4:	6105                	addi	sp,sp,32
    19a6:	ad41                	j	2036 <__malloc_unlock>
    19a8:	00f47d63          	bgeu	s0,a5,19c2 <_free_r+0x4c>
    19ac:	4010                	lw	a2,0(s0)
    19ae:	00c406b3          	add	a3,s0,a2
    19b2:	00d79663          	bne	a5,a3,19be <_free_r+0x48>
    19b6:	4394                	lw	a3,0(a5)
    19b8:	43dc                	lw	a5,4(a5)
    19ba:	96b2                	add	a3,a3,a2
    19bc:	c014                	sw	a3,0(s0)
    19be:	c05c                	sw	a5,4(s0)
    19c0:	bff9                	j	199e <_free_r+0x28>
    19c2:	873e                	mv	a4,a5
    19c4:	43dc                	lw	a5,4(a5)
    19c6:	c399                	beqz	a5,19cc <_free_r+0x56>
    19c8:	fef47de3          	bgeu	s0,a5,19c2 <_free_r+0x4c>
    19cc:	4314                	lw	a3,0(a4)
    19ce:	00d70633          	add	a2,a4,a3
    19d2:	00861f63          	bne	a2,s0,19f0 <_free_r+0x7a>
    19d6:	4010                	lw	a2,0(s0)
    19d8:	96b2                	add	a3,a3,a2
    19da:	c314                	sw	a3,0(a4)
    19dc:	00d70633          	add	a2,a4,a3
    19e0:	fcc790e3          	bne	a5,a2,19a0 <_free_r+0x2a>
    19e4:	4390                	lw	a2,0(a5)
    19e6:	43dc                	lw	a5,4(a5)
    19e8:	96b2                	add	a3,a3,a2
    19ea:	c314                	sw	a3,0(a4)
    19ec:	c35c                	sw	a5,4(a4)
    19ee:	bf4d                	j	19a0 <_free_r+0x2a>
    19f0:	00c47563          	bgeu	s0,a2,19fa <_free_r+0x84>
    19f4:	47b1                	li	a5,12
    19f6:	c11c                	sw	a5,0(a0)
    19f8:	b765                	j	19a0 <_free_r+0x2a>
    19fa:	4010                	lw	a2,0(s0)
    19fc:	00c406b3          	add	a3,s0,a2
    1a00:	00d79663          	bne	a5,a3,1a0c <_free_r+0x96>
    1a04:	4394                	lw	a3,0(a5)
    1a06:	43dc                	lw	a5,4(a5)
    1a08:	96b2                	add	a3,a3,a2
    1a0a:	c014                	sw	a3,0(s0)
    1a0c:	c05c                	sw	a5,4(s0)
    1a0e:	c340                	sw	s0,4(a4)
    1a10:	bf41                	j	19a0 <_free_r+0x2a>
    1a12:	8082                	ret

00001a14 <sbrk_aligned>:
sbrk_aligned():
    1a14:	1141                	addi	sp,sp,-16
    1a16:	c04a                	sw	s2,0(sp)
    1a18:	81c18913          	addi	s2,gp,-2020 # 20000afc <__malloc_sbrk_start>
    1a1c:	00092783          	lw	a5,0(s2)
    1a20:	c422                	sw	s0,8(sp)
    1a22:	c226                	sw	s1,4(sp)
    1a24:	c606                	sw	ra,12(sp)
    1a26:	84aa                	mv	s1,a0
    1a28:	842e                	mv	s0,a1
    1a2a:	e789                	bnez	a5,1a34 <sbrk_aligned+0x20>
    1a2c:	4581                	li	a1,0
    1a2e:	2989                	jal	1e80 <_sbrk_r>
    1a30:	00a92023          	sw	a0,0(s2)
    1a34:	85a2                	mv	a1,s0
    1a36:	8526                	mv	a0,s1
    1a38:	21a1                	jal	1e80 <_sbrk_r>
    1a3a:	597d                	li	s2,-1
    1a3c:	01251a63          	bne	a0,s2,1a50 <sbrk_aligned+0x3c>
    1a40:	547d                	li	s0,-1
    1a42:	40b2                	lw	ra,12(sp)
    1a44:	8522                	mv	a0,s0
    1a46:	4422                	lw	s0,8(sp)
    1a48:	4492                	lw	s1,4(sp)
    1a4a:	4902                	lw	s2,0(sp)
    1a4c:	0141                	addi	sp,sp,16
    1a4e:	8082                	ret
    1a50:	00350413          	addi	s0,a0,3
    1a54:	9871                	andi	s0,s0,-4
    1a56:	fe8506e3          	beq	a0,s0,1a42 <sbrk_aligned+0x2e>
    1a5a:	40a405b3          	sub	a1,s0,a0
    1a5e:	8526                	mv	a0,s1
    1a60:	2105                	jal	1e80 <_sbrk_r>
    1a62:	ff2510e3          	bne	a0,s2,1a42 <sbrk_aligned+0x2e>
    1a66:	bfe9                	j	1a40 <sbrk_aligned+0x2c>

00001a68 <_malloc_r>:
_malloc_r():
    1a68:	1101                	addi	sp,sp,-32
    1a6a:	ca26                	sw	s1,20(sp)
    1a6c:	00358493          	addi	s1,a1,3
    1a70:	98f1                	andi	s1,s1,-4
    1a72:	c84a                	sw	s2,16(sp)
    1a74:	04a1                	addi	s1,s1,8
    1a76:	47b1                	li	a5,12
    1a78:	ce06                	sw	ra,28(sp)
    1a7a:	cc22                	sw	s0,24(sp)
    1a7c:	c64e                	sw	s3,12(sp)
    1a7e:	892a                	mv	s2,a0
    1a80:	0af4f4b3          	maxu	s1,s1,a5
    1a84:	0004c463          	bltz	s1,1a8c <_malloc_r+0x24>
    1a88:	00b4fd63          	bgeu	s1,a1,1aa2 <_malloc_r+0x3a>
    1a8c:	47b1                	li	a5,12
    1a8e:	00f92023          	sw	a5,0(s2)
    1a92:	4501                	li	a0,0
    1a94:	40f2                	lw	ra,28(sp)
    1a96:	4462                	lw	s0,24(sp)
    1a98:	44d2                	lw	s1,20(sp)
    1a9a:	4942                	lw	s2,16(sp)
    1a9c:	49b2                	lw	s3,12(sp)
    1a9e:	6105                	addi	sp,sp,32
    1aa0:	8082                	ret
    1aa2:	2371                	jal	202e <__malloc_lock>
    1aa4:	82018993          	addi	s3,gp,-2016 # 20000b00 <__malloc_free_list>
    1aa8:	0009a783          	lw	a5,0(s3)
    1aac:	843e                	mv	s0,a5
    1aae:	e431                	bnez	s0,1afa <_malloc_r+0x92>
    1ab0:	85a6                	mv	a1,s1
    1ab2:	854a                	mv	a0,s2
    1ab4:	3785                	jal	1a14 <sbrk_aligned>
    1ab6:	57fd                	li	a5,-1
    1ab8:	842a                	mv	s0,a0
    1aba:	0af51663          	bne	a0,a5,1b66 <_malloc_r+0xfe>
    1abe:	0009a403          	lw	s0,0(s3)
    1ac2:	87a2                	mv	a5,s0
    1ac4:	ebc1                	bnez	a5,1b54 <_malloc_r+0xec>
    1ac6:	00042983          	lw	s3,0(s0)
    1aca:	4581                	li	a1,0
    1acc:	854a                	mv	a0,s2
    1ace:	99a2                	add	s3,s3,s0
    1ad0:	2e45                	jal	1e80 <_sbrk_r>
    1ad2:	08a99463          	bne	s3,a0,1b5a <_malloc_r+0xf2>
    1ad6:	401c                	lw	a5,0(s0)
    1ad8:	048d                	addi	s1,s1,3
    1ada:	854a                	mv	a0,s2
    1adc:	8c9d                	sub	s1,s1,a5
    1ade:	98f1                	andi	s1,s1,-4
    1ae0:	47b1                	li	a5,12
    1ae2:	04a1                	addi	s1,s1,8
    1ae4:	0af4f4b3          	maxu	s1,s1,a5
    1ae8:	85a6                	mv	a1,s1
    1aea:	372d                	jal	1a14 <sbrk_aligned>
    1aec:	57fd                	li	a5,-1
    1aee:	06f50663          	beq	a0,a5,1b5a <_malloc_r+0xf2>
    1af2:	401c                	lw	a5,0(s0)
    1af4:	97a6                	add	a5,a5,s1
    1af6:	c01c                	sw	a5,0(s0)
    1af8:	a015                	j	1b1c <_malloc_r+0xb4>
    1afa:	4014                	lw	a3,0(s0)
    1afc:	8e85                	sub	a3,a3,s1
    1afe:	0406c863          	bltz	a3,1b4e <_malloc_r+0xe6>
    1b02:	472d                	li	a4,11
    1b04:	02d77d63          	bgeu	a4,a3,1b3e <_malloc_r+0xd6>
    1b08:	c004                	sw	s1,0(s0)
    1b0a:	00940733          	add	a4,s0,s1
    1b0e:	02879663          	bne	a5,s0,1b3a <_malloc_r+0xd2>
    1b12:	00e9a023          	sw	a4,0(s3)
    1b16:	405c                	lw	a5,4(s0)
    1b18:	c314                	sw	a3,0(a4)
    1b1a:	c35c                	sw	a5,4(a4)
    1b1c:	854a                	mv	a0,s2
    1b1e:	2b21                	jal	2036 <__malloc_unlock>
    1b20:	00b40513          	addi	a0,s0,11
    1b24:	00440793          	addi	a5,s0,4
    1b28:	9961                	andi	a0,a0,-8
    1b2a:	40f50733          	sub	a4,a0,a5
    1b2e:	f6f503e3          	beq	a0,a5,1a94 <_malloc_r+0x2c>
    1b32:	943a                	add	s0,s0,a4
    1b34:	8f89                	sub	a5,a5,a0
    1b36:	c01c                	sw	a5,0(s0)
    1b38:	bfb1                	j	1a94 <_malloc_r+0x2c>
    1b3a:	c3d8                	sw	a4,4(a5)
    1b3c:	bfe9                	j	1b16 <_malloc_r+0xae>
    1b3e:	4058                	lw	a4,4(s0)
    1b40:	00879563          	bne	a5,s0,1b4a <_malloc_r+0xe2>
    1b44:	00e9a023          	sw	a4,0(s3)
    1b48:	bfd1                	j	1b1c <_malloc_r+0xb4>
    1b4a:	c3d8                	sw	a4,4(a5)
    1b4c:	bfc1                	j	1b1c <_malloc_r+0xb4>
    1b4e:	87a2                	mv	a5,s0
    1b50:	4040                	lw	s0,4(s0)
    1b52:	bfb1                	j	1aae <_malloc_r+0x46>
    1b54:	843e                	mv	s0,a5
    1b56:	43dc                	lw	a5,4(a5)
    1b58:	b7b5                	j	1ac4 <_malloc_r+0x5c>
    1b5a:	47b1                	li	a5,12
    1b5c:	00f92023          	sw	a5,0(s2)
    1b60:	854a                	mv	a0,s2
    1b62:	29d1                	jal	2036 <__malloc_unlock>
    1b64:	b73d                	j	1a92 <_malloc_r+0x2a>
    1b66:	c104                	sw	s1,0(a0)
    1b68:	bf55                	j	1b1c <_malloc_r+0xb4>

00001b6a <__sfputc_r>:
__sfputc_r():
    1b6a:	461c                	lw	a5,8(a2)
    1b6c:	17fd                	addi	a5,a5,-1
    1b6e:	c61c                	sw	a5,8(a2)
    1b70:	0007da63          	bgez	a5,1b84 <__sfputc_r+0x1a>
    1b74:	4e18                	lw	a4,24(a2)
    1b76:	00e7c563          	blt	a5,a4,1b80 <__sfputc_r+0x16>
    1b7a:	47a9                	li	a5,10
    1b7c:	00f59463          	bne	a1,a5,1b84 <__sfputc_r+0x1a>
    1b80:	f5cff06f          	j	12dc <__swbuf_r>
    1b84:	421c                	lw	a5,0(a2)
    1b86:	852e                	mv	a0,a1
    1b88:	00178713          	addi	a4,a5,1
    1b8c:	c218                	sw	a4,0(a2)
    1b8e:	a38c                	sb	a1,0(a5)
    1b90:	8082                	ret

00001b92 <__sfputs_r>:
__sfputs_r():
    1b92:	1101                	addi	sp,sp,-32
    1b94:	cc22                	sw	s0,24(sp)
    1b96:	ca26                	sw	s1,20(sp)
    1b98:	c84a                	sw	s2,16(sp)
    1b9a:	c64e                	sw	s3,12(sp)
    1b9c:	c452                	sw	s4,8(sp)
    1b9e:	ce06                	sw	ra,28(sp)
    1ba0:	892a                	mv	s2,a0
    1ba2:	89ae                	mv	s3,a1
    1ba4:	8432                	mv	s0,a2
    1ba6:	00d604b3          	add	s1,a2,a3
    1baa:	5a7d                	li	s4,-1
    1bac:	00941463          	bne	s0,s1,1bb4 <__sfputs_r+0x22>
    1bb0:	4501                	li	a0,0
    1bb2:	a801                	j	1bc2 <__sfputs_r+0x30>
    1bb4:	200c                	lbu	a1,0(s0)
    1bb6:	864e                	mv	a2,s3
    1bb8:	854a                	mv	a0,s2
    1bba:	3f45                	jal	1b6a <__sfputc_r>
    1bbc:	0405                	addi	s0,s0,1
    1bbe:	ff4517e3          	bne	a0,s4,1bac <__sfputs_r+0x1a>
    1bc2:	40f2                	lw	ra,28(sp)
    1bc4:	4462                	lw	s0,24(sp)
    1bc6:	44d2                	lw	s1,20(sp)
    1bc8:	4942                	lw	s2,16(sp)
    1bca:	49b2                	lw	s3,12(sp)
    1bcc:	4a22                	lw	s4,8(sp)
    1bce:	6105                	addi	sp,sp,32
    1bd0:	8082                	ret

00001bd2 <_vfiprintf_r>:
_vfiprintf_r():
    1bd2:	7135                	addi	sp,sp,-160
    1bd4:	cd22                	sw	s0,152(sp)
    1bd6:	cb26                	sw	s1,148(sp)
    1bd8:	c94a                	sw	s2,144(sp)
    1bda:	c74e                	sw	s3,140(sp)
    1bdc:	cf06                	sw	ra,156(sp)
    1bde:	c552                	sw	s4,136(sp)
    1be0:	c356                	sw	s5,132(sp)
    1be2:	c15a                	sw	s6,128(sp)
    1be4:	dede                	sw	s7,124(sp)
    1be6:	dce2                	sw	s8,120(sp)
    1be8:	89aa                	mv	s3,a0
    1bea:	842e                	mv	s0,a1
    1bec:	8932                	mv	s2,a2
    1bee:	84b6                	mv	s1,a3
    1bf0:	c501                	beqz	a0,1bf8 <_vfiprintf_r+0x26>
    1bf2:	4d1c                	lw	a5,24(a0)
    1bf4:	e391                	bnez	a5,1bf8 <_vfiprintf_r+0x26>
    1bf6:	3e29                	jal	1710 <__sinit>
    1bf8:	00001797          	auipc	a5,0x1
    1bfc:	8f478793          	addi	a5,a5,-1804 # 24ec <__sf_fake_stdin>
    1c00:	04f41763          	bne	s0,a5,1c4e <_vfiprintf_r+0x7c>
    1c04:	0049a403          	lw	s0,4(s3)
    1c08:	507c                	lw	a5,100(s0)
    1c0a:	8b85                	andi	a5,a5,1
    1c0c:	e799                	bnez	a5,1c1a <_vfiprintf_r+0x48>
    1c0e:	245e                	lhu	a5,12(s0)
    1c10:	2007f793          	andi	a5,a5,512
    1c14:	e399                	bnez	a5,1c1a <_vfiprintf_r+0x48>
    1c16:	4c28                	lw	a0,88(s0)
    1c18:	3985                	jal	1888 <__retarget_lock_acquire_recursive>
    1c1a:	245e                	lhu	a5,12(s0)
    1c1c:	8ba1                	andi	a5,a5,8
    1c1e:	c399                	beqz	a5,1c24 <_vfiprintf_r+0x52>
    1c20:	481c                	lw	a5,16(s0)
    1c22:	efb9                	bnez	a5,1c80 <_vfiprintf_r+0xae>
    1c24:	85a2                	mv	a1,s0
    1c26:	854e                	mv	a0,s3
    1c28:	f70ff0ef          	jal	ra,1398 <__swsetup_r>
    1c2c:	c931                	beqz	a0,1c80 <_vfiprintf_r+0xae>
    1c2e:	507c                	lw	a5,100(s0)
    1c30:	8b85                	andi	a5,a5,1
    1c32:	c3a1                	beqz	a5,1c72 <_vfiprintf_r+0xa0>
    1c34:	557d                	li	a0,-1
    1c36:	40fa                	lw	ra,156(sp)
    1c38:	446a                	lw	s0,152(sp)
    1c3a:	44da                	lw	s1,148(sp)
    1c3c:	494a                	lw	s2,144(sp)
    1c3e:	49ba                	lw	s3,140(sp)
    1c40:	4a2a                	lw	s4,136(sp)
    1c42:	4a9a                	lw	s5,132(sp)
    1c44:	4b0a                	lw	s6,128(sp)
    1c46:	5bf6                	lw	s7,124(sp)
    1c48:	5c66                	lw	s8,120(sp)
    1c4a:	610d                	addi	sp,sp,160
    1c4c:	8082                	ret
    1c4e:	00001797          	auipc	a5,0x1
    1c52:	87e78793          	addi	a5,a5,-1922 # 24cc <__sf_fake_stdout>
    1c56:	00f41563          	bne	s0,a5,1c60 <_vfiprintf_r+0x8e>
    1c5a:	0089a403          	lw	s0,8(s3)
    1c5e:	b76d                	j	1c08 <_vfiprintf_r+0x36>
    1c60:	00001797          	auipc	a5,0x1
    1c64:	84c78793          	addi	a5,a5,-1972 # 24ac <__sf_fake_stderr>
    1c68:	faf410e3          	bne	s0,a5,1c08 <_vfiprintf_r+0x36>
    1c6c:	00c9a403          	lw	s0,12(s3)
    1c70:	bf61                	j	1c08 <_vfiprintf_r+0x36>
    1c72:	245e                	lhu	a5,12(s0)
    1c74:	2007f793          	andi	a5,a5,512
    1c78:	ffd5                	bnez	a5,1c34 <_vfiprintf_r+0x62>
    1c7a:	4c28                	lw	a0,88(s0)
    1c7c:	3139                	jal	188a <__retarget_lock_release_recursive>
    1c7e:	bf5d                	j	1c34 <_vfiprintf_r+0x62>
    1c80:	02000793          	li	a5,32
    1c84:	02f104a3          	sb	a5,41(sp)
    1c88:	03000793          	li	a5,48
    1c8c:	d202                	sw	zero,36(sp)
    1c8e:	02f10523          	sb	a5,42(sp)
    1c92:	c626                	sw	s1,12(sp)
    1c94:	02500b93          	li	s7,37
    1c98:	00001a97          	auipc	s5,0x1
    1c9c:	874a8a93          	addi	s5,s5,-1932 # 250c <__sf_fake_stdin+0x20>
    1ca0:	4b29                	li	s6,10
    1ca2:	84ca                	mv	s1,s2
    1ca4:	209c                	lbu	a5,0(s1)
    1ca6:	c399                	beqz	a5,1cac <_vfiprintf_r+0xda>
    1ca8:	09779963          	bne	a5,s7,1d3a <_vfiprintf_r+0x168>
    1cac:	41248c33          	sub	s8,s1,s2
    1cb0:	01248d63          	beq	s1,s2,1cca <_vfiprintf_r+0xf8>
    1cb4:	86e2                	mv	a3,s8
    1cb6:	864a                	mv	a2,s2
    1cb8:	85a2                	mv	a1,s0
    1cba:	854e                	mv	a0,s3
    1cbc:	3dd9                	jal	1b92 <__sfputs_r>
    1cbe:	57fd                	li	a5,-1
    1cc0:	18f50663          	beq	a0,a5,1e4c <_vfiprintf_r+0x27a>
    1cc4:	5792                	lw	a5,36(sp)
    1cc6:	97e2                	add	a5,a5,s8
    1cc8:	d23e                	sw	a5,36(sp)
    1cca:	209c                	lbu	a5,0(s1)
    1ccc:	18078063          	beqz	a5,1e4c <_vfiprintf_r+0x27a>
    1cd0:	57fd                	li	a5,-1
    1cd2:	00148913          	addi	s2,s1,1
    1cd6:	c802                	sw	zero,16(sp)
    1cd8:	ce02                	sw	zero,28(sp)
    1cda:	ca3e                	sw	a5,20(sp)
    1cdc:	cc02                	sw	zero,24(sp)
    1cde:	040109a3          	sb	zero,83(sp)
    1ce2:	d482                	sw	zero,104(sp)
    1ce4:	00094583          	lbu	a1,0(s2)
    1ce8:	4615                	li	a2,5
    1cea:	8556                	mv	a0,s5
    1cec:	262d                	jal	2016 <memchr>
    1cee:	47c2                	lw	a5,16(sp)
    1cf0:	00190493          	addi	s1,s2,1
    1cf4:	e529                	bnez	a0,1d3e <_vfiprintf_r+0x16c>
    1cf6:	0107f713          	andi	a4,a5,16
    1cfa:	c709                	beqz	a4,1d04 <_vfiprintf_r+0x132>
    1cfc:	02000713          	li	a4,32
    1d00:	04e109a3          	sb	a4,83(sp)
    1d04:	0087f713          	andi	a4,a5,8
    1d08:	c709                	beqz	a4,1d12 <_vfiprintf_r+0x140>
    1d0a:	02b00713          	li	a4,43
    1d0e:	04e109a3          	sb	a4,83(sp)
    1d12:	00094683          	lbu	a3,0(s2)
    1d16:	02a00713          	li	a4,42
    1d1a:	02e68963          	beq	a3,a4,1d4c <_vfiprintf_r+0x17a>
    1d1e:	47f2                	lw	a5,28(sp)
    1d20:	84ca                	mv	s1,s2
    1d22:	4681                	li	a3,0
    1d24:	4625                	li	a2,9
    1d26:	2098                	lbu	a4,0(s1)
    1d28:	00148593          	addi	a1,s1,1
    1d2c:	fd070713          	addi	a4,a4,-48 # ffffdfd0 <_eusrstack+0xdfffafd0>
    1d30:	06e67263          	bgeu	a2,a4,1d94 <_vfiprintf_r+0x1c2>
    1d34:	c685                	beqz	a3,1d5c <_vfiprintf_r+0x18a>
    1d36:	ce3e                	sw	a5,28(sp)
    1d38:	a015                	j	1d5c <_vfiprintf_r+0x18a>
    1d3a:	0485                	addi	s1,s1,1
    1d3c:	b7a5                	j	1ca4 <_vfiprintf_r+0xd2>
    1d3e:	41550533          	sub	a0,a0,s5
    1d42:	28a797b3          	bset	a5,a5,a0
    1d46:	8926                	mv	s2,s1
    1d48:	c83e                	sw	a5,16(sp)
    1d4a:	bf69                	j	1ce4 <_vfiprintf_r+0x112>
    1d4c:	4732                	lw	a4,12(sp)
    1d4e:	00470693          	addi	a3,a4,4
    1d52:	4318                	lw	a4,0(a4)
    1d54:	c636                	sw	a3,12(sp)
    1d56:	02074863          	bltz	a4,1d86 <_vfiprintf_r+0x1b4>
    1d5a:	ce3a                	sw	a4,28(sp)
    1d5c:	2098                	lbu	a4,0(s1)
    1d5e:	02e00793          	li	a5,46
    1d62:	04f71c63          	bne	a4,a5,1dba <_vfiprintf_r+0x1e8>
    1d66:	3098                	lbu	a4,1(s1)
    1d68:	02a00793          	li	a5,42
    1d6c:	02f71a63          	bne	a4,a5,1da0 <_vfiprintf_r+0x1ce>
    1d70:	47b2                	lw	a5,12(sp)
    1d72:	0489                	addi	s1,s1,2
    1d74:	00478713          	addi	a4,a5,4
    1d78:	439c                	lw	a5,0(a5)
    1d7a:	c63a                	sw	a4,12(sp)
    1d7c:	577d                	li	a4,-1
    1d7e:	0ae7e7b3          	max	a5,a5,a4
    1d82:	ca3e                	sw	a5,20(sp)
    1d84:	a81d                	j	1dba <_vfiprintf_r+0x1e8>
    1d86:	40e00733          	neg	a4,a4
    1d8a:	0027e793          	ori	a5,a5,2
    1d8e:	ce3a                	sw	a4,28(sp)
    1d90:	c83e                	sw	a5,16(sp)
    1d92:	b7e9                	j	1d5c <_vfiprintf_r+0x18a>
    1d94:	036787b3          	mul	a5,a5,s6
    1d98:	84ae                	mv	s1,a1
    1d9a:	4685                	li	a3,1
    1d9c:	97ba                	add	a5,a5,a4
    1d9e:	b761                	j	1d26 <_vfiprintf_r+0x154>
    1da0:	0485                	addi	s1,s1,1
    1da2:	ca02                	sw	zero,20(sp)
    1da4:	4681                	li	a3,0
    1da6:	4781                	li	a5,0
    1da8:	4625                	li	a2,9
    1daa:	2098                	lbu	a4,0(s1)
    1dac:	00148593          	addi	a1,s1,1
    1db0:	fd070713          	addi	a4,a4,-48
    1db4:	06e67263          	bgeu	a2,a4,1e18 <_vfiprintf_r+0x246>
    1db8:	f6e9                	bnez	a3,1d82 <_vfiprintf_r+0x1b0>
    1dba:	208c                	lbu	a1,0(s1)
    1dbc:	460d                	li	a2,3
    1dbe:	00000517          	auipc	a0,0x0
    1dc2:	75650513          	addi	a0,a0,1878 # 2514 <__sf_fake_stdin+0x28>
    1dc6:	2c81                	jal	2016 <memchr>
    1dc8:	cd11                	beqz	a0,1de4 <_vfiprintf_r+0x212>
    1dca:	00000797          	auipc	a5,0x0
    1dce:	74a78793          	addi	a5,a5,1866 # 2514 <__sf_fake_stdin+0x28>
    1dd2:	8d1d                	sub	a0,a0,a5
    1dd4:	47c2                	lw	a5,16(sp)
    1dd6:	04000713          	li	a4,64
    1dda:	00a71733          	sll	a4,a4,a0
    1dde:	8fd9                	or	a5,a5,a4
    1de0:	0485                	addi	s1,s1,1
    1de2:	c83e                	sw	a5,16(sp)
    1de4:	208c                	lbu	a1,0(s1)
    1de6:	4619                	li	a2,6
    1de8:	00000517          	auipc	a0,0x0
    1dec:	73050513          	addi	a0,a0,1840 # 2518 <__sf_fake_stdin+0x2c>
    1df0:	00148913          	addi	s2,s1,1
    1df4:	02b10423          	sb	a1,40(sp)
    1df8:	2c39                	jal	2016 <memchr>
    1dfa:	c92d                	beqz	a0,1e6c <_vfiprintf_r+0x29a>
    1dfc:	00000793          	li	a5,0
    1e00:	e795                	bnez	a5,1e2c <_vfiprintf_r+0x25a>
    1e02:	4742                	lw	a4,16(sp)
    1e04:	47b2                	lw	a5,12(sp)
    1e06:	10077713          	andi	a4,a4,256
    1e0a:	cf09                	beqz	a4,1e24 <_vfiprintf_r+0x252>
    1e0c:	0791                	addi	a5,a5,4
    1e0e:	c63e                	sw	a5,12(sp)
    1e10:	5792                	lw	a5,36(sp)
    1e12:	97d2                	add	a5,a5,s4
    1e14:	d23e                	sw	a5,36(sp)
    1e16:	b571                	j	1ca2 <_vfiprintf_r+0xd0>
    1e18:	036787b3          	mul	a5,a5,s6
    1e1c:	84ae                	mv	s1,a1
    1e1e:	4685                	li	a3,1
    1e20:	97ba                	add	a5,a5,a4
    1e22:	b761                	j	1daa <_vfiprintf_r+0x1d8>
    1e24:	079d                	addi	a5,a5,7
    1e26:	9be1                	andi	a5,a5,-8
    1e28:	07a1                	addi	a5,a5,8
    1e2a:	b7d5                	j	1e0e <_vfiprintf_r+0x23c>
    1e2c:	0078                	addi	a4,sp,12
    1e2e:	00000697          	auipc	a3,0x0
    1e32:	d6468693          	addi	a3,a3,-668 # 1b92 <__sfputs_r>
    1e36:	8622                	mv	a2,s0
    1e38:	080c                	addi	a1,sp,16
    1e3a:	854e                	mv	a0,s3
    1e3c:	00000097          	auipc	ra,0x0
    1e40:	000000e7          	jalr	zero # 0 <_sinit>
    1e44:	57fd                	li	a5,-1
    1e46:	8a2a                	mv	s4,a0
    1e48:	fcf514e3          	bne	a0,a5,1e10 <_vfiprintf_r+0x23e>
    1e4c:	507c                	lw	a5,100(s0)
    1e4e:	8b85                	andi	a5,a5,1
    1e50:	e799                	bnez	a5,1e5e <_vfiprintf_r+0x28c>
    1e52:	245e                	lhu	a5,12(s0)
    1e54:	2007f793          	andi	a5,a5,512
    1e58:	e399                	bnez	a5,1e5e <_vfiprintf_r+0x28c>
    1e5a:	4c28                	lw	a0,88(s0)
    1e5c:	343d                	jal	188a <__retarget_lock_release_recursive>
    1e5e:	245e                	lhu	a5,12(s0)
    1e60:	0407f793          	andi	a5,a5,64
    1e64:	dc0798e3          	bnez	a5,1c34 <_vfiprintf_r+0x62>
    1e68:	5512                	lw	a0,36(sp)
    1e6a:	b3f1                	j	1c36 <_vfiprintf_r+0x64>
    1e6c:	0078                	addi	a4,sp,12
    1e6e:	00000697          	auipc	a3,0x0
    1e72:	d2468693          	addi	a3,a3,-732 # 1b92 <__sfputs_r>
    1e76:	8622                	mv	a2,s0
    1e78:	080c                	addi	a1,sp,16
    1e7a:	854e                	mv	a0,s3
    1e7c:	24f1                	jal	2148 <_printf_i>
    1e7e:	b7d9                	j	1e44 <_vfiprintf_r+0x272>

00001e80 <_sbrk_r>:
_sbrk_r():
    1e80:	1141                	addi	sp,sp,-16
    1e82:	c422                	sw	s0,8(sp)
    1e84:	842a                	mv	s0,a0
    1e86:	852e                	mv	a0,a1
    1e88:	8201a223          	sw	zero,-2012(gp) # 20000b04 <errno>
    1e8c:	c606                	sw	ra,12(sp)
    1e8e:	918ff0ef          	jal	ra,fa6 <_sbrk>
    1e92:	57fd                	li	a5,-1
    1e94:	00f51663          	bne	a0,a5,1ea0 <_sbrk_r+0x20>
    1e98:	8241a783          	lw	a5,-2012(gp) # 20000b04 <errno>
    1e9c:	c391                	beqz	a5,1ea0 <_sbrk_r+0x20>
    1e9e:	c01c                	sw	a5,0(s0)
    1ea0:	40b2                	lw	ra,12(sp)
    1ea2:	4422                	lw	s0,8(sp)
    1ea4:	0141                	addi	sp,sp,16
    1ea6:	8082                	ret

00001ea8 <__sread>:
__sread():
    1ea8:	1141                	addi	sp,sp,-16
    1eaa:	c422                	sw	s0,8(sp)
    1eac:	842e                	mv	s0,a1
    1eae:	00e59583          	lh	a1,14(a1)
    1eb2:	c606                	sw	ra,12(sp)
    1eb4:	2331                	jal	23c0 <_read_r>
    1eb6:	00054963          	bltz	a0,1ec8 <__sread+0x20>
    1eba:	487c                	lw	a5,84(s0)
    1ebc:	97aa                	add	a5,a5,a0
    1ebe:	c87c                	sw	a5,84(s0)
    1ec0:	40b2                	lw	ra,12(sp)
    1ec2:	4422                	lw	s0,8(sp)
    1ec4:	0141                	addi	sp,sp,16
    1ec6:	8082                	ret
    1ec8:	245e                	lhu	a5,12(s0)
    1eca:	48c79793          	bclri	a5,a5,0xc
    1ece:	a45e                	sh	a5,12(s0)
    1ed0:	bfc5                	j	1ec0 <__sread+0x18>

00001ed2 <__swrite>:
__swrite():
    1ed2:	25de                	lhu	a5,12(a1)
    1ed4:	1101                	addi	sp,sp,-32
    1ed6:	cc22                	sw	s0,24(sp)
    1ed8:	ca26                	sw	s1,20(sp)
    1eda:	c84a                	sw	s2,16(sp)
    1edc:	c64e                	sw	s3,12(sp)
    1ede:	ce06                	sw	ra,28(sp)
    1ee0:	1007f793          	andi	a5,a5,256
    1ee4:	84aa                	mv	s1,a0
    1ee6:	842e                	mv	s0,a1
    1ee8:	8932                	mv	s2,a2
    1eea:	89b6                	mv	s3,a3
    1eec:	c791                	beqz	a5,1ef8 <__swrite+0x26>
    1eee:	00e59583          	lh	a1,14(a1)
    1ef2:	4689                	li	a3,2
    1ef4:	4601                	li	a2,0
    1ef6:	28dd                	jal	1fec <_lseek_r>
    1ef8:	245e                	lhu	a5,12(s0)
    1efa:	00e41583          	lh	a1,14(s0)
    1efe:	40f2                	lw	ra,28(sp)
    1f00:	48c79793          	bclri	a5,a5,0xc
    1f04:	a45e                	sh	a5,12(s0)
    1f06:	4462                	lw	s0,24(sp)
    1f08:	86ce                	mv	a3,s3
    1f0a:	864a                	mv	a2,s2
    1f0c:	49b2                	lw	s3,12(sp)
    1f0e:	4942                	lw	s2,16(sp)
    1f10:	8526                	mv	a0,s1
    1f12:	44d2                	lw	s1,20(sp)
    1f14:	6105                	addi	sp,sp,32
    1f16:	a81d                	j	1f4c <_write_r>

00001f18 <__sseek>:
__sseek():
    1f18:	1141                	addi	sp,sp,-16
    1f1a:	c422                	sw	s0,8(sp)
    1f1c:	842e                	mv	s0,a1
    1f1e:	00e59583          	lh	a1,14(a1)
    1f22:	c606                	sw	ra,12(sp)
    1f24:	20e1                	jal	1fec <_lseek_r>
    1f26:	577d                	li	a4,-1
    1f28:	245e                	lhu	a5,12(s0)
    1f2a:	00e51963          	bne	a0,a4,1f3c <__sseek+0x24>
    1f2e:	48c79793          	bclri	a5,a5,0xc
    1f32:	a45e                	sh	a5,12(s0)
    1f34:	40b2                	lw	ra,12(sp)
    1f36:	4422                	lw	s0,8(sp)
    1f38:	0141                	addi	sp,sp,16
    1f3a:	8082                	ret
    1f3c:	28c79793          	bseti	a5,a5,0xc
    1f40:	c868                	sw	a0,84(s0)
    1f42:	a45e                	sh	a5,12(s0)
    1f44:	bfc5                	j	1f34 <__sseek+0x1c>

00001f46 <__sclose>:
__sclose():
    1f46:	00e59583          	lh	a1,14(a1)
    1f4a:	a03d                	j	1f78 <_close_r>

00001f4c <_write_r>:
_write_r():
    1f4c:	1141                	addi	sp,sp,-16
    1f4e:	c422                	sw	s0,8(sp)
    1f50:	842a                	mv	s0,a0
    1f52:	852e                	mv	a0,a1
    1f54:	85b2                	mv	a1,a2
    1f56:	8636                	mv	a2,a3
    1f58:	8201a223          	sw	zero,-2012(gp) # 20000b04 <errno>
    1f5c:	c606                	sw	ra,12(sp)
    1f5e:	822ff0ef          	jal	ra,f80 <_write>
    1f62:	57fd                	li	a5,-1
    1f64:	00f51663          	bne	a0,a5,1f70 <_write_r+0x24>
    1f68:	8241a783          	lw	a5,-2012(gp) # 20000b04 <errno>
    1f6c:	c391                	beqz	a5,1f70 <_write_r+0x24>
    1f6e:	c01c                	sw	a5,0(s0)
    1f70:	40b2                	lw	ra,12(sp)
    1f72:	4422                	lw	s0,8(sp)
    1f74:	0141                	addi	sp,sp,16
    1f76:	8082                	ret

00001f78 <_close_r>:
_close_r():
    1f78:	1141                	addi	sp,sp,-16
    1f7a:	c422                	sw	s0,8(sp)
    1f7c:	842a                	mv	s0,a0
    1f7e:	852e                	mv	a0,a1
    1f80:	8201a223          	sw	zero,-2012(gp) # 20000b04 <errno>
    1f84:	c606                	sw	ra,12(sp)
    1f86:	2195                	jal	23ea <_close>
    1f88:	57fd                	li	a5,-1
    1f8a:	00f51663          	bne	a0,a5,1f96 <_close_r+0x1e>
    1f8e:	8241a783          	lw	a5,-2012(gp) # 20000b04 <errno>
    1f92:	c391                	beqz	a5,1f96 <_close_r+0x1e>
    1f94:	c01c                	sw	a5,0(s0)
    1f96:	40b2                	lw	ra,12(sp)
    1f98:	4422                	lw	s0,8(sp)
    1f9a:	0141                	addi	sp,sp,16
    1f9c:	8082                	ret

00001f9e <_fstat_r>:
_fstat_r():
    1f9e:	1141                	addi	sp,sp,-16
    1fa0:	c422                	sw	s0,8(sp)
    1fa2:	842a                	mv	s0,a0
    1fa4:	852e                	mv	a0,a1
    1fa6:	85b2                	mv	a1,a2
    1fa8:	8201a223          	sw	zero,-2012(gp) # 20000b04 <errno>
    1fac:	c606                	sw	ra,12(sp)
    1fae:	21a1                	jal	23f6 <_fstat>
    1fb0:	57fd                	li	a5,-1
    1fb2:	00f51663          	bne	a0,a5,1fbe <_fstat_r+0x20>
    1fb6:	8241a783          	lw	a5,-2012(gp) # 20000b04 <errno>
    1fba:	c391                	beqz	a5,1fbe <_fstat_r+0x20>
    1fbc:	c01c                	sw	a5,0(s0)
    1fbe:	40b2                	lw	ra,12(sp)
    1fc0:	4422                	lw	s0,8(sp)
    1fc2:	0141                	addi	sp,sp,16
    1fc4:	8082                	ret

00001fc6 <_isatty_r>:
_isatty_r():
    1fc6:	1141                	addi	sp,sp,-16
    1fc8:	c422                	sw	s0,8(sp)
    1fca:	842a                	mv	s0,a0
    1fcc:	852e                	mv	a0,a1
    1fce:	8201a223          	sw	zero,-2012(gp) # 20000b04 <errno>
    1fd2:	c606                	sw	ra,12(sp)
    1fd4:	213d                	jal	2402 <_isatty>
    1fd6:	57fd                	li	a5,-1
    1fd8:	00f51663          	bne	a0,a5,1fe4 <_isatty_r+0x1e>
    1fdc:	8241a783          	lw	a5,-2012(gp) # 20000b04 <errno>
    1fe0:	c391                	beqz	a5,1fe4 <_isatty_r+0x1e>
    1fe2:	c01c                	sw	a5,0(s0)
    1fe4:	40b2                	lw	ra,12(sp)
    1fe6:	4422                	lw	s0,8(sp)
    1fe8:	0141                	addi	sp,sp,16
    1fea:	8082                	ret

00001fec <_lseek_r>:
_lseek_r():
    1fec:	1141                	addi	sp,sp,-16
    1fee:	c422                	sw	s0,8(sp)
    1ff0:	842a                	mv	s0,a0
    1ff2:	852e                	mv	a0,a1
    1ff4:	85b2                	mv	a1,a2
    1ff6:	8636                	mv	a2,a3
    1ff8:	8201a223          	sw	zero,-2012(gp) # 20000b04 <errno>
    1ffc:	c606                	sw	ra,12(sp)
    1ffe:	2901                	jal	240e <_lseek>
    2000:	57fd                	li	a5,-1
    2002:	00f51663          	bne	a0,a5,200e <_lseek_r+0x22>
    2006:	8241a783          	lw	a5,-2012(gp) # 20000b04 <errno>
    200a:	c391                	beqz	a5,200e <_lseek_r+0x22>
    200c:	c01c                	sw	a5,0(s0)
    200e:	40b2                	lw	ra,12(sp)
    2010:	4422                	lw	s0,8(sp)
    2012:	0141                	addi	sp,sp,16
    2014:	8082                	ret

00002016 <memchr>:
memchr():
    2016:	0ff5f593          	zext.b	a1,a1
    201a:	962a                	add	a2,a2,a0
    201c:	00c51463          	bne	a0,a2,2024 <memchr+0xe>
    2020:	4501                	li	a0,0
    2022:	8082                	ret
    2024:	211c                	lbu	a5,0(a0)
    2026:	feb78ee3          	beq	a5,a1,2022 <memchr+0xc>
    202a:	0505                	addi	a0,a0,1
    202c:	bfc5                	j	201c <memchr+0x6>

0000202e <__malloc_lock>:
__malloc_lock():
    202e:	81018513          	addi	a0,gp,-2032 # 20000af0 <__lock___malloc_recursive_mutex>
    2032:	857ff06f          	j	1888 <__retarget_lock_acquire_recursive>

00002036 <__malloc_unlock>:
__malloc_unlock():
    2036:	81018513          	addi	a0,gp,-2032 # 20000af0 <__lock___malloc_recursive_mutex>
    203a:	851ff06f          	j	188a <__retarget_lock_release_recursive>

0000203e <_printf_common>:
_printf_common():
    203e:	7179                	addi	sp,sp,-48
    2040:	ca56                	sw	s5,20(sp)
    2042:	499c                	lw	a5,16(a1)
    2044:	8aba                	mv	s5,a4
    2046:	4598                	lw	a4,8(a1)
    2048:	d422                	sw	s0,40(sp)
    204a:	d04a                	sw	s2,32(sp)
    204c:	ce4e                	sw	s3,28(sp)
    204e:	cc52                	sw	s4,24(sp)
    2050:	d606                	sw	ra,44(sp)
    2052:	d226                	sw	s1,36(sp)
    2054:	c85a                	sw	s6,16(sp)
    2056:	c65e                	sw	s7,12(sp)
    2058:	0ae7e7b3          	max	a5,a5,a4
    205c:	c21c                	sw	a5,0(a2)
    205e:	0435c703          	lbu	a4,67(a1)
    2062:	89aa                	mv	s3,a0
    2064:	842e                	mv	s0,a1
    2066:	8932                	mv	s2,a2
    2068:	8a36                	mv	s4,a3
    206a:	c319                	beqz	a4,2070 <_printf_common+0x32>
    206c:	0785                	addi	a5,a5,1
    206e:	c21c                	sw	a5,0(a2)
    2070:	401c                	lw	a5,0(s0)
    2072:	0207f793          	andi	a5,a5,32
    2076:	c791                	beqz	a5,2082 <_printf_common+0x44>
    2078:	00092783          	lw	a5,0(s2)
    207c:	0789                	addi	a5,a5,2
    207e:	00f92023          	sw	a5,0(s2)
    2082:	4004                	lw	s1,0(s0)
    2084:	8899                	andi	s1,s1,6
    2086:	e891                	bnez	s1,209a <_printf_common+0x5c>
    2088:	01940b13          	addi	s6,s0,25
    208c:	5bfd                	li	s7,-1
    208e:	445c                	lw	a5,12(s0)
    2090:	00092703          	lw	a4,0(s2)
    2094:	8f99                	sub	a5,a5,a4
    2096:	04f4cc63          	blt	s1,a5,20ee <_printf_common+0xb0>
    209a:	04344783          	lbu	a5,67(s0)
    209e:	00f036b3          	snez	a3,a5
    20a2:	401c                	lw	a5,0(s0)
    20a4:	0207f793          	andi	a5,a5,32
    20a8:	eba5                	bnez	a5,2118 <_printf_common+0xda>
    20aa:	04340613          	addi	a2,s0,67
    20ae:	85d2                	mv	a1,s4
    20b0:	854e                	mv	a0,s3
    20b2:	9a82                	jalr	s5
    20b4:	57fd                	li	a5,-1
    20b6:	04f50363          	beq	a0,a5,20fc <_printf_common+0xbe>
    20ba:	401c                	lw	a5,0(s0)
    20bc:	4711                	li	a4,4
    20be:	4481                	li	s1,0
    20c0:	8b99                	andi	a5,a5,6
    20c2:	00e79963          	bne	a5,a4,20d4 <_printf_common+0x96>
    20c6:	00092783          	lw	a5,0(s2)
    20ca:	4444                	lw	s1,12(s0)
    20cc:	8c9d                	sub	s1,s1,a5
    20ce:	4781                	li	a5,0
    20d0:	0af4e4b3          	max	s1,s1,a5
    20d4:	441c                	lw	a5,8(s0)
    20d6:	4818                	lw	a4,16(s0)
    20d8:	00f75463          	bge	a4,a5,20e0 <_printf_common+0xa2>
    20dc:	8f99                	sub	a5,a5,a4
    20de:	94be                	add	s1,s1,a5
    20e0:	4901                	li	s2,0
    20e2:	0469                	addi	s0,s0,26
    20e4:	5b7d                	li	s6,-1
    20e6:	05249863          	bne	s1,s2,2136 <_printf_common+0xf8>
    20ea:	4501                	li	a0,0
    20ec:	a809                	j	20fe <_printf_common+0xc0>
    20ee:	4685                	li	a3,1
    20f0:	865a                	mv	a2,s6
    20f2:	85d2                	mv	a1,s4
    20f4:	854e                	mv	a0,s3
    20f6:	9a82                	jalr	s5
    20f8:	01751e63          	bne	a0,s7,2114 <_printf_common+0xd6>
    20fc:	557d                	li	a0,-1
    20fe:	50b2                	lw	ra,44(sp)
    2100:	5422                	lw	s0,40(sp)
    2102:	5492                	lw	s1,36(sp)
    2104:	5902                	lw	s2,32(sp)
    2106:	49f2                	lw	s3,28(sp)
    2108:	4a62                	lw	s4,24(sp)
    210a:	4ad2                	lw	s5,20(sp)
    210c:	4b42                	lw	s6,16(sp)
    210e:	4bb2                	lw	s7,12(sp)
    2110:	6145                	addi	sp,sp,48
    2112:	8082                	ret
    2114:	0485                	addi	s1,s1,1
    2116:	bfa5                	j	208e <_printf_common+0x50>
    2118:	00d40733          	add	a4,s0,a3
    211c:	03000613          	li	a2,48
    2120:	04c701a3          	sb	a2,67(a4)
    2124:	04544703          	lbu	a4,69(s0)
    2128:	00168793          	addi	a5,a3,1
    212c:	97a2                	add	a5,a5,s0
    212e:	0689                	addi	a3,a3,2
    2130:	04e781a3          	sb	a4,67(a5)
    2134:	bf9d                	j	20aa <_printf_common+0x6c>
    2136:	4685                	li	a3,1
    2138:	8622                	mv	a2,s0
    213a:	85d2                	mv	a1,s4
    213c:	854e                	mv	a0,s3
    213e:	9a82                	jalr	s5
    2140:	fb650ee3          	beq	a0,s6,20fc <_printf_common+0xbe>
    2144:	0905                	addi	s2,s2,1
    2146:	b745                	j	20e6 <_printf_common+0xa8>

00002148 <_printf_i>:
_printf_i():
    2148:	7179                	addi	sp,sp,-48
    214a:	d422                	sw	s0,40(sp)
    214c:	d04a                	sw	s2,32(sp)
    214e:	ce4e                	sw	s3,28(sp)
    2150:	cc52                	sw	s4,24(sp)
    2152:	d606                	sw	ra,44(sp)
    2154:	d226                	sw	s1,36(sp)
    2156:	ca56                	sw	s5,20(sp)
    2158:	c85a                	sw	s6,16(sp)
    215a:	0185c803          	lbu	a6,24(a1)
    215e:	07800793          	li	a5,120
    2162:	892a                	mv	s2,a0
    2164:	842e                	mv	s0,a1
    2166:	89b2                	mv	s3,a2
    2168:	8a36                	mv	s4,a3
    216a:	0307e263          	bltu	a5,a6,218e <_printf_i+0x46>
    216e:	06200793          	li	a5,98
    2172:	04358693          	addi	a3,a1,67
    2176:	0307e163          	bltu	a5,a6,2198 <_printf_i+0x50>
    217a:	1c080b63          	beqz	a6,2350 <_printf_i+0x208>
    217e:	05800793          	li	a5,88
    2182:	00000617          	auipc	a2,0x0
    2186:	39e60613          	addi	a2,a2,926 # 2520 <__sf_fake_stdin+0x34>
    218a:	14f80763          	beq	a6,a5,22d8 <_printf_i+0x190>
    218e:	04240493          	addi	s1,s0,66
    2192:	05040123          	sb	a6,66(s0)
    2196:	a815                	j	21ca <_printf_i+0x82>
    2198:	f9d80793          	addi	a5,a6,-99
    219c:	0ff7f793          	zext.b	a5,a5
    21a0:	4655                	li	a2,21
    21a2:	fef666e3          	bltu	a2,a5,218e <_printf_i+0x46>
    21a6:	00000617          	auipc	a2,0x0
    21aa:	3a260613          	addi	a2,a2,930 # 2548 <__sf_fake_stdin+0x5c>
    21ae:	20c7c7b3          	sh2add	a5,a5,a2
    21b2:	439c                	lw	a5,0(a5)
    21b4:	97b2                	add	a5,a5,a2
    21b6:	8782                	jr	a5
    21b8:	431c                	lw	a5,0(a4)
    21ba:	04258493          	addi	s1,a1,66
    21be:	00478693          	addi	a3,a5,4
    21c2:	439c                	lw	a5,0(a5)
    21c4:	c314                	sw	a3,0(a4)
    21c6:	04f58123          	sb	a5,66(a1)
    21ca:	4785                	li	a5,1
    21cc:	a265                	j	2374 <_printf_i+0x22c>
    21ce:	4190                	lw	a2,0(a1)
    21d0:	431c                	lw	a5,0(a4)
    21d2:	08067513          	andi	a0,a2,128
    21d6:	00478593          	addi	a1,a5,4
    21da:	c129                	beqz	a0,221c <_printf_i+0xd4>
    21dc:	439c                	lw	a5,0(a5)
    21de:	c30c                	sw	a1,0(a4)
    21e0:	4058                	lw	a4,4(s0)
    21e2:	1207de63          	bgez	a5,231e <_printf_i+0x1d6>
    21e6:	02d00593          	li	a1,45
    21ea:	04b401a3          	sb	a1,67(s0)
    21ee:	c418                	sw	a4,8(s0)
    21f0:	02075e63          	bgez	a4,222c <_printf_i+0xe4>
    21f4:	40f007b3          	neg	a5,a5
    21f8:	00000617          	auipc	a2,0x0
    21fc:	32860613          	addi	a2,a2,808 # 2520 <__sf_fake_stdin+0x34>
    2200:	4829                	li	a6,10
    2202:	84b6                	mv	s1,a3
    2204:	0307f733          	remu	a4,a5,a6
    2208:	14fd                	addi	s1,s1,-1
    220a:	9732                	add	a4,a4,a2
    220c:	2318                	lbu	a4,0(a4)
    220e:	a098                	sb	a4,0(s1)
    2210:	873e                	mv	a4,a5
    2212:	0307d7b3          	divu	a5,a5,a6
    2216:	ff0777e3          	bgeu	a4,a6,2204 <_printf_i+0xbc>
    221a:	a085                	j	227a <_printf_i+0x132>
    221c:	439c                	lw	a5,0(a5)
    221e:	04067513          	andi	a0,a2,64
    2222:	c30c                	sw	a1,0(a4)
    2224:	dd55                	beqz	a0,21e0 <_printf_i+0x98>
    2226:	60579793          	sext.h	a5,a5
    222a:	bf5d                	j	21e0 <_printf_i+0x98>
    222c:	9a6d                	andi	a2,a2,-5
    222e:	c010                	sw	a2,0(s0)
    2230:	b7d1                	j	21f4 <_printf_i+0xac>
    2232:	4190                	lw	a2,0(a1)
    2234:	431c                	lw	a5,0(a4)
    2236:	08067513          	andi	a0,a2,128
    223a:	00478593          	addi	a1,a5,4
    223e:	c501                	beqz	a0,2246 <_printf_i+0xfe>
    2240:	c30c                	sw	a1,0(a4)
    2242:	439c                	lw	a5,0(a5)
    2244:	a031                	j	2250 <_printf_i+0x108>
    2246:	04067613          	andi	a2,a2,64
    224a:	c30c                	sw	a1,0(a4)
    224c:	da7d                	beqz	a2,2242 <_printf_i+0xfa>
    224e:	239e                	lhu	a5,0(a5)
    2250:	06f00713          	li	a4,111
    2254:	00000617          	auipc	a2,0x0
    2258:	2cc60613          	addi	a2,a2,716 # 2520 <__sf_fake_stdin+0x34>
    225c:	0ae81f63          	bne	a6,a4,231a <_printf_i+0x1d2>
    2260:	4821                	li	a6,8
    2262:	040401a3          	sb	zero,67(s0)
    2266:	4058                	lw	a4,4(s0)
    2268:	c418                	sw	a4,8(s0)
    226a:	f8074ce3          	bltz	a4,2202 <_printf_i+0xba>
    226e:	400c                	lw	a1,0(s0)
    2270:	99ed                	andi	a1,a1,-5
    2272:	c00c                	sw	a1,0(s0)
    2274:	f7d9                	bnez	a5,2202 <_printf_i+0xba>
    2276:	84b6                	mv	s1,a3
    2278:	f749                	bnez	a4,2202 <_printf_i+0xba>
    227a:	47a1                	li	a5,8
    227c:	00f81e63          	bne	a6,a5,2298 <_printf_i+0x150>
    2280:	401c                	lw	a5,0(s0)
    2282:	8b85                	andi	a5,a5,1
    2284:	cb91                	beqz	a5,2298 <_printf_i+0x150>
    2286:	4058                	lw	a4,4(s0)
    2288:	481c                	lw	a5,16(s0)
    228a:	00e7c763          	blt	a5,a4,2298 <_printf_i+0x150>
    228e:	03000793          	li	a5,48
    2292:	fef48fa3          	sb	a5,-1(s1)
    2296:	14fd                	addi	s1,s1,-1
    2298:	8e85                	sub	a3,a3,s1
    229a:	c814                	sw	a3,16(s0)
    229c:	8752                	mv	a4,s4
    229e:	86ce                	mv	a3,s3
    22a0:	0070                	addi	a2,sp,12
    22a2:	85a2                	mv	a1,s0
    22a4:	854a                	mv	a0,s2
    22a6:	3b61                	jal	203e <_printf_common>
    22a8:	5afd                	li	s5,-1
    22aa:	0d551963          	bne	a0,s5,237c <_printf_i+0x234>
    22ae:	557d                	li	a0,-1
    22b0:	50b2                	lw	ra,44(sp)
    22b2:	5422                	lw	s0,40(sp)
    22b4:	5492                	lw	s1,36(sp)
    22b6:	5902                	lw	s2,32(sp)
    22b8:	49f2                	lw	s3,28(sp)
    22ba:	4a62                	lw	s4,24(sp)
    22bc:	4ad2                	lw	s5,20(sp)
    22be:	4b42                	lw	s6,16(sp)
    22c0:	6145                	addi	sp,sp,48
    22c2:	8082                	ret
    22c4:	419c                	lw	a5,0(a1)
    22c6:	0207e793          	ori	a5,a5,32
    22ca:	c19c                	sw	a5,0(a1)
    22cc:	07800813          	li	a6,120
    22d0:	00000617          	auipc	a2,0x0
    22d4:	26460613          	addi	a2,a2,612 # 2534 <__sf_fake_stdin+0x48>
    22d8:	050402a3          	sb	a6,69(s0)
    22dc:	400c                	lw	a1,0(s0)
    22de:	431c                	lw	a5,0(a4)
    22e0:	0805f813          	andi	a6,a1,128
    22e4:	00478513          	addi	a0,a5,4
    22e8:	00080563          	beqz	a6,22f2 <_printf_i+0x1aa>
    22ec:	c308                	sw	a0,0(a4)
    22ee:	439c                	lw	a5,0(a5)
    22f0:	a039                	j	22fe <_printf_i+0x1b6>
    22f2:	0405f813          	andi	a6,a1,64
    22f6:	c308                	sw	a0,0(a4)
    22f8:	fe080be3          	beqz	a6,22ee <_printf_i+0x1a6>
    22fc:	239e                	lhu	a5,0(a5)
    22fe:	0015f713          	andi	a4,a1,1
    2302:	c701                	beqz	a4,230a <_printf_i+0x1c2>
    2304:	0205e593          	ori	a1,a1,32
    2308:	c00c                	sw	a1,0(s0)
    230a:	c399                	beqz	a5,2310 <_printf_i+0x1c8>
    230c:	4841                	li	a6,16
    230e:	bf91                	j	2262 <_printf_i+0x11a>
    2310:	4018                	lw	a4,0(s0)
    2312:	fdf77713          	andi	a4,a4,-33
    2316:	c018                	sw	a4,0(s0)
    2318:	bfd5                	j	230c <_printf_i+0x1c4>
    231a:	4829                	li	a6,10
    231c:	b799                	j	2262 <_printf_i+0x11a>
    231e:	00000617          	auipc	a2,0x0
    2322:	20260613          	addi	a2,a2,514 # 2520 <__sf_fake_stdin+0x34>
    2326:	4829                	li	a6,10
    2328:	bf3d                	j	2266 <_printf_i+0x11e>
    232a:	4190                	lw	a2,0(a1)
    232c:	431c                	lw	a5,0(a4)
    232e:	49cc                	lw	a1,20(a1)
    2330:	08067813          	andi	a6,a2,128
    2334:	00478513          	addi	a0,a5,4
    2338:	00080663          	beqz	a6,2344 <_printf_i+0x1fc>
    233c:	c308                	sw	a0,0(a4)
    233e:	439c                	lw	a5,0(a5)
    2340:	c38c                	sw	a1,0(a5)
    2342:	a039                	j	2350 <_printf_i+0x208>
    2344:	c308                	sw	a0,0(a4)
    2346:	04067613          	andi	a2,a2,64
    234a:	439c                	lw	a5,0(a5)
    234c:	da75                	beqz	a2,2340 <_printf_i+0x1f8>
    234e:	a38e                	sh	a1,0(a5)
    2350:	00042823          	sw	zero,16(s0)
    2354:	84b6                	mv	s1,a3
    2356:	b799                	j	229c <_printf_i+0x154>
    2358:	431c                	lw	a5,0(a4)
    235a:	41d0                	lw	a2,4(a1)
    235c:	4581                	li	a1,0
    235e:	00478693          	addi	a3,a5,4
    2362:	c314                	sw	a3,0(a4)
    2364:	4384                	lw	s1,0(a5)
    2366:	8526                	mv	a0,s1
    2368:	317d                	jal	2016 <memchr>
    236a:	c501                	beqz	a0,2372 <_printf_i+0x22a>
    236c:	409507b3          	sub	a5,a0,s1
    2370:	c05c                	sw	a5,4(s0)
    2372:	405c                	lw	a5,4(s0)
    2374:	c81c                	sw	a5,16(s0)
    2376:	040401a3          	sb	zero,67(s0)
    237a:	b70d                	j	229c <_printf_i+0x154>
    237c:	4814                	lw	a3,16(s0)
    237e:	8626                	mv	a2,s1
    2380:	85ce                	mv	a1,s3
    2382:	854a                	mv	a0,s2
    2384:	9a02                	jalr	s4
    2386:	f35504e3          	beq	a0,s5,22ae <_printf_i+0x166>
    238a:	401c                	lw	a5,0(s0)
    238c:	8b89                	andi	a5,a5,2
    238e:	e785                	bnez	a5,23b6 <_printf_i+0x26e>
    2390:	4448                	lw	a0,12(s0)
    2392:	47b2                	lw	a5,12(sp)
    2394:	0af56533          	max	a0,a0,a5
    2398:	bf21                	j	22b0 <_printf_i+0x168>
    239a:	4685                	li	a3,1
    239c:	8656                	mv	a2,s5
    239e:	85ce                	mv	a1,s3
    23a0:	854a                	mv	a0,s2
    23a2:	9a02                	jalr	s4
    23a4:	f16505e3          	beq	a0,s6,22ae <_printf_i+0x166>
    23a8:	0485                	addi	s1,s1,1
    23aa:	445c                	lw	a5,12(s0)
    23ac:	4732                	lw	a4,12(sp)
    23ae:	8f99                	sub	a5,a5,a4
    23b0:	fef4c5e3          	blt	s1,a5,239a <_printf_i+0x252>
    23b4:	bff1                	j	2390 <_printf_i+0x248>
    23b6:	4481                	li	s1,0
    23b8:	01940a93          	addi	s5,s0,25
    23bc:	5b7d                	li	s6,-1
    23be:	b7f5                	j	23aa <_printf_i+0x262>

000023c0 <_read_r>:
_read_r():
    23c0:	1141                	addi	sp,sp,-16
    23c2:	c422                	sw	s0,8(sp)
    23c4:	842a                	mv	s0,a0
    23c6:	852e                	mv	a0,a1
    23c8:	85b2                	mv	a1,a2
    23ca:	8636                	mv	a2,a3
    23cc:	8201a223          	sw	zero,-2012(gp) # 20000b04 <errno>
    23d0:	c606                	sw	ra,12(sp)
    23d2:	20a1                	jal	241a <_read>
    23d4:	57fd                	li	a5,-1
    23d6:	00f51663          	bne	a0,a5,23e2 <_read_r+0x22>
    23da:	8241a783          	lw	a5,-2012(gp) # 20000b04 <errno>
    23de:	c391                	beqz	a5,23e2 <_read_r+0x22>
    23e0:	c01c                	sw	a5,0(s0)
    23e2:	40b2                	lw	ra,12(sp)
    23e4:	4422                	lw	s0,8(sp)
    23e6:	0141                	addi	sp,sp,16
    23e8:	8082                	ret

000023ea <_close>:
_close():
    23ea:	05800793          	li	a5,88
    23ee:	82f1a223          	sw	a5,-2012(gp) # 20000b04 <errno>
    23f2:	557d                	li	a0,-1
    23f4:	8082                	ret

000023f6 <_fstat>:
_fstat():
    23f6:	05800793          	li	a5,88
    23fa:	82f1a223          	sw	a5,-2012(gp) # 20000b04 <errno>
    23fe:	557d                	li	a0,-1
    2400:	8082                	ret

00002402 <_isatty>:
_isatty():
    2402:	05800793          	li	a5,88
    2406:	82f1a223          	sw	a5,-2012(gp) # 20000b04 <errno>
    240a:	4501                	li	a0,0
    240c:	8082                	ret

0000240e <_lseek>:
_lseek():
    240e:	05800793          	li	a5,88
    2412:	82f1a223          	sw	a5,-2012(gp) # 20000b04 <errno>
    2416:	557d                	li	a0,-1
    2418:	8082                	ret

0000241a <_read>:
_read():
    241a:	05800793          	li	a5,88
    241e:	82f1a223          	sw	a5,-2012(gp) # 20000b04 <errno>
    2422:	557d                	li	a0,-1
    2424:	8082                	ret
    2426:	0000                	unimp
    2428:	72617453          	.4byte	0x72617453
    242c:	2074                	lbu	a3,6(s0)
    242e:	4340                	lw	s0,4(a4)
    2430:	6968                	.2byte	0x6968
    2432:	4970                	lw	a2,84(a0)
    2434:	3d44                	lbu	s1,29(a0)
    2436:	3025                	jal	1c5e <_vfiprintf_r+0x8c>
    2438:	7832                	.2byte	0x7832
    243a:	000a                	c.slli	zero,0x2
    243c:	4449                	li	s0,18
    243e:	454c                	lw	a1,12(a0)
    2440:	6d20                	.2byte	0x6d20
    2442:	2065646f          	jal	s0,58648 <_data_lma+0x560a4>
    2446:	65656c73          	csrrsi	s8,0x656,10
    244a:	2070                	lbu	a2,6(s0)
    244c:	0000                	unimp
    244e:	0000                	unimp
    2450:	656b6177          	.4byte	0x656b6177
    2454:	2e2e                	lhu	a1,26(a2)
    2456:	0020                	addi	s0,sp,8
    2458:	6148                	.2byte	0x6148
    245a:	746c                	.2byte	0x746c
    245c:	6d20                	.2byte	0x6d20
    245e:	2065646f          	jal	s0,58664 <_data_lma+0x560c0>
    2462:	65656c73          	csrrsi	s8,0x656,10
    2466:	2070                	lbu	a2,6(s0)
    2468:	0000                	unimp
    246a:	0000                	unimp
    246c:	65656c73          	csrrsi	s8,0x656,10
    2470:	2070                	lbu	a2,6(s0)
    2472:	6f6d                	lui	t5,0x1b
    2474:	6564                	.2byte	0x6564
    2476:	7320                	.2byte	0x7320
    2478:	656c                	.2byte	0x656c
    247a:	7065                	c.lui	zero,0xffff9
    247c:	0020                	addi	s0,sp,8
    247e:	0000                	unimp
    2480:	74756873          	csrrsi	a6,0x747,10
    2484:	6420                	.2byte	0x6420
    2486:	206e776f          	jal	a4,e968c <_data_lma+0xe70e8>
    248a:	6f6d                	lui	t5,0x1b
    248c:	6564                	.2byte	0x6564
    248e:	7320                	.2byte	0x7320
    2490:	656c                	.2byte	0x656c
    2492:	7065                	c.lui	zero,0xffff9
    2494:	0020                	addi	s0,sp,8
    2496:	0000                	unimp
    2498:	e8d2                	.2byte	0xe8d2
    249a:	ffff                	.2byte	0xffff
    249c:	e8ea                	.2byte	0xe8ea
    249e:	ffff                	.2byte	0xffff
    24a0:	e90e                	.2byte	0xe90e
    24a2:	ffff                	.2byte	0xffff
    24a4:	e918                	.2byte	0xe918
    24a6:	ffff                	.2byte	0xffff
    24a8:	e92e                	.2byte	0xe92e
    24aa:	ffff                	.2byte	0xffff

000024ac <__sf_fake_stderr>:
	...

000024cc <__sf_fake_stdout>:
	...

000024ec <__sf_fake_stdin>:
	...
    250c:	2d23 2b30 0020 0000 6c68 004c 6665 4567     #-0+ ...hlL.efgE
    251c:	4746 0000 3130 3332 3534 3736 3938 4241     FG..0123456789AB
    252c:	4443 4645 0000 0000 3130 3332 3534 3736     CDEF....01234567
    253c:	3938 6261 6463 6665 0000 0000 fc70 ffff     89abcdef....p...
    254c:	fc86 ffff fc46 ffff fc46 ffff fc46 ffff     ....F...F...F...
    255c:	fc46 ffff fc86 ffff fc46 ffff fc46 ffff     F.......F...F...
    256c:	fc46 ffff fc46 ffff fde2 ffff fcea ffff     F...F...........
    257c:	fd7c ffff fc46 ffff fc46 ffff fe10 ffff     |...F...F.......
    258c:	fc46 ffff fcea ffff fc46 ffff fc46 ffff     F.......F...F...
    259c:	fd84 ffff                                   ....

Disassembly of section .vector_handler:

000025a0 <BB_IRQHandler>:
ENDOCE_IRQHandler():
F:/private/nanoCH57x-private/doc/CH572EVT/EVT/EXAM/SRC/Startup/startup_CH572.S:111
	j 1b
    25a0:	a001                	j	25a0 <BB_IRQHandler>
