
RF_Basic.elf:     file format elf32-littleriscv
RF_Basic.elf
architecture: riscv:rv32, flags 0x00000112:
EXEC_P, HAS_SYMS, D_PAGED
start address 0x00000000

Program Header:
0x70000003 off    0x00011a96 vaddr 0x00000000 paddr 0x00000000 align 2**0
         filesz 0x00000051 memsz 0x00000000 flags r--
    LOAD off    0x00001000 vaddr 0x00000000 paddr 0x00000000 align 2**12
         filesz 0x00000004 memsz 0x00000004 flags r-x
    LOAD off    0x00002000 vaddr 0x20000000 paddr 0x00000004 align 2**12
         filesz 0x000010ec memsz 0x000010ec flags r-x
    LOAD off    0x000030f0 vaddr 0x000010f0 paddr 0x000010f0 align 2**12
         filesz 0x000023b6 memsz 0x000023b8 flags rwx
    LOAD off    0x000060ec vaddr 0x200010ec paddr 0x000034a8 align 2**12
         filesz 0x00000070 memsz 0x00000244 flags rw-

Sections:
Idx Name                 Size      VMA       LMA       File off  Algn  Flags
  0 .init                00000004  00000000  00000000  00001000  2**1  CONTENTS, ALLOC, LOAD, READONLY, CODE
  1 .highcode_initlalign 00000000  00000004  00000004  0000615c  2**0  CONTENTS
  2 .highcodelalign      00000000  00000004  00000004  0000615c  2**0  CONTENTS
  3 .highcode            000010ec  20000000  00000004  00002000  2**1  CONTENTS, ALLOC, LOAD, READONLY, CODE
  4 .text                000023b4  000010f0  000010f0  000030f0  2**2  CONTENTS, ALLOC, LOAD, READONLY, CODE
  5 .vector_handler      00000002  000034a4  000034a4  000054a4  2**0  CONTENTS, ALLOC, LOAD, READONLY, CODE
  6 .fini                00000002  000034a6  000034a6  000054a6  2**0  ALLOC, CODE
  7 .dlalign             00000000  000034a8  000034a8  0000615c  2**0  CONTENTS
  8 .data                00000070  200010ec  000034a8  000060ec  2**2  CONTENTS, ALLOC, LOAD, DATA
  9 .bss                 000001d4  2000115c  00003518  0000615c  2**2  ALLOC
 10 .stack               00000000  20003000  20003000  0000615c  2**0  CONTENTS
 11 .debug_info          0000373e  00000000  00000000  0000615c  2**0  CONTENTS, READONLY, DEBUGGING, OCTETS
 12 .debug_abbrev        000011ba  00000000  00000000  0000989a  2**0  CONTENTS, READONLY, DEBUGGING, OCTETS
 13 .debug_loclists      00000f85  00000000  00000000  0000aa54  2**0  CONTENTS, READONLY, DEBUGGING, OCTETS
 14 .debug_aranges       000002f0  00000000  00000000  0000b9e0  2**3  CONTENTS, READONLY, DEBUGGING, OCTETS
 15 .debug_rnglists      00000431  00000000  00000000  0000bcd0  2**0  CONTENTS, READONLY, DEBUGGING, OCTETS
 16 .debug_line          00003f45  00000000  00000000  0000c101  2**0  CONTENTS, READONLY, DEBUGGING, OCTETS
 17 .debug_str           00001329  00000000  00000000  00010046  2**0  CONTENTS, READONLY, DEBUGGING, OCTETS
 18 .debug_line_str      000006c3  00000000  00000000  0001136f  2**0  CONTENTS, READONLY, DEBUGGING, OCTETS
 19 .comment             00000064  00000000  00000000  00011a32  2**0  CONTENTS, READONLY
 20 .riscv.attributes    00000051  00000000  00000000  00011a96  2**0  CONTENTS, READONLY
 21 .debug_frame         000005d0  00000000  00000000  00011ae8  2**2  CONTENTS, READONLY, DEBUGGING, OCTETS
SYMBOL TABLE:
00000000 l    d  .init	00000000 .init
00000004 l    d  .highcode_initlalign	00000000 .highcode_initlalign
00000004 l    d  .highcodelalign	00000000 .highcodelalign
20000000 l    d  .highcode	00000000 .highcode
000010f0 l    d  .text	00000000 .text
000034a4 l    d  .vector_handler	00000000 .vector_handler
000034a6 l    d  .fini	00000000 .fini
000034a8 l    d  .dlalign	00000000 .dlalign
200010ec l    d  .data	00000000 .data
2000115c l    d  .bss	00000000 .bss
20003000 l    d  .stack	00000000 .stack
00000000 l    d  .debug_info	00000000 .debug_info
00000000 l    d  .debug_abbrev	00000000 .debug_abbrev
00000000 l    d  .debug_loclists	00000000 .debug_loclists
00000000 l    d  .debug_aranges	00000000 .debug_aranges
00000000 l    d  .debug_rnglists	00000000 .debug_rnglists
00000000 l    d  .debug_line	00000000 .debug_line
00000000 l    d  .debug_str	00000000 .debug_str
00000000 l    d  .debug_line_str	00000000 .debug_line_str
00000000 l    d  .comment	00000000 .comment
00000000 l    d  .riscv.attributes	00000000 .riscv.attributes
00000000 l    d  .debug_frame	00000000 .debug_frame
00000000 l    df *ABS*	00000000 startup_CH572.o
000034a4 l       .vector_handler	00000000 ENDOCE_IRQHandler
00000000 l    df *ABS*	00000000 rf_basic.c
00000000 l    df *ABS*	00000000 rf_ip.c
00000000 l    df *ABS*	00000000 CH57x_sys.c
20001150 l     O .data	00000004 curbrk.0
00000000 l    df *ABS*	00000000 RTC.c
00000000 l    df *ABS*	00000000 rf_basic.c
00000000 l    df *ABS*	00000000 ISP572.c
20000e20 l       .highcode	00000000 .loop52
20000e2e l       .highcode	00000000 .loop63
20000e3c l       .highcode	00000000 .loop74
20000f3c l       .highcode	00000000 .loop247
00000000 l    df *ABS*	00000000 lib_a-memset.o
00000000 l    df *ABS*	00000000 CH57x_clk.c
00000000 l    df *ABS*	00000000 CH57x_gpio.c
00000000 l    df *ABS*	00000000 CH57x_timer.c
00000000 l    df *ABS*	00000000 CH57x_uart.c
00000000 l    df *ABS*	00000000 main.c
00000000 l    df *ABS*	00000000 rfend.c
00000000 l    df *ABS*	00000000 lib_a-printf.o
00000000 l    df *ABS*	00000000 lib_a-puts.o
00000000 l    df *ABS*	00000000 lib_a-wbuf.o
00000000 l    df *ABS*	00000000 lib_a-wsetup.o
00000000 l    df *ABS*	00000000 lib_a-fflush.o
00000000 l    df *ABS*	00000000 lib_a-findfp.o
0000253a l     F .text	00000066 std
00000000 l    df *ABS*	00000000 lib_a-fwalk.o
00000000 l    df *ABS*	00000000 lib_a-lock.o
00000000 l    df *ABS*	00000000 lib_a-makebuf.o
00000000 l    df *ABS*	00000000 lib_a-nano-freer.o
00000000 l    df *ABS*	00000000 lib_a-nano-mallocr.o
0000290c l     F .text	00000054 sbrk_aligned
00000000 l    df *ABS*	00000000 lib_a-nano-vfprintf.o
00002a62 l     F .text	00000028 __sfputc_r
00000000 l    df *ABS*	00000000 lib_a-sbrkr.o
00000000 l    df *ABS*	00000000 lib_a-stdio.o
00000000 l    df *ABS*	00000000 lib_a-writer.o
00000000 l    df *ABS*	00000000 lib_a-closer.o
00000000 l    df *ABS*	00000000 lib_a-fstatr.o
00000000 l    df *ABS*	00000000 lib_a-isattyr.o
00000000 l    df *ABS*	00000000 lib_a-lseekr.o
00000000 l    df *ABS*	00000000 lib_a-memchr.o
00000000 l    df *ABS*	00000000 lib_a-mlock.o
00000000 l    df *ABS*	00000000 lib_a-nano-vfprintf_i.o
00000000 l    df *ABS*	00000000 lib_a-readr.o
00000000 l    df *ABS*	00000000 close.o
00000000 l    df *ABS*	00000000 fstat.o
00000000 l    df *ABS*	00000000 isatty.o
00000000 l    df *ABS*	00000000 lseek.o
00000000 l    df *ABS*	00000000 read.o
00000000 l    df *ABS*	00000000 lib_a-impure.o
200010ec l     O .data	00000060 impure_data
2000118d g     O .bss	00000001 nGA2440
00002ebe g     F .text	00000026 _isatty_r
000020c4 g     F .text	00000104 _puts_r
00002ee4 g     F .text	0000002a _lseek_r
20000e3c g     F .highcode	0000000e FLASH_ROM_OUT
000034a4  w      .vector_handler	00000000 CMP_IRQHandler
00003394 g     O .text	0000001a VER_RF_LIB
20001180 g     O .bss	00000002 ftuneFlag
00002086 g     F .text	0000003e printf
20001950 g       .data	00000000 __global_pointer$
00002e10 g     F .text	0000002e __sseek
00002608 g     F .text	00000068 __sinit
000021d4 g     F .text	000000bc __swbuf_r
200004a0 g     F .highcode	0000002a BB_LibIRQHandler
20000c7c  w    F .highcode	00000084 HardFault_Handler
000025aa g     F .text	00000046 __sfmoreglue
00002f2e g     F .text	00000008 __malloc_unlock
2000047c g     F .highcode	00000024 LLE_LibIRQHandler
000034a4  w      .vector_handler	00000000 GPIOA_IRQHandler
20001174 g     O .bss	00000004 gptrBBReg
000034a4  w      .vector_handler	00000000 SysTick_Handler
200004f0 g     F .highcode	00000116 RFIP_DevSetChannel
20001168 g     O .bss	00000008 gRfConfig
20001183 g     O .bss	00000001 gTuneFilter2M
000034a4  w      .vector_handler	00000000 NMI_Handler
000034a4  w      .vector_handler	00000000 UART_IRQHandler
20000606 g     F .highcode	000000d6 RFIP_SingleChannel
00002e96 g     F .text	00000028 _fstat_r
200011a4 g     O .bss	00000004 errno
20000f00 g     F .highcode	00000060 FLASH_CMD_ROM_WRITE
2000115c g       .bss	00000000 _sbss
20000e2e g     F .highcode	0000000e FLASH_ROM_IN
00001374 g     F .text	00000032 UART_DefInit
000011b2 g     F .text	00000050 HSECFG_Capacitance
000025a0 g     F .text	0000000a _cleanup_r
20001170 g     O .bss	00000004 WaitRecvTime
000021c8 g     F .text	0000000c puts
20000090 g     F .highcode	0000009e rfBasicProcess
000034a4  w      .vector_handler	00000000 SWI_Handler
000032ee g     F .text	0000000c _fstat
00000004 g       .init	00000000 _einit
20000da2 g     F .highcode	00000008 BB_IRQHandler
00001542 g     F .text	00000136 FLASH_EEPROM_CMD
00002076 g     F .text	00000010 RFEND_TXFtune
000034a4  w      .vector_handler	00000000 Break_Point_Handler
000017f2 g     F .text	000000a0 RFEND_RXFilter
20000eca g     F .highcode	00000036 FLASH_START
00002d78 g     F .text	00000028 _sbrk_r
20001182 g     O .bss	00000001 gTuneFilter
2000118b g     O .bss	00000001 nCO2522
000032b8 g     F .text	0000002a _read_r
20000e0c g     F .highcode	00000014 FLASH_ROM_BEG
20000f60 g     F .highcode	00000072 FLASH_CMD_ROM_ERASE
000034a4  w      .vector_handler	00000000 Ecall_M_Mode_Handler
200012b0 g     O .bss	00000040 TxBuf
000032fa g     F .text	0000000c _isatty
0000132c g     F .text	00000018 TMR_TimerInit
20001198 g     O .bss	00000001 __lock___sinit_recursive_mutex
20001158 g     O .data	00000004 _global_impure_ptr
20000e4a g     F .highcode	00000048 FLASH_ROM_ADDR
200004ca g     F .highcode	0000000e RFIP_ReadCrc
20000706 g     F .highcode	00000176 RFIP_SetPHYTxMode
00001304 g     F .text	00000028 _sbrk
000018c8 g     F .text	00000032 RFEND_WaitTune
2000118f g     O .bss	00000001 nGA2522
20000d00 g     F .highcode	00000010 RTC_IRQHandler
20001330 g       .bss	00000000 _ebss
000034a4  w      .vector_handler	00000000 SPI_IRQHandler
20001190 g     O .bss	00000001 __lock___malloc_recursive_mutex
20000e92 g     F .highcode	00000038 FLASH_ROM_WAIT
000013a6 g     F .text	00000028 UART_Remap
2000118e g     O .bss	00000001 nGA2480
00001778 g     F .text	0000007a RFEND_DevInit
000033b0 g     O .text	00000020 __sf_fake_stderr
20000000 g       .highcode	00000000 _vector_base
00001418 g     F .text	0000012a RFRole_Init
00002782 g     F .text	00000002 __retarget_lock_release_recursive
000034a4  w      .vector_handler	00000000 PWMX_IRQHandler
20001310 g     O .bss	00000020 gTxParam
00002a8a g     F .text	00000040 __sfputs_r
20001188 g     O .bss	00000001 nCO2401
0000169a g     F .text	000000a2 RFIP_Calibration
000025f0 g     F .text	00000006 __sfp_lock_acquire
00002f0e g     F .text	00000018 memchr
0000286e g     F .text	0000009e _free_r
00000000 g       .init	00000000 _start
00003306 g     F .text	0000000c _lseek
20000000 g       .highcode	00000000 _highcode_vma_start
20000d10 g     F .highcode	00000016 rf_tx_start
20000d42 g     F .highcode	00000058 RF_ProcessCallBack
2000087c g     F .highcode	00000164 RFIP_SetPHYRxMode
00002e70 g     F .text	00000026 _close_r
000034a4  w      .vector_handler	00000000 KEYSCAN_IRQHandler
200010ec g       .data	00000000 _data_vma
20001184 g     O .bss	00000004 gptrRFENDReg
20000a3c g     F .highcode	00000240 SetSysClock
000034a4  w      .vector_handler	00000000 USB_IRQHandler
00002290 g     F .text	000000f2 __swsetup_r
20001094 g     F .highcode	0000003e FLASH_CMD_GET_UNIQUE_ID
00002670 g     F .text	000000a6 __sfp
20001022 g     F .highcode	00000012 FLASH_CMD_ROM_PWR
00002602 g     F .text	00000006 __sinit_lock_release
00002da0 g     F .text	0000002a __sread
20000376 g     F .highcode	00000106 RFIP_StartTx
00002f26 g     F .text	00000008 __malloc_lock
2000012e g     F .highcode	00000114 RFIP_SetChannel
000024b4 g     F .text	00000086 _fflush_r
000033f0 g     O .text	00000020 __sf_fake_stdin
00002780 g     F .text	00000002 __retarget_lock_acquire_recursive
000034a4  w      .vector_handler	00000000 I2C_IRQHandler
000011a2 g     F .text	00000010 memset
20001178 g     O .bss	00000004 gptrLLEReg
000013ce g     F .text	0000004a main
0000173c g     F .text	0000003c RFIP_RegInit
0000277e g     F .text	00000002 __retarget_lock_init_recursive
200004d8 g     F .highcode	00000018 RFIP_SetTxPower
00002e3e g     F .text	00000006 __sclose
00002960 g     F .text	00000102 _malloc_r
2000117c g     O .bss	00000004 lleProcess
00000004 g       .highcodelalign	00000000 _highcode_lma
00002086 g     F .text	0000003e iprintf
200006dc g     F .highcode	0000002a RFIP_TestEnd
20000d9a g     F .highcode	00000008 LLE_IRQHandler
00000000 g       .init	00000000 _sinit
00002e44 g     F .text	0000002c _write_r
200010d2 g     F .highcode	0000001a FLASH_CMD_ROM_SW_RESET
200012f0 g     O .bss	00000020 gRxParam
20000daa g     F .highcode	0000002e TMR_IRQHandler
00002f36 g     F .text	0000010a _printf_common
20001154 g     O .data	00000004 _impure_ptr
00002382 g     F .text	00000132 __sflush_r
2000115c g     O .bss	00000004 Freq_LSI
00001892 g     F .text	00000036 RFEND_RXAdc
200011a8 g     O .bss	00000108 RxBuf
000034a4  w      .vector_handler	00000000 WDOG_BAT_IRQHandler
000034a4  w      .vector_handler	00000000 Ecall_U_Mode_Handler
20003000 g       .stack	00000000 _eusrstack
00001202 g     F .text	00000082 GPIOA_ModeCfg
20000d36 g     F .highcode	0000000c rf_rx_process_data
00002784 g     F .text	00000058 __swhatbuf_r
20001189 g     O .bss	00000001 nCO2440
00001284 g     F .text	0000005a GetSysClock
20000dd8 g     F .highcode	00000034 FLASH_ROM_BEG_FF
20001034 g     F .highcode	00000060 FLASH_CMD_GET_ROM_INFO
2000118c g     O .bss	00000001 nGA2401
000012de g     F .text	00000026 _write
2000115c g       .data	00000000 _edata
20001330 g       .bss	00000000 _end
200010ec g       .highcode	00000000 _highcode_vma_end
000034a8 g       .dlalign	00000000 _data_lma
00002dca g     F .text	00000046 __swrite
00002aca g     F .text	000002ae _vfiprintf_r
00002716 g     F .text	00000068 _fwalk_reent
000025f6 g     F .text	00000006 __sfp_lock_release
000033d0 g     O .text	00000020 __sf_fake_stdout
00003312 g     F .text	0000000c _read
000010f0  w      .text	00000000 handle_reset
20001164 g     O .bss	00000004 gTxCount
20000a0e g     F .highcode	0000002e RFIP_SetPHYIdle
000018fa g     F .text	0000077c RFEND_TXCtune
000027dc g     F .text	00000092 __smakebuf_r
00003040 g     F .text	00000278 _printf_i
2000119c g     O .bss	00000004 __malloc_sbrk_start
00001344 g     F .text	00000030 UART_BaudRateCfg
20000e20 g     F .highcode	0000000e FLASH_ROM_END
200011a0 g     O .bss	00000004 __malloc_free_list
20001160 g     O .bss	00000004 gRxCount
00002aca g     F .text	000002ae _vfprintf_r
2000118a g     O .bss	00000001 nCO2480
20000242 g     F .highcode	00000134 RFIP_SetRx
200009e0 g     F .highcode	0000002e RFIP_WakeUpRegInit
20000fd2 g     F .highcode	00000050 FLASH_CMD_ROM_VERIFY
00001678 g     F .text	00000022 RFRole_BasicInit
20001194 g     O .bss	00000001 __lock___sfp_recursive_mutex
20000d26 g     F .highcode	00000010 rf_rx_start
000032e2 g     F .text	0000000c _close
000025fc g     F .text	00000006 __sinit_lock_acquire



Disassembly of section .init:

00000000 <_sinit>:
_start():
F:/private/nanoCH57x-private/doc/CH572EVT/EVT/EXAM/SRC/Startup/startup_CH572.S:18
	.section	.init,"ax",@progbits
	.global	_start
 	.global	_vector_base
	.align	1
_start:
	j	handle_reset
   0:	0f00106f          	j	10f0 <handle_reset>

Disassembly of section .highcode:

20000000 <_highcode_vma_start>:
	...
_vector_base():
20000008:	000034a4          	.word	0x000034a4
2000000c:	20000c7c          	.word	0x20000c7c
20000010:	f3f9bda9          	.word	0xf3f9bda9
20000014:	000034a4          	.word	0x000034a4
	...
20000020:	000034a4          	.word	0x000034a4
20000024:	000034a4          	.word	0x000034a4
	...
20000030:	000034a4          	.word	0x000034a4
20000034:	00000000          	.word	0x00000000
20000038:	000034a4          	.word	0x000034a4
	...
20000044:	000034a4          	.word	0x000034a4
20000048:	00000000          	.word	0x00000000
2000004c:	000034a4          	.word	0x000034a4
20000050:	20000da2          	.word	0x20000da2
20000054:	20000d9a          	.word	0x20000d9a
20000058:	000034a4          	.word	0x000034a4
2000005c:	00000000          	.word	0x00000000
20000060:	20000daa          	.word	0x20000daa
	...
2000006c:	000034a4          	.word	0x000034a4
20000070:	20000d00          	.word	0x20000d00
20000074:	000034a4          	.word	0x000034a4
20000078:	000034a4          	.word	0x000034a4
2000007c:	000034a4          	.word	0x000034a4
20000080:	00000000          	.word	0x00000000
20000084:	000034a4          	.word	0x000034a4
20000088:	00000000          	.word	0x00000000
2000008c:	000034a4          	.word	0x000034a4

20000090 <rfBasicProcess>:
rfBasicProcess():
20000090:	c4221141          	.word	0xc4221141
20000094:	7793c606          	.word	0x7793c606
20000098:	842a0025          	.word	0x842a0025
2000009c:	8793c795          	.word	0x8793c795
200000a0:	439c8281          	.word	0x439c8281
200000a4:	00020737          	.word	0x00020737
200000a8:	0607a223          	.word	0x0607a223
200000ac:	7781c798          	.word	0x7781c798
200000b0:	871317fd          	.word	0x871317fd
200000b4:	74338181          	.word	0x74338181
200000b8:	435c00f5          	.word	0x435c00f5
200000bc:	c7898bc1          	.word	0xc7898bc1
200000c0:	4581431c          	.word	0x4581431c
200000c4:	97824541          	.word	0x97824541
200000c8:	00147793          	.word	0x00147793
200000cc:	8793cf9d          	.word	0x8793cf9d
200000d0:	439c8281          	.word	0x439c8281
200000d4:	00020737          	.word	0x00020737
200000d8:	0607a223          	.word	0x0607a223
200000dc:	26f5c798          	.word	0x26f5c798
200000e0:	81818793          	.word	0x81818793
200000e4:	e91943d8          	.word	0xe91943d8
200000e8:	cf158b05          	.word	0xcf158b05
200000ec:	0007a303          	.word	0x0007a303
200000f0:	45054581          	.word	0x45054581
200000f4:	40b24422          	.word	0x40b24422
200000f8:	83020141          	.word	0x83020141
200000fc:	c7058b21          	.word	0xc7058b21
20000100:	0007a303          	.word	0x0007a303
20000104:	45214581          	.word	0x45214581
20000108:	1793b7f5          	.word	0x1793b7f5
2000010c:	dc6300e4          	.word	0xdc6300e4
20000110:	87130007          	.word	0x87130007
20000114:	435c8181          	.word	0x435c8181
20000118:	c7918b91          	.word	0xc7918b91
2000011c:	00072303          	.word	0x00072303
20000120:	45114581          	.word	0x45114581
20000124:	40b2bfc1          	.word	0x40b2bfc1
20000128:	01414422          	.word	0x01414422
2000012c:	           	Address 0x000000002000012c is out of bounds.


2000012e <RFIP_SetChannel>:
RFIP_SetChannel():
2000012e:	00232737          	.word	0x00232737
20000132:	82418793          	.word	0x82418793
20000136:	86070713          	.word	0x86070713
2000013a:	8985439c          	.word	0x8985439c
2000013e:	0ea77a63          	.word	0x0ea77a63
20000142:	83418713          	.word	0x83418713
20000146:	08b74314          	.word	0x08b74314
2000014a:	18fdfe10          	.word	0x18fdfe10
2000014e:	671356d8          	.word	0x671356d8
20000152:	d6d80027          	.word	0xd6d80027
20000156:	07136741          	.word	0x07136741
2000015a:	5633a007          	.word	0x5633a007
2000015e:	773302e5          	.word	0x773302e5
20000162:	8a7d02e5          	.word	0x8a7d02e5
20000166:	01461813          	.word	0x01461813
2000016a:	763342f0          	.word	0x763342f0
2000016e:	66330116          	.word	0x66330116
20000172:	c2f00106          	.word	0xc2f00106
20000176:	0fa00613          	.word	0x0fa00613
2000017a:	fffc0837          	.word	0xfffc0837
2000017e:	5733072a          	.word	0x5733072a
20000182:	42f002c7          	.word	0x42f002c7
20000186:	01067633          	.word	0x01067633
2000018a:	8339073a          	.word	0x8339073a
2000018e:	c2f88f51          	.word	0xc2f88f51
20000192:	0024b737          	.word	0x0024b737
20000196:	e9f70713          	.word	0xe9f70713
2000019a:	02a76463          	.word	0x02a76463
2000019e:	77134398          	.word	0x77134398
200001a2:	6713f807          	.word	0x6713f807
200001a6:	c3980257          	.word	0xc3980257
200001aa:	4398c999          	.word	0x4398c999
200001ae:	03f77713          	.word	0x03f77713
200001b2:	04076693          	.word	0x04076693
200001b6:	77134398          	.word	0x77134398
200001ba:	8f55f807          	.word	0x8f55f807
200001be:	8082c398          	.word	0x8082c398
200001c2:	00250737          	.word	0x00250737
200001c6:	48f70693          	.word	0x48f70693
200001ca:	02a6e363          	.word	0x02a6e363
200001ce:	ffdb6737          	.word	0xffdb6737
200001d2:	93070713          	.word	0x93070713
200001d6:	0513972a          	.word	0x0513972a
200001da:	57337d00          	.word	0x57337d00
200001de:	177d02a7          	.word	0x177d02a7
200001e2:	77134394          	.word	0x77134394
200001e6:	f69307f7          	.word	0xf69307f7
200001ea:	8f55f806          	.word	0x8f55f806
200001ee:	0713bf6d          	.word	0x0713bf6d
200001f2:	18634907          	.word	0x18634907
200001f6:	439800e5          	.word	0x439800e5
200001fa:	f8077713          	.word	0xf8077713
200001fe:	02676713          	.word	0x02676713
20000202:	d737b75d          	.word	0xd737b75d
20000206:	07130025          	.word	0x07130025
2000020a:	6d6377f7          	.word	0x6d6377f7
2000020e:	673700a7          	.word	0x673700a7
20000212:	0713ffdb          	.word	0x0713ffdb
20000216:	972a9307          	.word	0x972a9307
2000021a:	7d000513          	.word	0x7d000513
2000021e:	02a75733          	.word	0x02a75733
20000222:	bf7d1779          	.word	0xbf7d1779
20000226:	77134398          	.word	0x77134398
2000022a:	6713f807          	.word	0x6713f807
2000022e:	bfa50277          	.word	0xbfa50277
20000232:	75134398          	.word	0x75134398
20000236:	771307f5          	.word	0x771307f5
2000023a:	8d59f807          	.word	0x8d59f807
2000023e:	b7adc388          	.word	0xb7adc388

20000242 <RFIP_SetRx>:
RFIP_SetRx():
20000242:	12050863          	.word	0x12050863
20000246:	1141495c          	.word	0x1141495c
2000024a:	c606c422          	.word	0xc606c422
2000024e:	c04ac226          	.word	0xc04ac226
20000252:	4509842a          	.word	0x4509842a
20000256:	10078563          	.word	0x10078563
2000025a:	82818493          	.word	0x82818493
2000025e:	4711409c          	.word	0x4711409c
20000262:	00e79323          	.word	0x00e79323
20000266:	8b0d4398          	.word	0x8b0d4398
2000026a:	4398c709          	.word	0x4398c709
2000026e:	00876713          	.word	0x00876713
20000272:	8913c398          	.word	0x8913c398
20000276:	26838241          	.word	0x26838241
2000027a:	07370009          	.word	0x07370009
2000027e:	0613fffd          	.word	0x0613fffd
20000282:	428cfff7          	.word	0x428cfff7
20000286:	00c5f733          	.word	0x00c5f733
2000028a:	4298c298          	.word	0x4298c298
2000028e:	06378f71          	.word	0x06378f71
20000292:	8f510002          	.word	0x8f510002
20000296:	8713c298          	.word	0x8713c298
2000029a:	43148341          	.word	0x43148341
2000029e:	00330637          	.word	0x00330637
200002a2:	46984448          	.word	0x46984448
200002a6:	8f51480c          	.word	0x8f51480c
200002aa:	0737c698          	.word	0x0737c698
200002ae:	0713000f          	.word	0x0713000f
200002b2:	cbb81d87          	.word	0xcbb81d87
200002b6:	002327b7          	.word	0x002327b7
200002ba:	86078793          	.word	0x86078793
200002be:	00a7f963          	.word	0x00a7f963
200002c2:	0305f793          	.word	0x0305f793
200002c6:	92634741          	.word	0x92634741
200002ca:	05130ae7          	.word	0x05130ae7
200002ce:	3db98305          	.word	0x3db98305
200002d2:	77934808          	.word	0x77934808
200002d6:	c3850045          	.word	0xc3850045
200002da:	00092683          	.word	0x00092683
200002de:	01844703          	.word	0x01844703
200002e2:	f793429c          	.word	0xf793429c
200002e6:	8fd90407          	.word	0x8fd90407
200002ea:	f7934298          	.word	0xf7934298
200002ee:	771307f7          	.word	0x771307f7
200002f2:	8fd9f807          	.word	0x8fd9f807
200002f6:	4018c29c          	.word	0x4018c29c
200002fa:	00092783          	.word	0x00092783
200002fe:	ff000637          	.word	0xff000637
20000302:	00020937          	.word	0x00020937
20000306:	4703d3b8          	.word	0x4703d3b8
2000030a:	d3f80044          	.word	0xd3f80044
2000030e:	cfb84418          	.word	0xcfb84418
20000312:	16934c58          	.word	0x16934c58
20000316:	4ff80087          	.word	0x4ff80087
2000031a:	8f7182a1          	.word	0x8f7182a1
2000031e:	cff88f55          	.word	0xcff88f55
20000322:	4858409c          	.word	0x4858409c
20000326:	dff84601          	.word	0xdff84601
2000032a:	0607a223          	.word	0x0607a223
2000032e:	0127a423          	.word	0x0127a423
20000332:	01944583          	.word	0x01944583
20000336:	40942399          	.word	0x40942399
2000033a:	01a45703          	.word	0x01a45703
2000033e:	c29c4785          	.word	0xc29c4785
20000342:	cf114501          	.word	0xcf114501
20000346:	778146d0          	.word	0x778146d0
2000034a:	8ff117fd          	.word	0x8ff117fd
2000034e:	100fc6dc          	.word	0x100fc6dc
20000352:	409c0000          	.word	0x409c0000
20000356:	a4230706          	.word	0xa4230706
2000035a:	d3f80127          	.word	0xd3f80127
2000035e:	40b2c7d0          	.word	0x40b2c7d0
20000362:	44924422          	.word	0x44924422
20000366:	01414902          	.word	0x01414902
2000036a:	05138082          	.word	0x05138082
2000036e:	b785c185          	.word	0xb785c185
20000372:	80824505          	.word	0x80824505

20000376 <RFIP_StartTx>:
RFIP_StartTx():
20000376:	c84a1101          	.word	0xc84a1101
2000037a:	82818913          	.word	0x82818913
2000037e:	00092603          	.word	0x00092603
20000382:	ca26cc22          	.word	0xca26cc22
20000386:	c64ece06          	.word	0xc64ece06
2000038a:	8493421c          	.word	0x8493421c
2000038e:	842a8241          	.word	0x842a8241
20000392:	0087e793          	.word	0x0087e793
20000396:	4703c21c          	.word	0x4703c21c
2000039a:	409c01b5          	.word	0x409c01b5
2000039e:	04076713          	.word	0x04076713
200003a2:	01971693          	.word	0x01971693
200003a6:	071e5bd8          	.word	0x071e5bd8
200003aa:	8f55831d          	.word	0x8f55831d
200003ae:	4703dbd8          	.word	0x4703dbd8
200003b2:	132301a5          	.word	0x132301a5
200003b6:	5bd800e6          	.word	0x5bd800e6
200003ba:	67139b71          	.word	0x67139b71
200003be:	dbd80017          	.word	0xdbd80017
200003c2:	0737438c          	.word	0x0737438c
200003c6:	0693fffd          	.word	0x0693fffd
200003ca:	f733fff7          	.word	0xf733fff7
200003ce:	c39800d5          	.word	0xc39800d5
200003d2:	8f754398          	.word	0x8f754398
200003d6:	000206b7          	.word	0x000206b7
200003da:	c3988f55          	.word	0xc3988f55
200003de:	83418793          	.word	0x83418793
200003e2:	06b74398          	.word	0x06b74398
200003e6:	490c0033          	.word	0x490c0033
200003ea:	4548471c          	.word	0x4548471c
200003ee:	c71c8fd5          	.word	0xc71c8fd5
200003f2:	000f07b7          	.word	0x000f07b7
200003f6:	2d878793          	.word	0x2d878793
200003fa:	3b0dca3c          	.word	0x3b0dca3c
200003fe:	8b91481c          	.word	0x8b91481c
20000402:	4094cf99          	.word	0x4094cf99
20000406:	01844703          	.word	0x01844703
2000040a:	f793429c          	.word	0xf793429c
2000040e:	8fd90407          	.word	0x8fd90407
20000412:	f7934298          	.word	0xf7934298
20000416:	771307f7          	.word	0x771307f7
2000041a:	8fd9f807          	.word	0x8fd9f807
2000041e:	409cc29c          	.word	0x409cc29c
20000422:	4c544018          	.word	0x4c544018
20000426:	010009b7          	.word	0x010009b7
2000042a:	4703c7d8          	.word	0x4703c7d8
2000042e:	06370044          	.word	0x06370044
20000432:	8522ff00          	.word	0x8522ff00
20000436:	4418cb98          	.word	0x4418cb98
2000043a:	8713c3d8          	.word	0x8713c3d8
2000043e:	8ef9fff9          	.word	0x8ef9fff9
20000442:	8f714798          	.word	0x8f714798
20000446:	c7988f55          	.word	0xc7988f55
2000044a:	00092783          	.word	0x00092783
2000044e:	dfb84858          	.word	0xdfb84858
20000452:	409c2c55          	.word	0x409c2c55
20000456:	43984501          	.word	0x43984501
2000045a:	01376733          	.word	0x01376733
2000045e:	5bd8c398          	.word	0x5bd8c398
20000462:	dbd89b71          	.word	0xdbd89b71
20000466:	00092783          	.word	0x00092783
2000046a:	446240f2          	.word	0x446240f2
2000046e:	c3984709          	.word	0xc3984709
20000472:	494244d2          	.word	0x494244d2
20000476:	610549b2          	.word	0x610549b2
2000047a:	           	Address 0x000000002000047a is out of bounds.


2000047c <LLE_LibIRQHandler>:
LLE_LibIRQHandler():
2000047c:	82818793          	.word	0x82818793
20000480:	4798439c          	.word	0x4798439c
20000484:	8ef947d4          	.word	0x8ef947d4
20000488:	8693ca99          	.word	0x8693ca99
2000048c:	a30382c1          	.word	0xa30382c1
20000490:	c7980006          	.word	0xc7980006
20000494:	00030563          	.word	0x00030563
20000498:	8d7947c8          	.word	0x8d7947c8
2000049c:	80828302          	.word	0x80828302

200004a0 <BB_LibIRQHandler>:
BB_LibIRQHandler():
200004a0:	82418793          	.word	0x82418793
200004a4:	433c4398          	.word	0x433c4398
200004a8:	8b858399          	.word	0x8b858399
200004ac:	0793cf91          	.word	0x0793cf91
200004b0:	c33c0600          	.word	0xc33c0600
200004b4:	82818793          	.word	0x82818793
200004b8:	0737439c          	.word	0x0737439c
200004bc:	c7980002          	.word	0xc7980002
200004c0:	82018713          	.word	0x82018713
200004c4:	d3f84318          	.word	0xd3f84318
200004c8:	           	Address 0x00000000200004c8 is out of bounds.


200004ca <RFIP_ReadCrc>:
RFIP_ReadCrc():
200004ca:	82418793          	.word	0x82418793
200004ce:	43a8439c          	.word	0x43a8439c
200004d2:	89058115          	.word	0x89058115
200004d6:	           	Address 0x00000000200004d6 is out of bounds.


200004d8 <RFIP_SetTxPower>:
RFIP_SetTxPower():
200004d8:	82418793          	.word	0x82418793
200004dc:	65134398          	.word	0x65134398
200004e0:	05660405          	.word	0x05660405
200004e4:	079e5b5c          	.word	0x079e5b5c
200004e8:	8fc9839d          	.word	0x8fc9839d
200004ec:	8082db5c          	.word	0x8082db5c

200004f0 <RFIP_DevSetChannel>:
RFIP_DevSetChannel():
200004f0:	83418793          	.word	0x83418793
200004f4:	00232737          	.word	0x00232737
200004f8:	07134394          	.word	0x07134394
200004fc:	87938607          	.word	0x87938607
20000500:	439c8241          	.word	0x439c8241
20000504:	0ea77663          	.word	0x0ea77663
20000508:	0024b737          	.word	0x0024b737
2000050c:	e9f70713          	.word	0xe9f70713
20000510:	06a76563          	.word	0x06a76563
20000514:	77134398          	.word	0x77134398
20000518:	6713f807          	.word	0x6713f807
2000051c:	c3980257          	.word	0xc3980257
20000520:	0015f793          	.word	0x0015f793
20000524:	f593cb81          	.word	0xf593cb81
20000528:	47c10305          	.word	0x47c10305
2000052c:	0af59f63          	.word	0x0af59f63
20000530:	83050513          	.word	0x83050513
20000534:	05b756dc          	.word	0x05b756dc
20000538:	15fdfe10          	.word	0x15fdfe10
2000053c:	0027e793          	.word	0x0027e793
20000540:	67c1d6dc          	.word	0x67c1d6dc
20000544:	a0078793          	.word	0xa0078793
20000548:	02f55733          	.word	0x02f55733
2000054c:	02f57533          	.word	0x02f57533
20000550:	0fa00793          	.word	0x0fa00793
20000554:	16138b7d          	.word	0x16138b7d
20000558:	42f80147          	.word	0x42f80147
2000055c:	8f518f6d          	.word	0x8f518f6d
20000560:	0737c2f8          	.word	0x0737c2f8
20000564:	052afffc          	.word	0x052afffc
20000568:	02f55533          	.word	0x02f55533
2000056c:	8ff942fc          	.word	0x8ff942fc
20000570:	8139053a          	.word	0x8139053a
20000574:	c2e88d5d          	.word	0xc2e88d5d
20000578:	07378082          	.word	0x07378082
2000057c:	06130025          	.word	0x06130025
20000580:	636348f7          	.word	0x636348f7
20000584:	673702a6          	.word	0x673702a6
20000588:	0713ffdb          	.word	0x0713ffdb
2000058c:	972a9307          	.word	0x972a9307
20000590:	7d000613          	.word	0x7d000613
20000594:	02c75733          	.word	0x02c75733
20000598:	4390177d          	.word	0x4390177d
2000059c:	07f77713          	.word	0x07f77713
200005a0:	f8067613          	.word	0xf8067613
200005a4:	bfa58f51          	.word	0xbfa58f51
200005a8:	49070713          	.word	0x49070713
200005ac:	00e51863          	.word	0x00e51863
200005b0:	77134398          	.word	0x77134398
200005b4:	6713f807          	.word	0x6713f807
200005b8:	b7950267          	.word	0xb7950267
200005bc:	0025d737          	.word	0x0025d737
200005c0:	77f70713          	.word	0x77f70713
200005c4:	00a76d63          	.word	0x00a76d63
200005c8:	ffdb6737          	.word	0xffdb6737
200005cc:	93070713          	.word	0x93070713
200005d0:	0613972a          	.word	0x0613972a
200005d4:	57337d00          	.word	0x57337d00
200005d8:	177902c7          	.word	0x177902c7
200005dc:	4398bf7d          	.word	0x4398bf7d
200005e0:	f8077713          	.word	0xf8077713
200005e4:	02776713          	.word	0x02776713
200005e8:	0513bf1d          	.word	0x0513bf1d
200005ec:	b799c185          	.word	0xb799c185
200005f0:	751356d8          	.word	0x751356d8
200005f4:	9b7507f5          	.word	0x9b7507f5
200005f8:	4398d6d8          	.word	0x4398d6d8
200005fc:	f8077713          	.word	0xf8077713
20000600:	c3888d59          	.word	0xc3888d59
20000604:	           	Address 0x0000000020000604 is out of bounds.


20000606 <RFIP_SingleChannel>:
RFIP_SingleChannel():
20000606:	83418793          	.word	0x83418793
2000060a:	c171439c          	.word	0xc171439c
2000060e:	6163472d          	.word	0x6163472d
20000612:	157d02a7          	.word	0x157d02a7
20000616:	06b757d8          	.word	0x06b757d8
2000061a:	7513c100          	.word	0x7513c100
2000061e:	9b7503f5          	.word	0x9b7503f5
20000622:	4b98d7d8          	.word	0x4b98d7d8
20000626:	056216fd          	.word	0x056216fd
2000062a:	8d598f75          	.word	0x8d598f75
2000062e:	a085cb88          	.word	0xa085cb88
20000632:	01634731          	.word	0x01634731
20000636:	07130ae5          	.word	0x07130ae5
2000063a:	64630260          	.word	0x64630260
2000063e:	157900a7          	.word	0x157900a7
20000642:	0713bfd1          	.word	0x0713bfd1
20000646:	07e30270          	.word	0x07e30270
2000064a:	57d8fce5          	.word	0x57d8fce5
2000064e:	06136641          	.word	0x06136641
20000652:	6713a006          	.word	0x6713a006
20000656:	d7d80027          	.word	0xd7d80027
2000065a:	02c55733          	.word	0x02c55733
2000065e:	fe1005b7          	.word	0xfe1005b7
20000662:	753315fd          	.word	0x753315fd
20000666:	8b7d02c5          	.word	0x8b7d02c5
2000066a:	01471693          	.word	0x01471693
2000066e:	8f6d43f8          	.word	0x8f6d43f8
20000672:	c3f88f55          	.word	0xc3f88f55
20000676:	0fa00713          	.word	0x0fa00713
2000067a:	fffc06b7          	.word	0xfffc06b7
2000067e:	5533052a          	.word	0x5533052a
20000682:	43f802e5          	.word	0x43f802e5
20000686:	053a8f75          	.word	0x053a8f75
2000068a:	8d598139          	.word	0x8d598139
2000068e:	8713c3e8          	.word	0x8713c3e8
20000692:	43188241          	.word	0x43188241
20000696:	06137671          	.word	0x06137671
2000069a:	5b580ff6          	.word	0x5b580ff6
2000069e:	83654b94          	.word	0x83654b94
200006a2:	03f77713          	.word	0x03f77713
200006a6:	07228ef1          	.word	0x07228ef1
200006aa:	cb988f55          	.word	0xcb988f55
200006ae:	06b74ff8          	.word	0x06b74ff8
200006b2:	16fdfff9          	.word	0x16fdfff9
200006b6:	00476713          	.word	0x00476713
200006ba:	4b98cff8          	.word	0x4b98cff8
200006be:	06b78f75          	.word	0x06b78f75
200006c2:	8f550002          	.word	0x8f550002
200006c6:	8693cb98          	.word	0x8693cb98
200006ca:	c7944f86          	.word	0xc7944f86
200006ce:	05138082          	.word	0x05138082
200006d2:	b7890250          	.word	0xb7890250
200006d6:	02600513          	.word	0x02600513
200006da:	           	Address 0x00000000200006da is out of bounds.


200006dc <RFIP_TestEnd>:
RFIP_TestEnd():
200006dc:	83418793          	.word	0x83418793
200006e0:	4b98439c          	.word	0x4b98439c
200006e4:	00e71693          	.word	0x00e71693
200006e8:	0006de63          	.word	0x0006de63
200006ec:	14011737          	.word	0x14011737
200006f0:	8ff70713          	.word	0x8ff70713
200006f4:	0737cb98          	.word	0x0737cb98
200006f8:	cff80411          	.word	0xcff80411
200006fc:	07136709          	.word	0x07136709
20000700:	c7989f87          	.word	0xc7989f87
20000704:	           	Address 0x0000000020000704 is out of bounds.


20000706 <RFIP_SetPHYTxMode>:
RFIP_SetPHYTxMode():
20000706:	83418793          	.word	0x83418793
2000070a:	49184394          	.word	0x49184394
2000070e:	82818813          	.word	0x82818813
20000712:	75935adc          	.word	0x75935adc
20000716:	76137007          	.word	0x76137007
2000071a:	f7930307          	.word	0xf7930307
2000071e:	8fcd8ff7          	.word	0x8fcd8ff7
20000722:	45c1dadc          	.word	0x45c1dadc
20000726:	82418793          	.word	0x82418793
2000072a:	2683439c          	.word	0x2683439c
2000072e:	88c20008          	.word	0x88c20008
20000732:	04b61a63          	.word	0x04b61a63
20000736:	49584390          	.word	0x49584390
2000073a:	fa0005b7          	.word	0xfa0005b7
2000073e:	cff67613          	.word	0xcff67613
20000742:	c3904318          	.word	0xc3904318
20000746:	15fd53d0          	.word	0x15fd53d0
2000074a:	8e6d8321          	.word	0x8e6d8321
2000074e:	d603d3d0          	.word	0xd603d3d0
20000752:	46cc0066          	.word	0x46cc0066
20000756:	17fd7781          	.word	0x17fd7781
2000075a:	06428fed          	.word	0x06428fed
2000075e:	c6dc8241          	.word	0xc6dc8241
20000762:	0000100f          	.word	0x0000100f
20000766:	00082683          	.word	0x00082683
2000076a:	000207b7          	.word	0x000207b7
2000076e:	7793c69c          	.word	0x7793c69c
20000772:	07ad0ff7          	.word	0x07ad0ff7
20000776:	00165713          	.word	0x00165713
2000077a:	0761078a          	.word	0x0761078a
2000077e:	078697ba          	.word	0x078697ba
20000782:	a885d2fc          	.word	0xa885d2fc
20000786:	03000593          	.word	0x03000593
2000078a:	0ab61063          	.word	0x0ab61063
2000078e:	83414390          	.word	0x83414390
20000792:	30066613          	.word	0x30066613
20000796:	6609c390          	.word	0x6609c390
2000079a:	93238f51          	.word	0x93238f51
2000079e:	53d802e7          	.word	0x53d802e7
200007a2:	00771613          	.word	0x00771613
200007a6:	04064963          	.word	0x04064963
200007aa:	47034bf0          	.word	0x47034bf0
200007ae:	66130195          	.word	0x66130195
200007b2:	cbf01006          	.word	0xcbf01006
200007b6:	04e78a23          	.word	0x04e78a23
200007ba:	460553dc          	.word	0x460553dc
200007be:	8b8d83e5          	.word	0x8b8d83e5
200007c2:	02c79f63          	.word	0x02c79f63
200007c6:	0066d783          	.word	0x0066d783
200007ca:	760146cc          	.word	0x760146cc
200007ce:	8e6d167d          	.word	0x8e6d167d
200007d2:	83c107c2          	.word	0x83c107c2
200007d6:	100fc6d0          	.word	0x100fc6d0
200007da:	a6830000          	.word	0xa6830000
200007de:	06370008          	.word	0x06370008
200007e2:	83850002          	.word	0x83850002
200007e6:	c6900729          	.word	0xc6900729
200007ea:	070e07e1          	.word	0x070e07e1
200007ee:	0706973e          	.word	0x0706973e
200007f2:	c6ccd2f8          	.word	0xc6ccd2f8
200007f6:	49588082          	.word	0x49588082
200007fa:	00074703          	.word	0x00074703
200007fe:	d783bf75          	.word	0xd783bf75
20000802:	46cc0066          	.word	0x46cc0066
20000806:	167d7601          	.word	0x167d7601
2000080a:	07c28e6d          	.word	0x07c28e6d
2000080e:	c6d083c1          	.word	0xc6d083c1
20000812:	0000100f          	.word	0x0000100f
20000816:	0008a683          	.word	0x0008a683
2000081a:	00020637          	.word	0x00020637
2000081e:	072d8385          	.word	0x072d8385
20000822:	07e1c690          	.word	0x07e1c690
20000826:	b7d9070a          	.word	0xb7d9070a
2000082a:	49584390          	.word	0x49584390
2000082e:	fa0005b7          	.word	0xfa0005b7
20000832:	cff67613          	.word	0xcff67613
20000836:	10066613          	.word	0x10066613
2000083a:	c3904318          	.word	0xc3904318
2000083e:	15fd53d0          	.word	0x15fd53d0
20000842:	8e6d8321          	.word	0x8e6d8321
20000846:	020005b7          	.word	0x020005b7
2000084a:	d3d08e4d          	.word	0xd3d08e4d
2000084e:	0066d603          	.word	0x0066d603
20000852:	778146cc          	.word	0x778146cc
20000856:	8fed17fd          	.word	0x8fed17fd
2000085a:	82410642          	.word	0x82410642
2000085e:	100fc6dc          	.word	0x100fc6dc
20000862:	26830000          	.word	0x26830000
20000866:	07b70008          	.word	0x07b70008
2000086a:	c69c0002          	.word	0xc69c0002
2000086e:	0ff77793          	.word	0x0ff77793
20000872:	078e07a9          	.word	0x078e07a9
20000876:	01860713          	.word	0x01860713
2000087a:	           	Address 0x000000002000087a is out of bounds.


2000087c <RFIP_SetPHYRxMode>:
RFIP_SetPHYRxMode():
2000087c:	83418713          	.word	0x83418713
20000880:	82418793          	.word	0x82418793
20000884:	03057613          	.word	0x03057613
20000888:	43144841          	.word	0x43144841
2000088c:	8713439c          	.word	0x8713439c
20000890:	1a630035          	.word	0x1a630035
20000894:	43900506          	.word	0x43900506
20000898:	7613070e          	.word	0x7613070e
2000089c:	c390cff6          	.word	0xc390cff6
200008a0:	8331c603          	.word	0x8331c603
200008a4:	01f67593          	.word	0x01f67593
200008a8:	9a014ab0          	.word	0x9a014ab0
200008ac:	cab08e4d          	.word	0xcab08e4d
200008b0:	063753d4          	.word	0x063753d4
200008b4:	167dfa00          	.word	0x167dfa00
200008b8:	d3d48ef1          	.word	0xd3d48ef1
200008bc:	f6934bd4          	.word	0xf6934bd4
200008c0:	e693fc06          	.word	0xe693fc06
200008c4:	cbd400d6          	.word	0xcbd400d6
200008c8:	07f00693          	.word	0x07f00693
200008cc:	00d78f23          	.word	0x00d78f23
200008d0:	f6934fd4          	.word	0xf6934fd4
200008d4:	e693c006          	.word	0xe693c006
200008d8:	cfd40a06          	.word	0xcfd40a06
200008dc:	03c70713          	.word	0x03c70713
200008e0:	82e1a023          	.word	0x82e1a023
200008e4:	08138082          	.word	0x08138082
200008e8:	12630300          	.word	0x12630300
200008ec:	43900b06          	.word	0x43900b06
200008f0:	66138141          	.word	0x66138141
200008f4:	c3903006          	.word	0xc3903006
200008f8:	8d516609          	.word	0x8d516609
200008fc:	02a79323          	.word	0x02a79323
20000900:	151353d0          	.word	0x151353d0
20000904:	48630076          	.word	0x48630076
20000908:	4bf00005          	.word	0x4bf00005
2000090c:	10066613          	.word	0x10066613
20000910:	8a23cbf0          	.word	0x8a23cbf0
20000914:	53d004b7          	.word	0x53d004b7
20000918:	82654585          	.word	0x82654585
2000091c:	10638a0d          	.word	0x10638a0d
20000920:	070e04b6          	.word	0x070e04b6
20000924:	03c70713          	.word	0x03c70713
20000928:	82e1a023          	.word	0x82e1a023
2000092c:	77134bd8          	.word	0x77134bd8
20000930:	6713fc07          	.word	0x6713fc07
20000934:	cbd800b7          	.word	0xcbd800b7
20000938:	07800713          	.word	0x07800713
2000093c:	00e78f23          	.word	0x00e78f23
20000940:	77134fd8          	.word	0x77134fd8
20000944:	6713c007          	.word	0x6713c007
20000948:	cfd809c7          	.word	0xcfd809c7
2000094c:	8321c783          	.word	0x8321c783
20000950:	01f7f713          	.word	0x01f7f713
20000954:	9b814abc          	.word	0x9b814abc
20000958:	cabc8fd9          	.word	0xcabc8fd9
2000095c:	07128082          	.word	0x07128082
20000960:	03c70713          	.word	0x03c70713
20000964:	82e1a023          	.word	0x82e1a023
20000968:	77134bd8          	.word	0x77134bd8
2000096c:	6713fc07          	.word	0x6713fc07
20000970:	cbd800d7          	.word	0xcbd800d7
20000974:	07f00713          	.word	0x07f00713
20000978:	00e78f23          	.word	0x00e78f23
2000097c:	77134fd8          	.word	0x77134fd8
20000980:	6713c007          	.word	0x6713c007
20000984:	cfd80a07          	.word	0xcfd80a07
20000988:	8331c783          	.word	0x8331c783
2000098c:	4390b7d1          	.word	0x4390b7d1
20000990:	76130712          	.word	0x76130712
20000994:	6613cff6          	.word	0x6613cff6
20000998:	c3901006          	.word	0xc3901006
2000099c:	8321c603          	.word	0x8321c603
200009a0:	01f67593          	.word	0x01f67593
200009a4:	9a014ab0          	.word	0x9a014ab0
200009a8:	cab08e4d          	.word	0xcab08e4d
200009ac:	063753d4          	.word	0x063753d4
200009b0:	167dfa00          	.word	0x167dfa00
200009b4:	06378ef1          	.word	0x06378ef1
200009b8:	8ed10200          	.word	0x8ed10200
200009bc:	4bd4d3d4          	.word	0x4bd4d3d4
200009c0:	fc06f693          	.word	0xfc06f693
200009c4:	00b6e693          	.word	0x00b6e693
200009c8:	0693cbd4          	.word	0x0693cbd4
200009cc:	8f230780          	.word	0x8f230780
200009d0:	4fd400d7          	.word	0x4fd400d7
200009d4:	c006f693          	.word	0xc006f693
200009d8:	09c6e693          	.word	0x09c6e693
200009dc:	bdfdcfd4          	.word	0xbdfdcfd4

200009e0 <RFIP_WakeUpRegInit>:
RFIP_WakeUpRegInit():
200009e0:	82818793          	.word	0x82818793
200009e4:	43d8439c          	.word	0x43d8439c
200009e8:	01e76713          	.word	0x01e76713
200009ec:	0737c3d8          	.word	0x0737c3d8
200009f0:	aa230002          	.word	0xaa230002
200009f4:	070d0407          	.word	0x070d0407
200009f8:	8793c7d8          	.word	0x8793c7d8
200009fc:	43988241          	.word	0x43988241
20000a00:	17fd67c1          	.word	0x17fd67c1
20000a04:	0793c33c          	.word	0x0793c33c
20000a08:	df5c0400          	.word	0xdf5c0400
20000a0c:	           	Address 0x0000000020000a0c is out of bounds.


20000a0e <RFIP_SetPHYIdle>:
RFIP_SetPHYIdle():
20000a0e:	82818693          	.word	0x82818693
20000a12:	4bb8429c          	.word	0x4bb8429c
20000a16:	cbb89b3d          	.word	0xcbb89b3d
20000a1a:	8b0d4398          	.word	0x8b0d4398
20000a1e:	4398cf11          	.word	0x4398cf11
20000a22:	00876713          	.word	0x00876713
20000a26:	0001c398          	.word	0x0001c398
20000a2a:	42980001          	.word	0x42980001
20000a2e:	f7934b3c          	.word	0xf7934b3c
20000a32:	e7938ff7          	.word	0xe7938ff7
20000a36:	cb3c5007          	.word	0xcb3c5007
20000a3a:	8082                	.short	0x8082

20000a3c <SetSysClock>:
SetSysClock():
F:/private/nanoCH57x-private/doc/CH572EVT/EVT/EXAM/SRC/StdPeriphDriver/CH57x_sys.c:31
{
    uint16_t clk_sys_cfg;
    uint8_t i;
    uint8_t x32M_c;

    if(sc == RB_CLK_SYS_MOD)  // LSI
20000a3c:	0c000793          	li	a5,192
F:/private/nanoCH57x-private/doc/CH572EVT/EVT/EXAM/SRC/StdPeriphDriver/CH57x_sys.c:26
{
20000a40:	1101                	addi	sp,sp,-32
F:/private/nanoCH57x-private/doc/CH572EVT/EVT/EXAM/SRC/StdPeriphDriver/CH57x_sys.c:31
    if(sc == RB_CLK_SYS_MOD)  // LSI
20000a42:	04f51463          	bne	a0,a5,20000a8a <SetSysClock+0x4e>
__risc_v_disable_irq():
F:\private\nanoCH57x-private\doc\CH572EVT\EVT\EXAM\SRC\RVMSIS/core_riscv.h:154
 */
__attribute__((always_inline)) RV_STATIC_INLINE uint32_t __risc_v_disable_irq(void)
{
    uint32_t result;

    __asm volatile("csrrc %0, 0x800, %1" : \
20000a46:	08800793          	li	a5,136
20000a4a:	8007b7f3          	csrrc	a5,0x800,a5
F:\private\nanoCH57x-private\doc\CH572EVT\EVT\EXAM\SRC\RVMSIS/core_riscv.h:156
                   "=r"(result): "r"(0x88) : "memory");
    return result & 0x88;
20000a4e:	0887f793          	andi	a5,a5,136
SetSysClock():
F:/private/nanoCH57x-private/doc/CH572EVT/EVT/EXAM/SRC/StdPeriphDriver/CH57x_sys.c:33
    {
        sys_safe_access_enable();
20000a52:	c03e                	sw	a5,0(sp)
20000a54:	0000100f          	fence.i
20000a58:	400017b7          	lui	a5,0x40001
20000a5c:	05700713          	li	a4,87
20000a60:	04e78023          	sb	a4,64(a5) # 40001040 <_eusrstack+0x1fffe040>
20000a64:	fa800713          	li	a4,-88
20000a68:	04e78023          	sb	a4,64(a5)
20000a6c:	0000100f          	fence.i
F:/private/nanoCH57x-private/doc/CH572EVT/EVT/EXAM/SRC/StdPeriphDriver/CH57x_sys.c:34
        R8_CLK_SYS_CFG |= RB_CLK_SYS_MOD;
20000a70:	2798                	lbu	a4,8(a5)
20000a72:	0c076713          	ori	a4,a4,192
20000a76:	a798                	sb	a4,8(a5)
F:/private/nanoCH57x-private/doc/CH572EVT/EVT/EXAM/SRC/StdPeriphDriver/CH57x_sys.c:35
        sys_safe_access_disable();
20000a78:	04078023          	sb	zero,64(a5)
20000a7c:	4782                	lw	a5,0(sp)
__risc_v_enable_irq():
F:\private\nanoCH57x-private\doc\CH572EVT\EVT\EXAM\SRC\RVMSIS/core_riscv.h:138
    __asm volatile("csrrs %0, 0x800, %1" : \
20000a7e:	8007a7f3          	csrrs	a5,0x800,a5
SetSysClock():
F:/private/nanoCH57x-private/doc/CH572EVT/EVT/EXAM/SRC/StdPeriphDriver/CH57x_sys.c:86
            }
        }

        sys_safe_access_enable();
        R8_CLK_SYS_CFG = sc;
        sys_safe_access_disable();
20000a82:	0000100f          	fence.i
F:/private/nanoCH57x-private/doc/CH572EVT/EVT/EXAM/SRC/StdPeriphDriver/CH57x_sys.c:88
    }
}
20000a86:	6105                	addi	sp,sp,32
20000a88:	8082                	ret
F:/private/nanoCH57x-private/doc/CH572EVT/EVT/EXAM/SRC/StdPeriphDriver/CH57x_sys.c:39
        if(!(R8_HFCK_PWR_CTRL & RB_CLK_XT32M_PON))
20000a8a:	400017b7          	lui	a5,0x40001
20000a8e:	27b8                	lbu	a4,10(a5)
20000a90:	8b11                	andi	a4,a4,4
20000a92:	eb69                	bnez	a4,20000b64 <SetSysClock+0x128>
F:/private/nanoCH57x-private/doc/CH572EVT/EVT/EXAM/SRC/StdPeriphDriver/CH57x_sys.c:41
            x32M_c = R8_XT32M_TUNE;
20000a94:	04e7c683          	lbu	a3,78(a5) # 4000104e <_eusrstack+0x1fffe04e>
__risc_v_disable_irq():
F:\private\nanoCH57x-private\doc\CH572EVT\EVT\EXAM\SRC\RVMSIS/core_riscv.h:154
    __asm volatile("csrrc %0, 0x800, %1" : \
20000a98:	08800713          	li	a4,136
SetSysClock():
F:/private/nanoCH57x-private/doc/CH572EVT/EVT/EXAM/SRC/StdPeriphDriver/CH57x_sys.c:41
20000a9c:	0ff6f693          	zext.b	a3,a3
__risc_v_disable_irq():
F:\private\nanoCH57x-private\doc\CH572EVT\EVT\EXAM\SRC\RVMSIS/core_riscv.h:154
20000aa0:	80073673          	csrrc	a2,0x800,a4
F:\private\nanoCH57x-private\doc\CH572EVT\EVT\EXAM\SRC\RVMSIS/core_riscv.h:156
    return result & 0x88;
20000aa4:	08867613          	andi	a2,a2,136
SetSysClock():
F:/private/nanoCH57x-private/doc/CH572EVT/EVT/EXAM/SRC/StdPeriphDriver/CH57x_sys.c:42
            sys_safe_access_enable();
20000aa8:	c232                	sw	a2,4(sp)
20000aaa:	0000100f          	fence.i
20000aae:	05700813          	li	a6,87
20000ab2:	05078023          	sb	a6,64(a5)
20000ab6:	fa800593          	li	a1,-88
20000aba:	04b78023          	sb	a1,64(a5)
20000abe:	0000100f          	fence.i
F:/private/nanoCH57x-private/doc/CH572EVT/EVT/EXAM/SRC/StdPeriphDriver/CH57x_sys.c:43
            R8_XT32M_TUNE |= 0x03;
20000ac2:	04e7c603          	lbu	a2,78(a5)
20000ac6:	00366613          	ori	a2,a2,3
20000aca:	04c78723          	sb	a2,78(a5)
F:/private/nanoCH57x-private/doc/CH572EVT/EVT/EXAM/SRC/StdPeriphDriver/CH57x_sys.c:44
            R8_HFCK_PWR_CTRL |= RB_CLK_XT32M_PON;
20000ace:	27b0                	lbu	a2,10(a5)
20000ad0:	00466613          	ori	a2,a2,4
20000ad4:	a7b0                	sb	a2,10(a5)
F:/private/nanoCH57x-private/doc/CH572EVT/EVT/EXAM/SRC/StdPeriphDriver/CH57x_sys.c:45
            sys_safe_access_disable();
20000ad6:	04078023          	sb	zero,64(a5)
20000ada:	4612                	lw	a2,4(sp)
__risc_v_enable_irq():
F:\private\nanoCH57x-private\doc\CH572EVT\EVT\EXAM\SRC\RVMSIS/core_riscv.h:138
    __asm volatile("csrrs %0, 0x800, %1" : \
20000adc:	80062673          	csrrs	a2,0x800,a2
SetSysClock():
F:/private/nanoCH57x-private/doc/CH572EVT/EVT/EXAM/SRC/StdPeriphDriver/CH57x_sys.c:45
20000ae0:	0000100f          	fence.i
F:/private/nanoCH57x-private/doc/CH572EVT/EVT/EXAM/SRC/StdPeriphDriver/CH57x_sys.c:46
            clk_sys_cfg = R8_CLK_SYS_CFG;
20000ae4:	2790                	lbu	a2,8(a5)
20000ae6:	0ff67613          	zext.b	a2,a2
__risc_v_disable_irq():
F:\private\nanoCH57x-private\doc\CH572EVT\EVT\EXAM\SRC\RVMSIS/core_riscv.h:154
    __asm volatile("csrrc %0, 0x800, %1" : \
20000aea:	80073773          	csrrc	a4,0x800,a4
F:\private\nanoCH57x-private\doc\CH572EVT\EVT\EXAM\SRC\RVMSIS/core_riscv.h:156
    return result & 0x88;
20000aee:	08877713          	andi	a4,a4,136
SetSysClock():
F:/private/nanoCH57x-private/doc/CH572EVT/EVT/EXAM/SRC/StdPeriphDriver/CH57x_sys.c:47
            sys_safe_access_enable();
20000af2:	c43a                	sw	a4,8(sp)
20000af4:	0000100f          	fence.i
20000af8:	05078023          	sb	a6,64(a5)
20000afc:	04b78023          	sb	a1,64(a5)
20000b00:	0000100f          	fence.i
F:/private/nanoCH57x-private/doc/CH572EVT/EVT/EXAM/SRC/StdPeriphDriver/CH57x_sys.c:48
            R8_CLK_SYS_CFG |= 0xC0;
20000b04:	2798                	lbu	a4,8(a5)
20000b06:	0c076713          	ori	a4,a4,192
20000b0a:	a798                	sb	a4,8(a5)
F:/private/nanoCH57x-private/doc/CH572EVT/EVT/EXAM/SRC/StdPeriphDriver/CH57x_sys.c:49
            sys_safe_access_disable();
20000b0c:	04078023          	sb	zero,64(a5)
20000b10:	47a2                	lw	a5,8(sp)
__risc_v_enable_irq():
F:\private\nanoCH57x-private\doc\CH572EVT\EVT\EXAM\SRC\RVMSIS/core_riscv.h:138
    __asm volatile("csrrs %0, 0x800, %1" : \
20000b12:	8007a7f3          	csrrs	a5,0x800,a5
SetSysClock():
F:/private/nanoCH57x-private/doc/CH572EVT/EVT/EXAM/SRC/StdPeriphDriver/CH57x_sys.c:49
20000b16:	0000100f          	fence.i
20000b1a:	47a5                	li	a5,9
F:/private/nanoCH57x-private/doc/CH572EVT/EVT/EXAM/SRC/StdPeriphDriver/CH57x_sys.c:52 (discriminator 3)
                __nop();
20000b1c:	0001                	nop
F:/private/nanoCH57x-private/doc/CH572EVT/EVT/EXAM/SRC/StdPeriphDriver/CH57x_sys.c:50 (discriminator 3)
            for(i=0; i<9; i++)
20000b1e:	17fd                	addi	a5,a5,-1
20000b20:	0ff7f793          	zext.b	a5,a5
20000b24:	ffe5                	bnez	a5,20000b1c <SetSysClock+0xe0>
__risc_v_disable_irq():
F:\private\nanoCH57x-private\doc\CH572EVT\EVT\EXAM\SRC\RVMSIS/core_riscv.h:154
    __asm volatile("csrrc %0, 0x800, %1" : \
20000b26:	08800793          	li	a5,136
20000b2a:	8007b7f3          	csrrc	a5,0x800,a5
F:\private\nanoCH57x-private\doc\CH572EVT\EVT\EXAM\SRC\RVMSIS/core_riscv.h:156
    return result & 0x88;
20000b2e:	0887f793          	andi	a5,a5,136
SetSysClock():
F:/private/nanoCH57x-private/doc/CH572EVT/EVT/EXAM/SRC/StdPeriphDriver/CH57x_sys.c:54
            sys_safe_access_enable();
20000b32:	c63e                	sw	a5,12(sp)
20000b34:	0000100f          	fence.i
20000b38:	400017b7          	lui	a5,0x40001
20000b3c:	05700713          	li	a4,87
20000b40:	04e78023          	sb	a4,64(a5) # 40001040 <_eusrstack+0x1fffe040>
20000b44:	fa800713          	li	a4,-88
20000b48:	04e78023          	sb	a4,64(a5)
20000b4c:	0000100f          	fence.i
F:/private/nanoCH57x-private/doc/CH572EVT/EVT/EXAM/SRC/StdPeriphDriver/CH57x_sys.c:55
            R8_CLK_SYS_CFG = clk_sys_cfg;
20000b50:	a790                	sb	a2,8(a5)
F:/private/nanoCH57x-private/doc/CH572EVT/EVT/EXAM/SRC/StdPeriphDriver/CH57x_sys.c:56
            R8_XT32M_TUNE = x32M_c;
20000b52:	04d78723          	sb	a3,78(a5)
F:/private/nanoCH57x-private/doc/CH572EVT/EVT/EXAM/SRC/StdPeriphDriver/CH57x_sys.c:57
            sys_safe_access_disable();
20000b56:	04078023          	sb	zero,64(a5)
20000b5a:	47b2                	lw	a5,12(sp)
__risc_v_enable_irq():
F:\private\nanoCH57x-private\doc\CH572EVT\EVT\EXAM\SRC\RVMSIS/core_riscv.h:138
    __asm volatile("csrrs %0, 0x800, %1" : \
20000b5c:	8007a7f3          	csrrs	a5,0x800,a5
SetSysClock():
F:/private/nanoCH57x-private/doc/CH572EVT/EVT/EXAM/SRC/StdPeriphDriver/CH57x_sys.c:57
20000b60:	0000100f          	fence.i
F:/private/nanoCH57x-private/doc/CH572EVT/EVT/EXAM/SRC/StdPeriphDriver/CH57x_sys.c:60
        if((sc & RB_CLK_SYS_MOD) == 0x40) // PLL div
20000b64:	0c057793          	andi	a5,a0,192
20000b68:	04000713          	li	a4,64
20000b6c:	08e79963          	bne	a5,a4,20000bfe <SetSysClock+0x1c2>
__risc_v_disable_irq():
F:\private\nanoCH57x-private\doc\CH572EVT\EVT\EXAM\SRC\RVMSIS/core_riscv.h:154
    __asm volatile("csrrc %0, 0x800, %1" : \
20000b70:	08800793          	li	a5,136
20000b74:	8007b7f3          	csrrc	a5,0x800,a5
F:\private\nanoCH57x-private\doc\CH572EVT\EVT\EXAM\SRC\RVMSIS/core_riscv.h:156
    return result & 0x88;
20000b78:	0887f793          	andi	a5,a5,136
SetSysClock():
F:/private/nanoCH57x-private/doc/CH572EVT/EVT/EXAM/SRC/StdPeriphDriver/CH57x_sys.c:62
            sys_safe_access_enable();
20000b7c:	c83e                	sw	a5,16(sp)
20000b7e:	0000100f          	fence.i
20000b82:	400017b7          	lui	a5,0x40001
20000b86:	05700713          	li	a4,87
20000b8a:	04e78023          	sb	a4,64(a5) # 40001040 <_eusrstack+0x1fffe040>
20000b8e:	fa800713          	li	a4,-88
20000b92:	04e78023          	sb	a4,64(a5)
20000b96:	0000100f          	fence.i
F:/private/nanoCH57x-private/doc/CH572EVT/EVT/EXAM/SRC/StdPeriphDriver/CH57x_sys.c:63
            R8_HFCK_PWR_CTRL |= RB_CLK_PLL_PON;
20000b9a:	27b8                	lbu	a4,10(a5)
F:/private/nanoCH57x-private/doc/CH572EVT/EVT/EXAM/SRC/StdPeriphDriver/CH57x_sys.c:64
            R8_FLASH_CFG = 0X01;
20000b9c:	4685                	li	a3,1
F:/private/nanoCH57x-private/doc/CH572EVT/EVT/EXAM/SRC/StdPeriphDriver/CH57x_sys.c:63
            R8_HFCK_PWR_CTRL |= RB_CLK_PLL_PON;
20000b9e:	01076713          	ori	a4,a4,16
20000ba2:	a7b8                	sb	a4,10(a5)
F:/private/nanoCH57x-private/doc/CH572EVT/EVT/EXAM/SRC/StdPeriphDriver/CH57x_sys.c:64
            R8_FLASH_CFG = 0X01;
20000ba4:	40002737          	lui	a4,0x40002
20000ba8:	80d703a3          	sb	a3,-2041(a4) # 40001807 <_eusrstack+0x1fffe807>
F:/private/nanoCH57x-private/doc/CH572EVT/EVT/EXAM/SRC/StdPeriphDriver/CH57x_sys.c:65
            R8_FLASH_SCK |= 1<<4; //50M
20000bac:	80574683          	lbu	a3,-2043(a4)
20000bb0:	0106e693          	ori	a3,a3,16
20000bb4:	80d702a3          	sb	a3,-2043(a4)
F:/private/nanoCH57x-private/doc/CH572EVT/EVT/EXAM/SRC/StdPeriphDriver/CH57x_sys.c:66
            sys_safe_access_disable();
20000bb8:	04078023          	sb	zero,64(a5)
20000bbc:	47c2                	lw	a5,16(sp)
__risc_v_enable_irq():
F:\private\nanoCH57x-private\doc\CH572EVT\EVT\EXAM\SRC\RVMSIS/core_riscv.h:138
    __asm volatile("csrrs %0, 0x800, %1" : \
20000bbe:	8007a7f3          	csrrs	a5,0x800,a5
SetSysClock():
F:/private/nanoCH57x-private/doc/CH572EVT/EVT/EXAM/SRC/StdPeriphDriver/CH57x_sys.c:80
                sys_safe_access_disable();
20000bc2:	0000100f          	fence.i
__risc_v_disable_irq():
F:\private\nanoCH57x-private\doc\CH572EVT\EVT\EXAM\SRC\RVMSIS/core_riscv.h:154
    __asm volatile("csrrc %0, 0x800, %1" : \
20000bc6:	08800793          	li	a5,136
20000bca:	8007b7f3          	csrrc	a5,0x800,a5
F:\private\nanoCH57x-private\doc\CH572EVT\EVT\EXAM\SRC\RVMSIS/core_riscv.h:156
    return result & 0x88;
20000bce:	0887f793          	andi	a5,a5,136
SetSysClock():
F:/private/nanoCH57x-private/doc/CH572EVT/EVT/EXAM/SRC/StdPeriphDriver/CH57x_sys.c:84
        sys_safe_access_enable();
20000bd2:	ce3e                	sw	a5,28(sp)
20000bd4:	0000100f          	fence.i
20000bd8:	400017b7          	lui	a5,0x40001
20000bdc:	05700713          	li	a4,87
20000be0:	04e78023          	sb	a4,64(a5) # 40001040 <_eusrstack+0x1fffe040>
20000be4:	fa800713          	li	a4,-88
20000be8:	04e78023          	sb	a4,64(a5)
20000bec:	0000100f          	fence.i
F:/private/nanoCH57x-private/doc/CH572EVT/EVT/EXAM/SRC/StdPeriphDriver/CH57x_sys.c:85
        R8_CLK_SYS_CFG = sc;
20000bf0:	0ff57513          	zext.b	a0,a0
20000bf4:	a788                	sb	a0,8(a5)
F:/private/nanoCH57x-private/doc/CH572EVT/EVT/EXAM/SRC/StdPeriphDriver/CH57x_sys.c:86
        sys_safe_access_disable();
20000bf6:	04078023          	sb	zero,64(a5)
20000bfa:	47f2                	lw	a5,28(sp)
20000bfc:	b549                	j	20000a7e <SetSysClock+0x42>
F:/private/nanoCH57x-private/doc/CH572EVT/EVT/EXAM/SRC/StdPeriphDriver/CH57x_sys.c:70
            if((sc&0x1F) )
20000bfe:	01f57793          	andi	a5,a0,31
20000c02:	cf9d                	beqz	a5,20000c40 <SetSysClock+0x204>
__risc_v_disable_irq():
F:\private\nanoCH57x-private\doc\CH572EVT\EVT\EXAM\SRC\RVMSIS/core_riscv.h:154
    __asm volatile("csrrc %0, 0x800, %1" : \
20000c04:	08800793          	li	a5,136
20000c08:	8007b7f3          	csrrc	a5,0x800,a5
F:\private\nanoCH57x-private\doc\CH572EVT\EVT\EXAM\SRC\RVMSIS/core_riscv.h:156
    return result & 0x88;
20000c0c:	0887f793          	andi	a5,a5,136
SetSysClock():
F:/private/nanoCH57x-private/doc/CH572EVT/EVT/EXAM/SRC/StdPeriphDriver/CH57x_sys.c:72
                sys_safe_access_enable();
20000c10:	ca3e                	sw	a5,20(sp)
20000c12:	0000100f          	fence.i
20000c16:	400017b7          	lui	a5,0x40001
20000c1a:	05700713          	li	a4,87
20000c1e:	04e78023          	sb	a4,64(a5) # 40001040 <_eusrstack+0x1fffe040>
20000c22:	fa800713          	li	a4,-88
20000c26:	04e78023          	sb	a4,64(a5)
20000c2a:	0000100f          	fence.i
F:/private/nanoCH57x-private/doc/CH572EVT/EVT/EXAM/SRC/StdPeriphDriver/CH57x_sys.c:73
                R8_FLASH_CFG = 0X02;
20000c2e:	40002737          	lui	a4,0x40002
20000c32:	4689                	li	a3,2
20000c34:	80d703a3          	sb	a3,-2041(a4) # 40001807 <_eusrstack+0x1fffe807>
F:/private/nanoCH57x-private/doc/CH572EVT/EVT/EXAM/SRC/StdPeriphDriver/CH57x_sys.c:74
                sys_safe_access_disable();
20000c38:	04078023          	sb	zero,64(a5)
20000c3c:	47d2                	lw	a5,20(sp)
__risc_v_enable_irq():
F:\private\nanoCH57x-private\doc\CH572EVT\EVT\EXAM\SRC\RVMSIS/core_riscv.h:138
    __asm volatile("csrrs %0, 0x800, %1" : \
20000c3e:	b741                	j	20000bbe <SetSysClock+0x182>
__risc_v_disable_irq():
F:\private\nanoCH57x-private\doc\CH572EVT\EVT\EXAM\SRC\RVMSIS/core_riscv.h:154
    __asm volatile("csrrc %0, 0x800, %1" : \
20000c40:	08800793          	li	a5,136
20000c44:	8007b7f3          	csrrc	a5,0x800,a5
F:\private\nanoCH57x-private\doc\CH572EVT\EVT\EXAM\SRC\RVMSIS/core_riscv.h:156
    return result & 0x88;
20000c48:	0887f793          	andi	a5,a5,136
SetSysClock():
F:/private/nanoCH57x-private/doc/CH572EVT/EVT/EXAM/SRC/StdPeriphDriver/CH57x_sys.c:78
                sys_safe_access_enable();
20000c4c:	cc3e                	sw	a5,24(sp)
20000c4e:	0000100f          	fence.i
20000c52:	400017b7          	lui	a5,0x40001
20000c56:	05700713          	li	a4,87
20000c5a:	04e78023          	sb	a4,64(a5) # 40001040 <_eusrstack+0x1fffe040>
20000c5e:	fa800713          	li	a4,-88
20000c62:	04e78023          	sb	a4,64(a5)
20000c66:	0000100f          	fence.i
F:/private/nanoCH57x-private/doc/CH572EVT/EVT/EXAM/SRC/StdPeriphDriver/CH57x_sys.c:79
                R8_FLASH_CFG = 0X07;
20000c6a:	40002737          	lui	a4,0x40002
20000c6e:	469d                	li	a3,7
20000c70:	80d703a3          	sb	a3,-2041(a4) # 40001807 <_eusrstack+0x1fffe807>
F:/private/nanoCH57x-private/doc/CH572EVT/EVT/EXAM/SRC/StdPeriphDriver/CH57x_sys.c:80
                sys_safe_access_disable();
20000c74:	04078023          	sb	zero,64(a5)
20000c78:	47e2                	lw	a5,24(sp)
20000c7a:	b791                	j	20000bbe <SetSysClock+0x182>

20000c7c <HardFault_Handler>:
HardFault_Handler():
F:/private/nanoCH57x-private/doc/CH572EVT/EVT/EXAM/SRC/StdPeriphDriver/CH57x_sys.c:282
 */
__INTERRUPT
__HIGH_CODE
__attribute__((weak))
void HardFault_Handler(void)
{
20000c7c:	1141                	addi	sp,sp,-16
F:/private/nanoCH57x-private/doc/CH572EVT/EVT/EXAM/SRC/StdPeriphDriver/CH57x_sys.c:283
    FLASH_ROM_SW_RESET();
20000c7e:	4681                	li	a3,0
20000c80:	4601                	li	a2,0
20000c82:	4581                	li	a1,0
20000c84:	4511                	li	a0,4
20000c86:	e0001097          	auipc	ra,0xe0001
20000c8a:	8bc080e7          	jalr	-1860(ra) # 1542 <FLASH_EEPROM_CMD>
__risc_v_disable_irq():
F:\private\nanoCH57x-private\doc\CH572EVT\EVT\EXAM\SRC\RVMSIS/core_riscv.h:154
    __asm volatile("csrrc %0, 0x800, %1" : \
20000c8e:	08800713          	li	a4,136
20000c92:	800737f3          	csrrc	a5,0x800,a4
F:\private\nanoCH57x-private\doc\CH572EVT\EVT\EXAM\SRC\RVMSIS/core_riscv.h:156
    return result & 0x88;
20000c96:	0887f793          	andi	a5,a5,136
HardFault_Handler():
F:/private/nanoCH57x-private/doc/CH572EVT/EVT/EXAM/SRC/StdPeriphDriver/CH57x_sys.c:284
    sys_safe_access_enable();
20000c9a:	c43e                	sw	a5,8(sp)
20000c9c:	0000100f          	fence.i
20000ca0:	400017b7          	lui	a5,0x40001
20000ca4:	05700613          	li	a2,87
20000ca8:	04c78023          	sb	a2,64(a5) # 40001040 <_eusrstack+0x1fffe040>
20000cac:	fa800693          	li	a3,-88
20000cb0:	04d78023          	sb	a3,64(a5)
20000cb4:	0000100f          	fence.i
F:/private/nanoCH57x-private/doc/CH572EVT/EVT/EXAM/SRC/StdPeriphDriver/CH57x_sys.c:285
    R16_INT_LSI_TUNE = 0xFFFF;
20000cb8:	55fd                	li	a1,-1
20000cba:	b7ce                	sh	a1,44(a5)
F:/private/nanoCH57x-private/doc/CH572EVT/EVT/EXAM/SRC/StdPeriphDriver/CH57x_sys.c:286
    sys_safe_access_disable();
20000cbc:	04078023          	sb	zero,64(a5)
20000cc0:	45a2                	lw	a1,8(sp)
__risc_v_enable_irq():
F:\private\nanoCH57x-private\doc\CH572EVT\EVT\EXAM\SRC\RVMSIS/core_riscv.h:138
    __asm volatile("csrrs %0, 0x800, %1" : \
20000cc2:	8005a5f3          	csrrs	a1,0x800,a1
HardFault_Handler():
F:/private/nanoCH57x-private/doc/CH572EVT/EVT/EXAM/SRC/StdPeriphDriver/CH57x_sys.c:286
20000cc6:	0000100f          	fence.i
__risc_v_disable_irq():
F:\private\nanoCH57x-private\doc\CH572EVT\EVT\EXAM\SRC\RVMSIS/core_riscv.h:154
    __asm volatile("csrrc %0, 0x800, %1" : \
20000cca:	80073773          	csrrc	a4,0x800,a4
F:\private\nanoCH57x-private\doc\CH572EVT\EVT\EXAM\SRC\RVMSIS/core_riscv.h:156
    return result & 0x88;
20000cce:	08877713          	andi	a4,a4,136
HardFault_Handler():
F:/private/nanoCH57x-private/doc/CH572EVT/EVT/EXAM/SRC/StdPeriphDriver/CH57x_sys.c:287
    sys_safe_access_enable();
20000cd2:	c63a                	sw	a4,12(sp)
20000cd4:	0000100f          	fence.i
20000cd8:	04c78023          	sb	a2,64(a5)
20000cdc:	04d78023          	sb	a3,64(a5)
20000ce0:	0000100f          	fence.i
F:/private/nanoCH57x-private/doc/CH572EVT/EVT/EXAM/SRC/StdPeriphDriver/CH57x_sys.c:288
    R8_RST_WDOG_CTRL |= RB_SOFTWARE_RESET;
20000ce4:	0467c703          	lbu	a4,70(a5)
20000ce8:	00176713          	ori	a4,a4,1
20000cec:	04e78323          	sb	a4,70(a5)
F:/private/nanoCH57x-private/doc/CH572EVT/EVT/EXAM/SRC/StdPeriphDriver/CH57x_sys.c:289
    sys_safe_access_disable();
20000cf0:	04078023          	sb	zero,64(a5)
20000cf4:	47b2                	lw	a5,12(sp)
__risc_v_enable_irq():
F:\private\nanoCH57x-private\doc\CH572EVT\EVT\EXAM\SRC\RVMSIS/core_riscv.h:138
    __asm volatile("csrrs %0, 0x800, %1" : \
20000cf6:	8007a7f3          	csrrs	a5,0x800,a5
HardFault_Handler():
F:/private/nanoCH57x-private/doc/CH572EVT/EVT/EXAM/SRC/StdPeriphDriver/CH57x_sys.c:289
20000cfa:	0000100f          	fence.i
F:/private/nanoCH57x-private/doc/CH572EVT/EVT/EXAM/SRC/StdPeriphDriver/CH57x_sys.c:290 (discriminator 1)
    while(1);
20000cfe:	a001                	j	20000cfe <HardFault_Handler+0x82>

20000d00 <RTC_IRQHandler>:
RTC_IRQHandler():
F:/private/nanoCH57x-private/doc/CH572EVT/EVT/EXAM/BLE/HAL/RTC.c:61
__HIGH_CODE
void RTC_IRQHandler( void )
{
    uint32_t trig_time;

    R8_RTC_FLAG_CTRL =(RB_RTC_TMR_CLR|RB_RTC_TRIG_CLR);
20000d00:	400017b7          	lui	a5,0x40001
20000d04:	03000713          	li	a4,48
20000d08:	02e78823          	sb	a4,48(a5) # 40001030 <_eusrstack+0x1fffe030>
F:/private/nanoCH57x-private/doc/CH572EVT/EVT/EXAM/BLE/HAL/RTC.c:62
}
20000d0c:	30200073          	mret

20000d10 <rf_tx_start>:
rf_tx_start():
F:\private\nanoCH57x-private\doc\CH572EVT\EVT\EXAM\BLE\RF_Basic\obj/../APP/rf_basic.c:89
__HIGH_CODE
void rf_tx_start( uint8_t *pBuf )
{
    //    RFRole_Stop();
    // 
    gTxParam.frequency = TEST_FREQUENCY;
20000d10:	9c018793          	addi	a5,gp,-1600 # 20001310 <gTxParam>
20000d14:	4741                	li	a4,16
20000d16:	c7d8                	sw	a4,12(a5)
F:\private\nanoCH57x-private\doc\CH572EVT\EVT\EXAM\BLE\RF_Basic\obj/../APP/rf_basic.c:91
    // DMA
    gTxParam.txDMA = (uint32_t)pBuf;
20000d18:	cbc8                	sw	a0,20(a5)
F:\private\nanoCH57x-private\doc\CH572EVT\EVT\EXAM\BLE\RF_Basic\obj/../APP/rf_basic.c:92
    gTxParam.waitTime = 40*2; // 80us
20000d1a:	05000713          	li	a4,80
F:\private\nanoCH57x-private\doc\CH572EVT\EVT\EXAM\BLE\RF_Basic\obj/../APP/rf_basic.c:93
    RFIP_StartTx( &gTxParam );
20000d1e:	853e                	mv	a0,a5
F:\private\nanoCH57x-private\doc\CH572EVT\EVT\EXAM\BLE\RF_Basic\obj/../APP/rf_basic.c:92
    gTxParam.waitTime = 40*2; // 80us
20000d20:	afb8                	sb	a4,26(a5)
F:\private\nanoCH57x-private\doc\CH572EVT\EVT\EXAM\BLE\RF_Basic\obj/../APP/rf_basic.c:93
    RFIP_StartTx( &gTxParam );
20000d22:	e54ff06f          	j	20000376 <RFIP_StartTx>

20000d26 <rf_rx_start>:
rf_rx_start():
F:\private\nanoCH57x-private\doc\CH572EVT\EVT\EXAM\BLE\RF_Basic\obj/../APP/rf_basic.c:134
 */
__HIGH_CODE
void rf_rx_start( void )
{
    // 
    gRxParam.frequency = TEST_FREQUENCY;
20000d26:	9a018513          	addi	a0,gp,-1632 # 200012f0 <gRxParam>
20000d2a:	47c1                	li	a5,16
20000d2c:	c55c                	sw	a5,12(a0)
F:\private\nanoCH57x-private\doc\CH572EVT\EVT\EXAM\BLE\RF_Basic\obj/../APP/rf_basic.c:136
    // 0
    gRxParam.timeOut = 0;
20000d2e:	00051d23          	sh	zero,26(a0)
F:\private\nanoCH57x-private\doc\CH572EVT\EVT\EXAM\BLE\RF_Basic\obj/../APP/rf_basic.c:137
    RFIP_SetRx( &gRxParam );
20000d32:	d10ff06f          	j	20000242 <RFIP_SetRx>

20000d36 <rf_rx_process_data>:
rf_rx_process_data():
F:\private\nanoCH57x-private\doc\CH572EVT\EVT\EXAM\BLE\RF_Basic\obj/../APP/rf_basic.c:150
 * @return  None.
 */
__HIGH_CODE
void rf_rx_process_data( void )
{
    gRxCount ++;
20000d36:	81018713          	addi	a4,gp,-2032 # 20001160 <gRxCount>
20000d3a:	431c                	lw	a5,0(a4)
20000d3c:	0785                	addi	a5,a5,1
20000d3e:	c31c                	sw	a5,0(a4)
F:\private\nanoCH57x-private\doc\CH572EVT\EVT\EXAM\BLE\RF_Basic\obj/../APP/rf_basic.c:160
//        {
//            PRINT("%x\t",pData[i]);
//        }
//        PRINT("\n");
    }
}
20000d40:	8082                	ret

20000d42 <RF_ProcessCallBack>:
RF_ProcessCallBack():
F:\private\nanoCH57x-private\doc\CH572EVT\EVT\EXAM\BLE\RF_Basic\obj/../APP/rf_basic.c:202
 *
 * @return  None.
 */
__HIGH_CODE
void RF_ProcessCallBack( rfRole_States_t sta,uint8_t id  )
{
20000d42:	1141                	addi	sp,sp,-16
20000d44:	c422                	sw	s0,8(sp)
20000d46:	c606                	sw	ra,12(sp)
F:\private\nanoCH57x-private\doc\CH572EVT\EVT\EXAM\BLE\RF_Basic\obj/../APP/rf_basic.c:203
    if( sta&RF_STATE_RX )
20000d48:	00157793          	andi	a5,a0,1
F:\private\nanoCH57x-private\doc\CH572EVT\EVT\EXAM\BLE\RF_Basic\obj/../APP/rf_basic.c:202
{
20000d4c:	842a                	mv	s0,a0
F:\private\nanoCH57x-private\doc\CH572EVT\EVT\EXAM\BLE\RF_Basic\obj/../APP/rf_basic.c:203
    if( sta&RF_STATE_RX )
20000d4e:	c799                	beqz	a5,20000d5c <RF_ProcessCallBack+0x1a>
F:\private\nanoCH57x-private\doc\CH572EVT\EVT\EXAM\BLE\RF_Basic\obj/../APP/rf_basic.c:205
    {
        rf_rx_process_data();
20000d50:	37dd                	jal	20000d36 <rf_rx_process_data>
F:\private\nanoCH57x-private\doc\CH572EVT\EVT\EXAM\BLE\RF_Basic\obj/../APP/rf_basic.c:208
#if( TEST_MODE == MODE_RX )
#if( WAIT_ACK )
        TxBuf[0] = 0x0d;
20000d52:	96018513          	addi	a0,gp,-1696 # 200012b0 <TxBuf>
20000d56:	47b5                	li	a5,13
20000d58:	a11e                	sh	a5,0(a0)
F:\private\nanoCH57x-private\doc\CH572EVT\EVT\EXAM\BLE\RF_Basic\obj/../APP/rf_basic.c:210
        TxBuf[1] = 0;
        rf_tx_start( TxBuf );
20000d5a:	3f5d                	jal	20000d10 <rf_tx_start>
F:\private\nanoCH57x-private\doc\CH572EVT\EVT\EXAM\BLE\RF_Basic\obj/../APP/rf_basic.c:216
#else
        rf_rx_start( );
#endif
#endif
    }
    if( sta&RF_STATE_RX_CRCERR )
20000d5c:	00847793          	andi	a5,s0,8
20000d60:	c391                	beqz	a5,20000d64 <RF_ProcessCallBack+0x22>
F:\private\nanoCH57x-private\doc\CH572EVT\EVT\EXAM\BLE\RF_Basic\obj/../APP/rf_basic.c:220
    {
//        PRINT("crc -err.\n");
#if( TEST_MODE == MODE_RX )
        rf_rx_start( );
20000d62:	37d1                	jal	20000d26 <rf_rx_start>
F:\private\nanoCH57x-private\doc\CH572EVT\EVT\EXAM\BLE\RF_Basic\obj/../APP/rf_basic.c:225
#else
//        PRINT("nak@crc\n");
#endif
    }
    if( sta&RF_STATE_TX_FINISH )
20000d64:	01047793          	andi	a5,s0,16
20000d68:	c799                	beqz	a5,20000d76 <RF_ProcessCallBack+0x34>
F:\private\nanoCH57x-private\doc\CH572EVT\EVT\EXAM\BLE\RF_Basic\obj/../APP/rf_basic.c:228
    {
#if( WAIT_ACK )
        rf_rx_start( );
20000d6a:	3f75                	jal	20000d26 <rf_rx_start>
F:\private\nanoCH57x-private\doc\CH572EVT\EVT\EXAM\BLE\RF_Basic\obj/../APP/rf_basic.c:230
#endif
        gTxCount ++;
20000d6c:	81418713          	addi	a4,gp,-2028 # 20001164 <gTxCount>
20000d70:	431c                	lw	a5,0(a4)
20000d72:	0785                	addi	a5,a5,1
20000d74:	c31c                	sw	a5,0(a4)
F:\private\nanoCH57x-private\doc\CH572EVT\EVT\EXAM\BLE\RF_Basic\obj/../APP/rf_basic.c:232
    }
    if( sta&RF_STATE_TIMEOUT )
20000d76:	8811                	andi	s0,s0,4
20000d78:	cc09                	beqz	s0,20000d92 <RF_ProcessCallBack+0x50>
F:\private\nanoCH57x-private\doc\CH572EVT\EVT\EXAM\BLE\RF_Basic\obj/../APP/rf_basic.c:236
    {
#if( TEST_MODE ==  MODE_RX )
#if WAIT_ACK
        PRINT("send error.\n");
20000d7a:	e0002517          	auipc	a0,0xe0002
20000d7e:	5c250513          	addi	a0,a0,1474 # 333c <_read+0x2a>
20000d82:	e0001097          	auipc	ra,0xe0001
20000d86:	446080e7          	jalr	1094(ra) # 21c8 <puts>
F:\private\nanoCH57x-private\doc\CH572EVT\EVT\EXAM\BLE\RF_Basic\obj/../APP/rf_basic.c:241
#endif
        rf_rx_start( );
#endif
    }
}
20000d8a:	4422                	lw	s0,8(sp)
20000d8c:	40b2                	lw	ra,12(sp)
20000d8e:	0141                	addi	sp,sp,16
F:\private\nanoCH57x-private\doc\CH572EVT\EVT\EXAM\BLE\RF_Basic\obj/../APP/rf_basic.c:238
        rf_rx_start( );
20000d90:	bf59                	j	20000d26 <rf_rx_start>
F:\private\nanoCH57x-private\doc\CH572EVT\EVT\EXAM\BLE\RF_Basic\obj/../APP/rf_basic.c:241
}
20000d92:	40b2                	lw	ra,12(sp)
20000d94:	4422                	lw	s0,8(sp)
20000d96:	0141                	addi	sp,sp,16
20000d98:	8082                	ret

20000d9a <LLE_IRQHandler>:
LLE_IRQHandler():
F:\private\nanoCH57x-private\doc\CH572EVT\EVT\EXAM\BLE\RF_Basic\obj/../APP/rf_basic.c:173
    LLE_LibIRQHandler( );
20000d9a:	ee2ff0ef          	jal	ra,2000047c <LLE_LibIRQHandler>
F:\private\nanoCH57x-private\doc\CH572EVT\EVT\EXAM\BLE\RF_Basic\obj/../APP/rf_basic.c:174
}
20000d9e:	30200073          	mret

20000da2 <BB_IRQHandler>:
BB_IRQHandler():
F:\private\nanoCH57x-private\doc\CH572EVT\EVT\EXAM\BLE\RF_Basic\obj/../APP/rf_basic.c:187
    BB_LibIRQHandler( );
20000da2:	efeff0ef          	jal	ra,200004a0 <BB_LibIRQHandler>
F:\private\nanoCH57x-private\doc\CH572EVT\EVT\EXAM\BLE\RF_Basic\obj/../APP/rf_basic.c:188
}
20000da6:	30200073          	mret

20000daa <TMR_IRQHandler>:
TMR_IRQHandler():
F:\private\nanoCH57x-private\doc\CH572EVT\EVT\EXAM\BLE\RF_Basic\obj/../APP/rf_basic.c:254
 */
__INTERRUPT
__HIGH_CODE
void TMR_IRQHandler(void) // TMR 
{
    if(TMR_GetITFlag(TMR_IT_CYC_END))
20000daa:	40002737          	lui	a4,0x40002
20000dae:	40674783          	lbu	a5,1030(a4) # 40002406 <_eusrstack+0x1ffff406>
20000db2:	8b85                	andi	a5,a5,1
20000db4:	c385                	beqz	a5,20000dd4 <TMR_IRQHandler+0x2a>
F:\private\nanoCH57x-private\doc\CH572EVT\EVT\EXAM\BLE\RF_Basic\obj/../APP/rf_basic.c:256
    {
        TMR_ClearITFlag(TMR_IT_CYC_END); // 
20000db6:	4785                	li	a5,1
20000db8:	40f70323          	sb	a5,1030(a4)
F:\private\nanoCH57x-private\doc\CH572EVT\EVT\EXAM\BLE\RF_Basic\obj/../APP/rf_basic.c:258
#if( TEST_MODE == MODE_RX )
        PRINT("rx-%d\n",gRxCount);
20000dbc:	8101a583          	lw	a1,-2032(gp) # 20001160 <gRxCount>
20000dc0:	e0002517          	auipc	a0,0xe0002
20000dc4:	58850513          	addi	a0,a0,1416 # 3348 <_read+0x36>
20000dc8:	e0001097          	auipc	ra,0xe0001
20000dcc:	2be080e7          	jalr	702(ra) # 2086 <iprintf>
F:\private\nanoCH57x-private\doc\CH572EVT\EVT\EXAM\BLE\RF_Basic\obj/../APP/rf_basic.c:259
        gRxCount = 0;
20000dd0:	8001a823          	sw	zero,-2032(gp) # 20001160 <gRxCount>
F:\private\nanoCH57x-private\doc\CH572EVT\EVT\EXAM\BLE\RF_Basic\obj/../APP/rf_basic.c:269
        TxBuf[2] = 0x02;
        TxBuf[3] = 0x03;
        rf_tx_start( TxBuf );
#endif
    }
}
20000dd4:	30200073          	mret

20000dd8 <FLASH_ROM_BEG_FF>:
FLASH_ROM_BEG_FF():
20000dd8:	80040323          	sb	zero,-2042(s0)
20000ddc:	4715                	li	a4,5
20000dde:	87a2                	mv	a5,s0
20000de0:	80e40323          	sb	a4,-2042(s0)
20000de4:	0001                	nop
20000de6:	0001                	nop
20000de8:	80a40223          	sb	a0,-2044(s0)
20000dec:	8067c703          	lbu	a4,-2042(a5)
20000df0:	0762                	slli	a4,a4,0x18
20000df2:	8761                	srai	a4,a4,0x18
20000df4:	fe074ce3          	bltz	a4,20000dec <FLASH_ROM_BEG_FF+0x14>
20000df8:	80a78223          	sb	a0,-2044(a5)
20000dfc:	8722                	mv	a4,s0
20000dfe:	80674783          	lbu	a5,-2042(a4)
20000e02:	07e2                	slli	a5,a5,0x18
20000e04:	87e1                	srai	a5,a5,0x18
20000e06:	fe07cce3          	bltz	a5,20000dfe <FLASH_ROM_BEG_FF+0x26>
20000e0a:	8082                	ret

20000e0c <FLASH_ROM_BEG>:
FLASH_ROM_BEG():
20000e0c:	80040323          	sb	zero,-2042(s0)
20000e10:	4715                	li	a4,5
20000e12:	80e40323          	sb	a4,-2042(s0)
20000e16:	0001                	nop
20000e18:	0001                	nop
20000e1a:	80a40223          	sb	a0,-2044(s0)
20000e1e:	8082                	ret

20000e20 <FLASH_ROM_END>:
FLASH_ROM_END():
20000e20:	80640783          	lb	a5,-2042(s0)
20000e24:	fe07cee3          	bltz	a5,20000e20 <FLASH_ROM_END>
20000e28:	80040323          	sb	zero,-2042(s0)
20000e2c:	8082                	ret

20000e2e <FLASH_ROM_IN>:
FLASH_ROM_IN():
20000e2e:	80640783          	lb	a5,-2042(s0)
20000e32:	fe07cee3          	bltz	a5,20000e2e <FLASH_ROM_IN>
20000e36:	80444503          	lbu	a0,-2044(s0)
20000e3a:	8082                	ret

20000e3c <FLASH_ROM_OUT>:
FLASH_ROM_OUT():
20000e3c:	80640783          	lb	a5,-2042(s0)
20000e40:	fe07cee3          	bltz	a5,20000e3c <FLASH_ROM_OUT>
20000e44:	80a40223          	sb	a0,-2044(s0)
20000e48:	8082                	ret

20000e4a <FLASH_ROM_ADDR>:
FLASH_ROM_ADDR():
20000e4a:	1141                	addi	sp,sp,-16
20000e4c:	c426                	sw	s1,8(sp)
20000e4e:	c24a                	sw	s2,4(sp)
20000e50:	c04e                	sw	s3,0(sp)
20000e52:	c606                	sw	ra,12(sp)
20000e54:	0bf57713          	andi	a4,a0,191
20000e58:	47ad                	li	a5,11
20000e5a:	89aa                	mv	s3,a0
20000e5c:	892e                	mv	s2,a1
20000e5e:	4495                	li	s1,5
20000e60:	00f70663          	beq	a4,a5,20000e6c <FLASH_ROM_ADDR+0x22>
20000e64:	4519                	li	a0,6
20000e66:	375d                	jal	20000e0c <FLASH_ROM_BEG>
20000e68:	3f65                	jal	20000e20 <FLASH_ROM_END>
20000e6a:	448d                	li	s1,3
20000e6c:	854e                	mv	a0,s3
20000e6e:	3f79                	jal	20000e0c <FLASH_ROM_BEG>
20000e70:	59fd                	li	s3,-1
20000e72:	14fd                	addi	s1,s1,-1
20000e74:	01349863          	bne	s1,s3,20000e84 <FLASH_ROM_ADDR+0x3a>
20000e78:	40b2                	lw	ra,12(sp)
20000e7a:	44a2                	lw	s1,8(sp)
20000e7c:	4912                	lw	s2,4(sp)
20000e7e:	4982                	lw	s3,0(sp)
20000e80:	0141                	addi	sp,sp,16
20000e82:	8082                	ret
20000e84:	01095513          	srli	a0,s2,0x10
20000e88:	0ff57513          	zext.b	a0,a0
20000e8c:	3f45                	jal	20000e3c <FLASH_ROM_OUT>
20000e8e:	0922                	slli	s2,s2,0x8
20000e90:	b7cd                	j	20000e72 <FLASH_ROM_ADDR+0x28>

20000e92 <FLASH_ROM_WAIT>:
FLASH_ROM_WAIT():
20000e92:	1101                	addi	sp,sp,-32
20000e94:	cc26                	sw	s1,24(sp)
20000e96:	ce06                	sw	ra,28(sp)
20000e98:	000804b7          	lui	s1,0x80
20000e9c:	3751                	jal	20000e20 <FLASH_ROM_END>
20000e9e:	4515                	li	a0,5
20000ea0:	37b5                	jal	20000e0c <FLASH_ROM_BEG>
20000ea2:	3771                	jal	20000e2e <FLASH_ROM_IN>
20000ea4:	3769                	jal	20000e2e <FLASH_ROM_IN>
20000ea6:	c62a                	sw	a0,12(sp)
20000ea8:	3fa5                	jal	20000e20 <FLASH_ROM_END>
20000eaa:	4532                	lw	a0,12(sp)
20000eac:	00157793          	andi	a5,a0,1
20000eb0:	eb89                	bnez	a5,20000ec2 <FLASH_ROM_WAIT+0x30>
20000eb2:	00156513          	ori	a0,a0,1
20000eb6:	0ff57513          	zext.b	a0,a0
20000eba:	40f2                	lw	ra,28(sp)
20000ebc:	44e2                	lw	s1,24(sp)
20000ebe:	6105                	addi	sp,sp,32
20000ec0:	8082                	ret
20000ec2:	14fd                	addi	s1,s1,-1 # 7ffff <_data_lma+0x7cb57>
20000ec4:	fce9                	bnez	s1,20000e9e <FLASH_ROM_WAIT+0xc>
20000ec6:	4501                	li	a0,0
20000ec8:	bfcd                	j	20000eba <FLASH_ROM_WAIT+0x28>

20000eca <FLASH_START>:
FLASH_START():
20000eca:	1141                	addi	sp,sp,-16
20000ecc:	c606                	sw	ra,12(sp)
20000ece:	400017b7          	lui	a5,0x40001
20000ed2:	05700713          	li	a4,87
20000ed6:	04e78023          	sb	a4,64(a5) # 40001040 <_eusrstack+0x1fffe040>
20000eda:	fa800713          	li	a4,-88
20000ede:	04e78023          	sb	a4,64(a5)
20000ee2:	0447c703          	lbu	a4,68(a5)
20000ee6:	0ff00513          	li	a0,255
20000eea:	0e076713          	ori	a4,a4,224
20000eee:	04e78223          	sb	a4,68(a5)
20000ef2:	4791                	li	a5,4
20000ef4:	80f40323          	sb	a5,-2042(s0)
20000ef8:	35c5                	jal	20000dd8 <FLASH_ROM_BEG_FF>
20000efa:	40b2                	lw	ra,12(sp)
20000efc:	0141                	addi	sp,sp,16
20000efe:	b70d                	j	20000e20 <FLASH_ROM_END>

20000f00 <FLASH_CMD_ROM_WRITE>:
FLASH_CMD_ROM_WRITE():
20000f00:	1101                	addi	sp,sp,-32
20000f02:	cc26                	sw	s1,24(sp)
20000f04:	ca4a                	sw	s2,20(sp)
20000f06:	c84e                	sw	s3,16(sp)
20000f08:	c652                	sw	s4,12(sp)
20000f0a:	ce06                	sw	ra,28(sp)
20000f0c:	892a                	mv	s2,a0
20000f0e:	89ae                	mv	s3,a1
20000f10:	84b2                	mv	s1,a2
20000f12:	4a55                	li	s4,21
20000f14:	3f5d                	jal	20000eca <FLASH_START>
20000f16:	e891                	bnez	s1,20000f2a <FLASH_CMD_ROM_WRITE+0x2a>
20000f18:	3721                	jal	20000e20 <FLASH_ROM_END>
20000f1a:	40f2                	lw	ra,28(sp)
20000f1c:	8526                	mv	a0,s1
20000f1e:	4952                	lw	s2,20(sp)
20000f20:	44e2                	lw	s1,24(sp)
20000f22:	49c2                	lw	s3,16(sp)
20000f24:	4a32                	lw	s4,12(sp)
20000f26:	6105                	addi	sp,sp,32
20000f28:	8082                	ret
20000f2a:	85ca                	mv	a1,s2
20000f2c:	4509                	li	a0,2
20000f2e:	3f31                	jal	20000e4a <FLASH_ROM_ADDR>
20000f30:	0991                	addi	s3,s3,4
20000f32:	ffc9a703          	lw	a4,-4(s3)
20000f36:	4791                	li	a5,4
20000f38:	80e42023          	sw	a4,-2048(s0)

20000f3c <.loop247>:
20000f3c:	80640703          	lb	a4,-2042(s0)
20000f40:	fe074ee3          	bltz	a4,20000f3c <.loop247>
20000f44:	81440323          	sb	s4,-2042(s0)
20000f48:	17fd                	addi	a5,a5,-1
20000f4a:	fbed                	bnez	a5,20000f3c <.loop247>
20000f4c:	14fd                	addi	s1,s1,-1
20000f4e:	0911                	addi	s2,s2,4
20000f50:	c481                	beqz	s1,20000f58 <.loop247+0x1c>
20000f52:	0ff97793          	zext.b	a5,s2
20000f56:	ffe9                	bnez	a5,20000f30 <FLASH_CMD_ROM_WRITE+0x30>
20000f58:	3f2d                	jal	20000e92 <FLASH_ROM_WAIT>
20000f5a:	fd55                	bnez	a0,20000f16 <FLASH_CMD_ROM_WRITE+0x16>
20000f5c:	54fd                	li	s1,-1
20000f5e:	bf75                	j	20000f1a <FLASH_CMD_ROM_WRITE+0x1a>

20000f60 <FLASH_CMD_ROM_ERASE>:
FLASH_CMD_ROM_ERASE():
20000f60:	1101                	addi	sp,sp,-32
20000f62:	cc26                	sw	s1,24(sp)
20000f64:	ca4a                	sw	s2,20(sp)
20000f66:	c84e                	sw	s3,16(sp)
20000f68:	c652                	sw	s4,12(sp)
20000f6a:	c456                	sw	s5,8(sp)
20000f6c:	c25a                	sw	s6,4(sp)
20000f6e:	ce06                	sw	ra,28(sp)
20000f70:	892a                	mv	s2,a0
20000f72:	8a32                	mv	s4,a2
20000f74:	498d                	li	s3,3
20000f76:	3f91                	jal	20000eca <FLASH_START>
20000f78:	64c1                	lui	s1,0x10
20000f7a:	6ac1                	lui	s5,0x10
20000f7c:	6b05                	lui	s6,0x1
20000f7e:	fff48793          	addi	a5,s1,-1 # ffff <_data_lma+0xcb57>
20000f82:	0127f7b3          	and	a5,a5,s2
20000f86:	e399                	bnez	a5,20000f8c <FLASH_CMD_ROM_ERASE+0x2c>
20000f88:	029a7163          	bgeu	s4,s1,20000faa <FLASH_CMD_ROM_ERASE+0x4a>
20000f8c:	19fd                	addi	s3,s3,-1
20000f8e:	8091                	srli	s1,s1,0x4
20000f90:	fe0997e3          	bnez	s3,20000f7e <FLASH_CMD_ROM_ERASE+0x1e>
20000f94:	3571                	jal	20000e20 <FLASH_ROM_END>
20000f96:	4501                	li	a0,0
20000f98:	40f2                	lw	ra,28(sp)
20000f9a:	44e2                	lw	s1,24(sp)
20000f9c:	4952                	lw	s2,20(sp)
20000f9e:	49c2                	lw	s3,16(sp)
20000fa0:	4a32                	lw	s4,12(sp)
20000fa2:	4aa2                	lw	s5,8(sp)
20000fa4:	4b12                	lw	s6,4(sp)
20000fa6:	6105                	addi	sp,sp,32
20000fa8:	8082                	ret
20000faa:	0d800513          	li	a0,216
20000fae:	01548863          	beq	s1,s5,20000fbe <FLASH_CMD_ROM_ERASE+0x5e>
20000fb2:	02000513          	li	a0,32
20000fb6:	01648463          	beq	s1,s6,20000fbe <FLASH_CMD_ROM_ERASE+0x5e>
20000fba:	08100513          	li	a0,129
20000fbe:	85ca                	mv	a1,s2
20000fc0:	3569                	jal	20000e4a <FLASH_ROM_ADDR>
20000fc2:	3dc1                	jal	20000e92 <FLASH_ROM_WAIT>
20000fc4:	c509                	beqz	a0,20000fce <FLASH_CMD_ROM_ERASE+0x6e>
20000fc6:	9926                	add	s2,s2,s1
20000fc8:	409a0a33          	sub	s4,s4,s1
20000fcc:	bf75                	j	20000f88 <FLASH_CMD_ROM_ERASE+0x28>
20000fce:	557d                	li	a0,-1
20000fd0:	b7e1                	j	20000f98 <FLASH_CMD_ROM_ERASE+0x38>

20000fd2 <FLASH_CMD_ROM_VERIFY>:
FLASH_CMD_ROM_VERIFY():
20000fd2:	1101                	addi	sp,sp,-32
20000fd4:	ce06                	sw	ra,28(sp)
20000fd6:	cc26                	sw	s1,24(sp)
20000fd8:	ca4a                	sw	s2,20(sp)
20000fda:	84b2                	mv	s1,a2
20000fdc:	c84e                	sw	s3,16(sp)
20000fde:	c62a                	sw	a0,12(sp)
20000fe0:	892e                	mv	s2,a1
20000fe2:	35e5                	jal	20000eca <FLASH_START>
20000fe4:	4532                	lw	a0,12(sp)
20000fe6:	14fd                	addi	s1,s1,-1
20000fe8:	59fd                	li	s3,-1
20000fea:	85aa                	mv	a1,a0
20000fec:	452d                	li	a0,11
20000fee:	3db1                	jal	20000e4a <FLASH_ROM_ADDR>
20000ff0:	01349a63          	bne	s1,s3,20001004 <FLASH_CMD_ROM_VERIFY+0x32>
20000ff4:	3535                	jal	20000e20 <FLASH_ROM_END>
20000ff6:	40f2                	lw	ra,28(sp)
20000ff8:	8526                	mv	a0,s1
20000ffa:	4952                	lw	s2,20(sp)
20000ffc:	44e2                	lw	s1,24(sp)
20000ffe:	49c2                	lw	s3,16(sp)
20001000:	6105                	addi	sp,sp,32
20001002:	8082                	ret
20001004:	352d                	jal	20000e2e <FLASH_ROM_IN>
20001006:	0034f793          	andi	a5,s1,3
2000100a:	eb91                	bnez	a5,2000101e <FLASH_CMD_ROM_VERIFY+0x4c>
2000100c:	80042683          	lw	a3,-2048(s0)
20001010:	00092703          	lw	a4,0(s2)
20001014:	00490793          	addi	a5,s2,4
20001018:	fce69ee3          	bne	a3,a4,20000ff4 <FLASH_CMD_ROM_VERIFY+0x22>
2000101c:	893e                	mv	s2,a5
2000101e:	14fd                	addi	s1,s1,-1
20001020:	bfc1                	j	20000ff0 <FLASH_CMD_ROM_VERIFY+0x1e>

20001022 <FLASH_CMD_ROM_PWR>:
FLASH_CMD_ROM_PWR():
20001022:	1101                	addi	sp,sp,-32
20001024:	ce06                	sw	ra,28(sp)
20001026:	c62a                	sw	a0,12(sp)
20001028:	354d                	jal	20000eca <FLASH_START>
2000102a:	4532                	lw	a0,12(sp)
2000102c:	33c5                	jal	20000e0c <FLASH_ROM_BEG>
2000102e:	40f2                	lw	ra,28(sp)
20001030:	6105                	addi	sp,sp,32
20001032:	b3fd                	j	20000e20 <FLASH_ROM_END>

20001034 <FLASH_CMD_GET_ROM_INFO>:
FLASH_CMD_GET_ROM_INFO():
20001034:	1101                	addi	sp,sp,-32
20001036:	ce06                	sw	ra,28(sp)
20001038:	cc26                	sw	s1,24(sp)
2000103a:	ca4a                	sw	s2,20(sp)
2000103c:	c84e                	sw	s3,16(sp)
2000103e:	c652                	sw	s4,12(sp)
20001040:	89aa                	mv	s3,a0
20001042:	c456                	sw	s5,8(sp)
20001044:	892e                	mv	s2,a1
20001046:	3551                	jal	20000eca <FLASH_START>
20001048:	000405b7          	lui	a1,0x40
2000104c:	00b9e5b3          	or	a1,s3,a1
20001050:	452d                	li	a0,11
20001052:	3be5                	jal	20000e4a <FLASH_ROM_ADDR>
20001054:	4481                	li	s1,0
20001056:	4a8d                	li	s5,3
20001058:	4a21                	li	s4,8
2000105a:	3bd1                	jal	20000e2e <FLASH_ROM_IN>
2000105c:	01549663          	bne	s1,s5,20001068 <FLASH_CMD_GET_ROM_INFO+0x34>
20001060:	80042783          	lw	a5,-2048(s0)
20001064:	00f92023          	sw	a5,0(s2)
20001068:	0485                	addi	s1,s1,1
2000106a:	ff4498e3          	bne	s1,s4,2000105a <FLASH_CMD_GET_ROM_INFO+0x26>
2000106e:	80042783          	lw	a5,-2048(s0)
20001072:	01299713          	slli	a4,s3,0x12
20001076:	00075c63          	bgez	a4,2000108e <FLASH_CMD_GET_ROM_INFO+0x5a>
2000107a:	00f91223          	sh	a5,4(s2)
2000107e:	40f2                	lw	ra,28(sp)
20001080:	44e2                	lw	s1,24(sp)
20001082:	4952                	lw	s2,20(sp)
20001084:	49c2                	lw	s3,16(sp)
20001086:	4a32                	lw	s4,12(sp)
20001088:	4aa2                	lw	s5,8(sp)
2000108a:	6105                	addi	sp,sp,32
2000108c:	bb51                	j	20000e20 <FLASH_ROM_END>
2000108e:	00f92223          	sw	a5,4(s2)
20001092:	b7f5                	j	2000107e <FLASH_CMD_GET_ROM_INFO+0x4a>

20001094 <FLASH_CMD_GET_UNIQUE_ID>:
FLASH_CMD_GET_UNIQUE_ID():
20001094:	1141                	addi	sp,sp,-16
20001096:	c606                	sw	ra,12(sp)
20001098:	c426                	sw	s1,8(sp)
2000109a:	c24a                	sw	s2,4(sp)
2000109c:	c04e                	sw	s3,0(sp)
2000109e:	89ae                	mv	s3,a1
200010a0:	352d                	jal	20000eca <FLASH_START>
200010a2:	4581                	li	a1,0
200010a4:	04b00513          	li	a0,75
200010a8:	334d                	jal	20000e4a <FLASH_ROM_ADDR>
200010aa:	44bd                	li	s1,15
200010ac:	597d                	li	s2,-1
200010ae:	3341                	jal	20000e2e <FLASH_ROM_IN>
200010b0:	0074f793          	andi	a5,s1,7
200010b4:	97ce                	add	a5,a5,s3
200010b6:	0007c703          	lbu	a4,0(a5)
200010ba:	14fd                	addi	s1,s1,-1
200010bc:	8d39                	xor	a0,a0,a4
200010be:	00a78023          	sb	a0,0(a5)
200010c2:	ff2496e3          	bne	s1,s2,200010ae <FLASH_CMD_GET_UNIQUE_ID+0x1a>
200010c6:	40b2                	lw	ra,12(sp)
200010c8:	44a2                	lw	s1,8(sp)
200010ca:	4912                	lw	s2,4(sp)
200010cc:	4982                	lw	s3,0(sp)
200010ce:	0141                	addi	sp,sp,16
200010d0:	bb81                	j	20000e20 <FLASH_ROM_END>

200010d2 <FLASH_CMD_ROM_SW_RESET>:
FLASH_CMD_ROM_SW_RESET():
200010d2:	1141                	addi	sp,sp,-16
200010d4:	c606                	sw	ra,12(sp)
200010d6:	3bd5                	jal	20000eca <FLASH_START>
200010d8:	06600513          	li	a0,102
200010dc:	3b05                	jal	20000e0c <FLASH_ROM_BEG>
200010de:	3389                	jal	20000e20 <FLASH_ROM_END>
200010e0:	09900513          	li	a0,153
200010e4:	3325                	jal	20000e0c <FLASH_ROM_BEG>
200010e6:	40b2                	lw	ra,12(sp)
200010e8:	0141                	addi	sp,sp,16
200010ea:	bb1d                	j	20000e20 <FLASH_ROM_END>

Disassembly of section .text:

000010f0 <handle_reset>:
handle_reset():
F:/private/nanoCH57x-private/doc/CH572EVT/EVT/EXAM/SRC/Startup/startup_CH572.S:119
	.weak	handle_reset
	.align	1
handle_reset:
.option push 
.option	norelax 
	la gp, __global_pointer$
    10f0:	20001197          	auipc	gp,0x20001
    10f4:	86018193          	addi	gp,gp,-1952 # 20001950 <__global_pointer$>
F:/private/nanoCH57x-private/doc/CH572EVT/EVT/EXAM/SRC/Startup/startup_CH572.S:121
1:
	la sp, _eusrstack 
    10f8:	20002117          	auipc	sp,0x20002
    10fc:	f0810113          	addi	sp,sp,-248 # 20003000 <_eusrstack>
F:/private/nanoCH57x-private/doc/CH572EVT/EVT/EXAM/SRC/Startup/startup_CH572.S:126
.option	pop

/* Load highcode code  section from flash to RAM */
2:
    la a0, _highcode_lma
    1100:	00400513          	li	a0,4
F:/private/nanoCH57x-private/doc/CH572EVT/EVT/EXAM/SRC/Startup/startup_CH572.S:127
    la a1, _highcode_vma_start
    1104:	1ffff597          	auipc	a1,0x1ffff
    1108:	efc58593          	addi	a1,a1,-260 # 20000000 <_highcode_vma_start>
F:/private/nanoCH57x-private/doc/CH572EVT/EVT/EXAM/SRC/Startup/startup_CH572.S:128
    la a2, _highcode_vma_end
    110c:	20000617          	auipc	a2,0x20000
    1110:	fe060613          	addi	a2,a2,-32 # 200010ec <impure_data>
F:/private/nanoCH57x-private/doc/CH572EVT/EVT/EXAM/SRC/Startup/startup_CH572.S:129
    bgeu a1, a2, 2f
    1114:	00c5fa63          	bgeu	a1,a2,1128 <handle_reset+0x38>
F:/private/nanoCH57x-private/doc/CH572EVT/EVT/EXAM/SRC/Startup/startup_CH572.S:131
1:
    lw t0, (a0)
    1118:	00052283          	lw	t0,0(a0)
F:/private/nanoCH57x-private/doc/CH572EVT/EVT/EXAM/SRC/Startup/startup_CH572.S:132
    sw t0, (a1)
    111c:	0055a023          	sw	t0,0(a1)
F:/private/nanoCH57x-private/doc/CH572EVT/EVT/EXAM/SRC/Startup/startup_CH572.S:133
    addi a0, a0, 4
    1120:	0511                	addi	a0,a0,4
F:/private/nanoCH57x-private/doc/CH572EVT/EVT/EXAM/SRC/Startup/startup_CH572.S:134
    addi a1, a1, 4
    1122:	0591                	addi	a1,a1,4
F:/private/nanoCH57x-private/doc/CH572EVT/EVT/EXAM/SRC/Startup/startup_CH572.S:135
    bltu a1, a2, 1b
    1124:	fec5eae3          	bltu	a1,a2,1118 <handle_reset+0x28>
F:/private/nanoCH57x-private/doc/CH572EVT/EVT/EXAM/SRC/Startup/startup_CH572.S:139

/* Load data section from flash to RAM */
2:
	la a0, _data_lma
    1128:	00002517          	auipc	a0,0x2
    112c:	38050513          	addi	a0,a0,896 # 34a8 <_data_lma>
F:/private/nanoCH57x-private/doc/CH572EVT/EVT/EXAM/SRC/Startup/startup_CH572.S:140
	la a1, _data_vma
    1130:	20000597          	auipc	a1,0x20000
    1134:	fbc58593          	addi	a1,a1,-68 # 200010ec <impure_data>
F:/private/nanoCH57x-private/doc/CH572EVT/EVT/EXAM/SRC/Startup/startup_CH572.S:141
	la a2, _edata
    1138:	80c18613          	addi	a2,gp,-2036 # 2000115c <Freq_LSI>
F:/private/nanoCH57x-private/doc/CH572EVT/EVT/EXAM/SRC/Startup/startup_CH572.S:142
	bgeu a1, a2, 2f
    113c:	00c5fa63          	bgeu	a1,a2,1150 <handle_reset+0x60>
F:/private/nanoCH57x-private/doc/CH572EVT/EVT/EXAM/SRC/Startup/startup_CH572.S:144
1:
	lw t0, (a0)
    1140:	00052283          	lw	t0,0(a0)
F:/private/nanoCH57x-private/doc/CH572EVT/EVT/EXAM/SRC/Startup/startup_CH572.S:145
	sw t0, (a1)
    1144:	0055a023          	sw	t0,0(a1)
F:/private/nanoCH57x-private/doc/CH572EVT/EVT/EXAM/SRC/Startup/startup_CH572.S:146
	addi a0, a0, 4
    1148:	0511                	addi	a0,a0,4
F:/private/nanoCH57x-private/doc/CH572EVT/EVT/EXAM/SRC/Startup/startup_CH572.S:147
	addi a1, a1, 4
    114a:	0591                	addi	a1,a1,4
F:/private/nanoCH57x-private/doc/CH572EVT/EVT/EXAM/SRC/Startup/startup_CH572.S:148
	bltu a1, a2, 1b
    114c:	fec5eae3          	bltu	a1,a2,1140 <handle_reset+0x50>
F:/private/nanoCH57x-private/doc/CH572EVT/EVT/EXAM/SRC/Startup/startup_CH572.S:151
2:
	/* clear bss section */
	la a0, _sbss
    1150:	80c18513          	addi	a0,gp,-2036 # 2000115c <Freq_LSI>
F:/private/nanoCH57x-private/doc/CH572EVT/EVT/EXAM/SRC/Startup/startup_CH572.S:152
	la a1, _ebss
    1154:	9e018593          	addi	a1,gp,-1568 # 20001330 <_ebss>
F:/private/nanoCH57x-private/doc/CH572EVT/EVT/EXAM/SRC/Startup/startup_CH572.S:153
	bgeu a0, a1, 2f
    1158:	00b57763          	bgeu	a0,a1,1166 <handle_reset+0x76>
F:/private/nanoCH57x-private/doc/CH572EVT/EVT/EXAM/SRC/Startup/startup_CH572.S:155
1:
	sw zero, (a0)
    115c:	00052023          	sw	zero,0(a0)
F:/private/nanoCH57x-private/doc/CH572EVT/EVT/EXAM/SRC/Startup/startup_CH572.S:156
	addi a0, a0, 4
    1160:	0511                	addi	a0,a0,4
F:/private/nanoCH57x-private/doc/CH572EVT/EVT/EXAM/SRC/Startup/startup_CH572.S:157
	bltu a0, a1, 1b
    1162:	feb56de3          	bltu	a0,a1,115c <handle_reset+0x6c>
F:/private/nanoCH57x-private/doc/CH572EVT/EVT/EXAM/SRC/Startup/startup_CH572.S:161
2:
	/*  */
	/**/
	li t0, 0x25
    1166:	02500293          	li	t0,37
F:/private/nanoCH57x-private/doc/CH572EVT/EVT/EXAM/SRC/Startup/startup_CH572.S:162
	csrw 0xbc0, t0
    116a:	bc029073          	csrw	0xbc0,t0
F:/private/nanoCH57x-private/doc/CH572EVT/EVT/EXAM/SRC/Startup/startup_CH572.S:164
	/*  */
	li t0, 0x3
    116e:	428d                	li	t0,3
F:/private/nanoCH57x-private/doc/CH572EVT/EVT/EXAM/SRC/Startup/startup_CH572.S:165
	csrw 0x804, t0
    1170:	80429073          	csrw	0x804,t0
F:/private/nanoCH57x-private/doc/CH572EVT/EVT/EXAM/SRC/Startup/startup_CH572.S:166
	li t0, 0x1
    1174:	4285                	li	t0,1
F:/private/nanoCH57x-private/doc/CH572EVT/EVT/EXAM/SRC/Startup/startup_CH572.S:167
	csrw 0xbc1, t0
    1176:	bc129073          	csrw	0xbc1,t0
F:/private/nanoCH57x-private/doc/CH572EVT/EVT/EXAM/SRC/Startup/startup_CH572.S:169
	
    li t0, 0x88
    117a:	08800293          	li	t0,136
F:/private/nanoCH57x-private/doc/CH572EVT/EVT/EXAM/SRC/Startup/startup_CH572.S:170
    csrw mstatus, t0
    117e:	30029073          	csrw	mstatus,t0
F:/private/nanoCH57x-private/doc/CH572EVT/EVT/EXAM/SRC/Startup/startup_CH572.S:171
	la t0, _vector_base
    1182:	1ffff297          	auipc	t0,0x1ffff
    1186:	e7e28293          	addi	t0,t0,-386 # 20000000 <_highcode_vma_start>
F:/private/nanoCH57x-private/doc/CH572EVT/EVT/EXAM/SRC/Startup/startup_CH572.S:174

	/*  */
    ori t0, t0, 3
    118a:	0032e293          	ori	t0,t0,3
F:/private/nanoCH57x-private/doc/CH572EVT/EVT/EXAM/SRC/Startup/startup_CH572.S:175
	csrw mtvec, t0
    118e:	30529073          	csrw	mtvec,t0
F:/private/nanoCH57x-private/doc/CH572EVT/EVT/EXAM/SRC/Startup/startup_CH572.S:177

	la t0, main
    1192:	00000297          	auipc	t0,0x0
    1196:	23c28293          	addi	t0,t0,572 # 13ce <main>
F:/private/nanoCH57x-private/doc/CH572EVT/EVT/EXAM/SRC/Startup/startup_CH572.S:178
	csrw mepc, t0
    119a:	34129073          	csrw	mepc,t0
F:/private/nanoCH57x-private/doc/CH572EVT/EVT/EXAM/SRC/Startup/startup_CH572.S:180
	
	mret
    119e:	30200073          	mret

000011a2 <memset>:
memset():
    11a2:	832a                	mv	t1,a0
    11a4:	c611                	beqz	a2,11b0 <memset+0xe>
    11a6:	00b30023          	sb	a1,0(t1)
    11aa:	167d                	addi	a2,a2,-1
    11ac:	0305                	addi	t1,t1,1
    11ae:	fe65                	bnez	a2,11a6 <memset+0x4>
    11b0:	8082                	ret

000011b2 <HSECFG_Capacitance>:
HSECFG_Capacitance():
F:/private/nanoCH57x-private/doc/CH572EVT/EVT/EXAM/SRC/StdPeriphDriver/CH57x_clk.c:81
 */
void HSECFG_Capacitance(HSECapTypeDef c)
{
    uint8_t x32M_c;

    x32M_c = R8_XT32M_TUNE;
    11b2:	40001737          	lui	a4,0x40001
    11b6:	04e74783          	lbu	a5,78(a4) # 4000104e <_eusrstack+0x1fffe04e>
F:/private/nanoCH57x-private/doc/CH572EVT/EVT/EXAM/SRC/StdPeriphDriver/CH57x_clk.c:82
    x32M_c = (x32M_c & 0x0f) | (c << 4);
    11ba:	0512                	slli	a0,a0,0x4
F:/private/nanoCH57x-private/doc/CH572EVT/EVT/EXAM/SRC/StdPeriphDriver/CH57x_clk.c:78
{
    11bc:	1141                	addi	sp,sp,-16
F:/private/nanoCH57x-private/doc/CH572EVT/EVT/EXAM/SRC/StdPeriphDriver/CH57x_clk.c:82
    x32M_c = (x32M_c & 0x0f) | (c << 4);
    11be:	8bbd                	andi	a5,a5,15
    11c0:	8fc9                	or	a5,a5,a0
    11c2:	0ff7f793          	zext.b	a5,a5
__risc_v_disable_irq():
F:\private\nanoCH57x-private\doc\CH572EVT\EVT\EXAM\SRC\RVMSIS/core_riscv.h:154
    __asm volatile("csrrc %0, 0x800, %1" : \
    11c6:	08800693          	li	a3,136
    11ca:	8006b6f3          	csrrc	a3,0x800,a3
F:\private\nanoCH57x-private\doc\CH572EVT\EVT\EXAM\SRC\RVMSIS/core_riscv.h:156
    return result & 0x88;
    11ce:	0886f693          	andi	a3,a3,136
HSECFG_Capacitance():
F:/private/nanoCH57x-private/doc/CH572EVT/EVT/EXAM/SRC/StdPeriphDriver/CH57x_clk.c:84

    sys_safe_access_enable();
    11d2:	c636                	sw	a3,12(sp)
    11d4:	0000100f          	fence.i
    11d8:	05700693          	li	a3,87
    11dc:	04d70023          	sb	a3,64(a4)
    11e0:	fa800693          	li	a3,-88
    11e4:	04d70023          	sb	a3,64(a4)
    11e8:	0000100f          	fence.i
F:/private/nanoCH57x-private/doc/CH572EVT/EVT/EXAM/SRC/StdPeriphDriver/CH57x_clk.c:85
    R8_XT32M_TUNE = x32M_c;
    11ec:	04f70723          	sb	a5,78(a4)
F:/private/nanoCH57x-private/doc/CH572EVT/EVT/EXAM/SRC/StdPeriphDriver/CH57x_clk.c:86
    sys_safe_access_disable();
    11f0:	04070023          	sb	zero,64(a4)
    11f4:	47b2                	lw	a5,12(sp)
__risc_v_enable_irq():
F:\private\nanoCH57x-private\doc\CH572EVT\EVT\EXAM\SRC\RVMSIS/core_riscv.h:138
    __asm volatile("csrrs %0, 0x800, %1" : \
    11f6:	8007a7f3          	csrrs	a5,0x800,a5
HSECFG_Capacitance():
F:/private/nanoCH57x-private/doc/CH572EVT/EVT/EXAM/SRC/StdPeriphDriver/CH57x_clk.c:86
    11fa:	0000100f          	fence.i
F:/private/nanoCH57x-private/doc/CH572EVT/EVT/EXAM/SRC/StdPeriphDriver/CH57x_clk.c:87
}
    11fe:	0141                	addi	sp,sp,16
    1200:	8082                	ret

00001202 <GPIOA_ModeCfg>:
GPIOA_ModeCfg():
F:/private/nanoCH57x-private/doc/CH572EVT/EVT/EXAM/SRC/StdPeriphDriver/CH57x_gpio.c:27
 *
 * @return  none
 */
void GPIOA_ModeCfg(uint32_t pin, GPIOModeTypeDef mode)
{
    switch(mode)
    1202:	4791                	li	a5,4
    1204:	04b7ec63          	bltu	a5,a1,125c <GPIOA_ModeCfg+0x5a>
    1208:	00002797          	auipc	a5,0x2
    120c:	11878793          	addi	a5,a5,280 # 3320 <_read+0xe>
    1210:	20f5c5b3          	sh2add	a1,a1,a5
    1214:	4198                	lw	a4,0(a1)
    1216:	973e                	add	a4,a4,a5
    1218:	400017b7          	lui	a5,0x40001
    121c:	0b478793          	addi	a5,a5,180 # 400010b4 <_eusrstack+0x1fffe0b4>
    1220:	8702                	jr	a4
F:/private/nanoCH57x-private/doc/CH572EVT/EVT/EXAM/SRC/StdPeriphDriver/CH57x_gpio.c:30
    {
        case GPIO_ModeIN_Floating:
            R32_PA_PD_DRV &= ~pin;
    1222:	4394                	lw	a3,0(a5)
    1224:	40001737          	lui	a4,0x40001
    1228:	40a6f6b3          	andn	a3,a3,a0
F:/private/nanoCH57x-private/doc/CH572EVT/EVT/EXAM/SRC/StdPeriphDriver/CH57x_gpio.c:42
            R32_PA_PU |= pin;
            R32_PA_DIR &= ~pin;
            break;

        case GPIO_ModeIN_PD:
            R32_PA_PD_DRV |= pin;
    122c:	c394                	sw	a3,0(a5)
F:/private/nanoCH57x-private/doc/CH572EVT/EVT/EXAM/SRC/StdPeriphDriver/CH57x_gpio.c:43
            R32_PA_PU &= ~pin;
    122e:	0b070693          	addi	a3,a4,176 # 400010b0 <_eusrstack+0x1fffe0b0>
    1232:	429c                	lw	a5,0(a3)
    1234:	40a7f7b3          	andn	a5,a5,a0
    1238:	a819                	j	124e <GPIOA_ModeCfg+0x4c>
F:/private/nanoCH57x-private/doc/CH572EVT/EVT/EXAM/SRC/StdPeriphDriver/CH57x_gpio.c:36
            R32_PA_PD_DRV &= ~pin;
    123a:	4394                	lw	a3,0(a5)
    123c:	40001737          	lui	a4,0x40001
    1240:	40a6f6b3          	andn	a3,a3,a0
    1244:	c394                	sw	a3,0(a5)
F:/private/nanoCH57x-private/doc/CH572EVT/EVT/EXAM/SRC/StdPeriphDriver/CH57x_gpio.c:37
            R32_PA_PU |= pin;
    1246:	0b070693          	addi	a3,a4,176 # 400010b0 <_eusrstack+0x1fffe0b0>
    124a:	429c                	lw	a5,0(a3)
    124c:	8fc9                	or	a5,a5,a0
F:/private/nanoCH57x-private/doc/CH572EVT/EVT/EXAM/SRC/StdPeriphDriver/CH57x_gpio.c:43
            R32_PA_PU &= ~pin;
    124e:	c29c                	sw	a5,0(a3)
F:/private/nanoCH57x-private/doc/CH572EVT/EVT/EXAM/SRC/StdPeriphDriver/CH57x_gpio.c:44
            R32_PA_DIR &= ~pin;
    1250:	0a070793          	addi	a5,a4,160
    1254:	4398                	lw	a4,0(a5)
    1256:	40a77733          	andn	a4,a4,a0
F:/private/nanoCH57x-private/doc/CH572EVT/EVT/EXAM/SRC/StdPeriphDriver/CH57x_gpio.c:54
            R32_PA_DIR |= pin;
            break;

        case GPIO_ModeOut_PP_20mA:
            R32_PA_PD_DRV |= pin;
            R32_PA_DIR |= pin;
    125a:	c398                	sw	a4,0(a5)
F:/private/nanoCH57x-private/doc/CH572EVT/EVT/EXAM/SRC/StdPeriphDriver/CH57x_gpio.c:60
            break;

        default:
            break;
    }
}
    125c:	8082                	ret
F:/private/nanoCH57x-private/doc/CH572EVT/EVT/EXAM/SRC/StdPeriphDriver/CH57x_gpio.c:42
            R32_PA_PD_DRV |= pin;
    125e:	4394                	lw	a3,0(a5)
    1260:	40001737          	lui	a4,0x40001
    1264:	8ec9                	or	a3,a3,a0
    1266:	b7d9                	j	122c <GPIOA_ModeCfg+0x2a>
F:/private/nanoCH57x-private/doc/CH572EVT/EVT/EXAM/SRC/StdPeriphDriver/CH57x_gpio.c:48
            R32_PA_PD_DRV &= ~pin;
    1268:	4398                	lw	a4,0(a5)
    126a:	40a77733          	andn	a4,a4,a0
F:/private/nanoCH57x-private/doc/CH572EVT/EVT/EXAM/SRC/StdPeriphDriver/CH57x_gpio.c:53
            R32_PA_PD_DRV |= pin;
    126e:	c398                	sw	a4,0(a5)
F:/private/nanoCH57x-private/doc/CH572EVT/EVT/EXAM/SRC/StdPeriphDriver/CH57x_gpio.c:54
            R32_PA_DIR |= pin;
    1270:	400017b7          	lui	a5,0x40001
    1274:	0a078793          	addi	a5,a5,160 # 400010a0 <_eusrstack+0x1fffe0a0>
    1278:	4398                	lw	a4,0(a5)
    127a:	8f49                	or	a4,a4,a0
    127c:	bff9                	j	125a <GPIOA_ModeCfg+0x58>
F:/private/nanoCH57x-private/doc/CH572EVT/EVT/EXAM/SRC/StdPeriphDriver/CH57x_gpio.c:53
            R32_PA_PD_DRV |= pin;
    127e:	4398                	lw	a4,0(a5)
    1280:	8f49                	or	a4,a4,a0
    1282:	b7f5                	j	126e <GPIOA_ModeCfg+0x6c>

00001284 <GetSysClock>:
GetSysClock():
F:/private/nanoCH57x-private/doc/CH572EVT/EVT/EXAM/SRC/StdPeriphDriver/CH57x_sys.c:101
    if((R8_CLK_SYS_CFG & RB_CLK_SYS_MOD) == RB_CLK_SYS_MOD)
    1284:	400017b7          	lui	a5,0x40001
    1288:	2798                	lbu	a4,8(a5)
    128a:	0c000693          	li	a3,192
    128e:	0c077713          	andi	a4,a4,192
    1292:	00d71563          	bne	a4,a3,129c <GetSysClock+0x18>
F:/private/nanoCH57x-private/doc/CH572EVT/EVT/EXAM/SRC/StdPeriphDriver/CH57x_sys.c:103
        return (Freq_LSI);
    1296:	80c1a503          	lw	a0,-2036(gp) # 2000115c <Freq_LSI>
    129a:	8082                	ret
F:/private/nanoCH57x-private/doc/CH572EVT/EVT/EXAM/SRC/StdPeriphDriver/CH57x_sys.c:105
    else if((R8_CLK_SYS_CFG & RB_CLK_SYS_MOD) == 0x40)
    129c:	2798                	lbu	a4,8(a5)
    129e:	04000693          	li	a3,64
    12a2:	0c077713          	andi	a4,a4,192
    12a6:	02d71063          	bne	a4,a3,12c6 <GetSysClock+0x42>
F:/private/nanoCH57x-private/doc/CH572EVT/EVT/EXAM/SRC/StdPeriphDriver/CH57x_sys.c:107
        return (600000000 / ((R8_CLK_SYS_CFG & 0x1f)?(R8_CLK_SYS_CFG & 0x1f):32));
    12aa:	2794                	lbu	a3,8(a5)
    12ac:	02000713          	li	a4,32
    12b0:	8afd                	andi	a3,a3,31
    12b2:	c299                	beqz	a3,12b8 <GetSysClock+0x34>
F:/private/nanoCH57x-private/doc/CH572EVT/EVT/EXAM/SRC/StdPeriphDriver/CH57x_sys.c:107 (discriminator 1)
    12b4:	2798                	lbu	a4,8(a5)
    12b6:	8b7d                	andi	a4,a4,31
F:/private/nanoCH57x-private/doc/CH572EVT/EVT/EXAM/SRC/StdPeriphDriver/CH57x_sys.c:107 (discriminator 4)
    12b8:	23c34537          	lui	a0,0x23c34
    12bc:	60050513          	addi	a0,a0,1536 # 23c34600 <_eusrstack+0x3c31600>
F:/private/nanoCH57x-private/doc/CH572EVT/EVT/EXAM/SRC/StdPeriphDriver/CH57x_sys.c:111 (discriminator 4)
        return (32000000 / ((R8_CLK_SYS_CFG & 0x1f)?(R8_CLK_SYS_CFG & 0x1f):32));
    12c0:	02e54533          	div	a0,a0,a4
F:/private/nanoCH57x-private/doc/CH572EVT/EVT/EXAM/SRC/StdPeriphDriver/CH57x_sys.c:113 (discriminator 4)
}
    12c4:	8082                	ret
F:/private/nanoCH57x-private/doc/CH572EVT/EVT/EXAM/SRC/StdPeriphDriver/CH57x_sys.c:111
        return (32000000 / ((R8_CLK_SYS_CFG & 0x1f)?(R8_CLK_SYS_CFG & 0x1f):32));
    12c6:	2794                	lbu	a3,8(a5)
    12c8:	02000713          	li	a4,32
    12cc:	8afd                	andi	a3,a3,31
    12ce:	c299                	beqz	a3,12d4 <GetSysClock+0x50>
F:/private/nanoCH57x-private/doc/CH572EVT/EVT/EXAM/SRC/StdPeriphDriver/CH57x_sys.c:111 (discriminator 1)
    12d0:	2798                	lbu	a4,8(a5)
    12d2:	8b7d                	andi	a4,a4,31
F:/private/nanoCH57x-private/doc/CH572EVT/EVT/EXAM/SRC/StdPeriphDriver/CH57x_sys.c:111 (discriminator 4)
    12d4:	01e85537          	lui	a0,0x1e85
    12d8:	80050513          	addi	a0,a0,-2048 # 1e84800 <_data_lma+0x1e81358>
    12dc:	b7d5                	j	12c0 <GetSysClock+0x3c>

000012de <_write>:
_write():
F:/private/nanoCH57x-private/doc/CH572EVT/EVT/EXAM/SRC/StdPeriphDriver/CH57x_sys.c:375
    }while(--t);
}

#ifdef DEBUG
int _write(int fd, char *buf, int size)
{
    12de:	8532                	mv	a0,a2
F:/private/nanoCH57x-private/doc/CH572EVT/EVT/EXAM/SRC/StdPeriphDriver/CH57x_sys.c:377
    int i;
    for(i = 0; i < size; i++)
    12e0:	4781                	li	a5,0
F:/private/nanoCH57x-private/doc/CH572EVT/EVT/EXAM/SRC/StdPeriphDriver/CH57x_sys.c:379
    {
        while(R8_UART_TFC == UART_FIFO_SIZE);                  /*  */
    12e2:	40003737          	lui	a4,0x40003
    12e6:	46a1                	li	a3,8
F:/private/nanoCH57x-private/doc/CH572EVT/EVT/EXAM/SRC/StdPeriphDriver/CH57x_sys.c:377 (discriminator 1)
    for(i = 0; i < size; i++)
    12e8:	00a7c363          	blt	a5,a0,12ee <_write+0x10>
F:/private/nanoCH57x-private/doc/CH572EVT/EVT/EXAM/SRC/StdPeriphDriver/CH57x_sys.c:383
            R8_UART_THR = *buf++; /*  */
    }
    return size;
}
    12ec:	8082                	ret
F:/private/nanoCH57x-private/doc/CH572EVT/EVT/EXAM/SRC/StdPeriphDriver/CH57x_sys.c:379 (discriminator 1)
        while(R8_UART_TFC == UART_FIFO_SIZE);                  /*  */
    12ee:	40b74603          	lbu	a2,1035(a4) # 4000340b <_eusrstack+0x2000040b>
    12f2:	fed60ee3          	beq	a2,a3,12ee <_write+0x10>
F:/private/nanoCH57x-private/doc/CH572EVT/EVT/EXAM/SRC/StdPeriphDriver/CH57x_sys.c:380 (discriminator 2)
            R8_UART_THR = *buf++; /*  */
    12f6:	00f58633          	add	a2,a1,a5
    12fa:	2210                	lbu	a2,0(a2)
F:/private/nanoCH57x-private/doc/CH572EVT/EVT/EXAM/SRC/StdPeriphDriver/CH57x_sys.c:377 (discriminator 2)
    for(i = 0; i < size; i++)
    12fc:	0785                	addi	a5,a5,1 # 40001001 <_eusrstack+0x1fffe001>
F:/private/nanoCH57x-private/doc/CH572EVT/EVT/EXAM/SRC/StdPeriphDriver/CH57x_sys.c:380 (discriminator 2)
            R8_UART_THR = *buf++; /*  */
    12fe:	40c70423          	sb	a2,1032(a4)
F:/private/nanoCH57x-private/doc/CH572EVT/EVT/EXAM/SRC/StdPeriphDriver/CH57x_sys.c:377 (discriminator 2)
    for(i = 0; i < size; i++)
    1302:	b7dd                	j	12e8 <_write+0xa>

00001304 <_sbrk>:
_sbrk():
F:/private/nanoCH57x-private/doc/CH572EVT/EVT/EXAM/SRC/StdPeriphDriver/CH57x_sys.c:400
void *_sbrk(ptrdiff_t incr)
{
    extern char _end[];
    static char *curbrk = _end;

    if ((curbrk + incr < _end) || ((uint32_t)curbrk + incr > (__get_SP() - 64)))
    1304:	20000697          	auipc	a3,0x20000
    1308:	e4c68693          	addi	a3,a3,-436 # 20001150 <curbrk.0>
F:/private/nanoCH57x-private/doc/CH572EVT/EVT/EXAM/SRC/StdPeriphDriver/CH57x_sys.c:396
{
    130c:	87aa                	mv	a5,a0
F:/private/nanoCH57x-private/doc/CH572EVT/EVT/EXAM/SRC/StdPeriphDriver/CH57x_sys.c:400
    if ((curbrk + incr < _end) || ((uint32_t)curbrk + incr > (__get_SP() - 64)))
    130e:	4288                	lw	a0,0(a3)
    1310:	9e018713          	addi	a4,gp,-1568 # 20001330 <_ebss>
    1314:	97aa                	add	a5,a5,a0
    1316:	00e7e963          	bltu	a5,a4,1328 <_sbrk+0x24>
__get_SP():
F:\private\nanoCH57x-private\doc\CH572EVT\EVT\EXAM\SRC\RVMSIS/core_riscv.h:630 (discriminator 1)
 */
__attribute__((always_inline)) RV_STATIC_INLINE uint32_t __get_SP(void)
{
    uint32_t result;

    __ASM volatile("mv %0," "sp" : "=r"(result) :);
    131a:	870a                	mv	a4,sp
_sbrk():
F:/private/nanoCH57x-private/doc/CH572EVT/EVT/EXAM/SRC/StdPeriphDriver/CH57x_sys.c:400 (discriminator 1)
    131c:	fc070713          	addi	a4,a4,-64
    1320:	00f76463          	bltu	a4,a5,1328 <_sbrk+0x24>
F:/private/nanoCH57x-private/doc/CH572EVT/EVT/EXAM/SRC/StdPeriphDriver/CH57x_sys.c:403
    return NULL - 1;

    curbrk += incr;
    1324:	c29c                	sw	a5,0(a3)
F:/private/nanoCH57x-private/doc/CH572EVT/EVT/EXAM/SRC/StdPeriphDriver/CH57x_sys.c:404
    return curbrk - incr;
    1326:	8082                	ret
F:/private/nanoCH57x-private/doc/CH572EVT/EVT/EXAM/SRC/StdPeriphDriver/CH57x_sys.c:401
    return NULL - 1;
    1328:	557d                	li	a0,-1
F:/private/nanoCH57x-private/doc/CH572EVT/EVT/EXAM/SRC/StdPeriphDriver/CH57x_sys.c:405
}
    132a:	8082                	ret

0000132c <TMR_TimerInit>:
TMR_TimerInit():
F:/private/nanoCH57x-private/doc/CH572EVT/EVT/EXAM/SRC/StdPeriphDriver/CH57x_timer.c:26
 *
 * @return  none
 */
void TMR_TimerInit(uint32_t t)
{
    R32_TMR_CNT_END = t;
    132c:	400027b7          	lui	a5,0x40002
    1330:	40c78713          	addi	a4,a5,1036 # 4000240c <_eusrstack+0x1ffff40c>
    1334:	c308                	sw	a0,0(a4)
F:/private/nanoCH57x-private/doc/CH572EVT/EVT/EXAM/SRC/StdPeriphDriver/CH57x_timer.c:27
    R8_TMR_CTRL_MOD = RB_TMR_ALL_CLEAR;
    1336:	4709                	li	a4,2
    1338:	40e78023          	sb	a4,1024(a5)
F:/private/nanoCH57x-private/doc/CH572EVT/EVT/EXAM/SRC/StdPeriphDriver/CH57x_timer.c:28
    R8_TMR_CTRL_MOD = RB_TMR_COUNT_EN;
    133c:	4711                	li	a4,4
    133e:	40e78023          	sb	a4,1024(a5)
F:/private/nanoCH57x-private/doc/CH572EVT/EVT/EXAM/SRC/StdPeriphDriver/CH57x_timer.c:29
}
    1342:	8082                	ret

00001344 <UART_BaudRateCfg>:
UART_BaudRateCfg():
F:/private/nanoCH57x-private/doc/CH572EVT/EVT/EXAM/SRC/StdPeriphDriver/CH57x_uart.c:43
 * @param   baudrate    - 
 *
 * @return  none
 */
void UART_BaudRateCfg(uint32_t baudrate)
{
    1344:	1141                	addi	sp,sp,-16
    1346:	c422                	sw	s0,8(sp)
    1348:	c606                	sw	ra,12(sp)
    134a:	842a                	mv	s0,a0
F:/private/nanoCH57x-private/doc/CH572EVT/EVT/EXAM/SRC/StdPeriphDriver/CH57x_uart.c:46
    uint32_t x;

    x = 10 * GetSysClock() / 8 / baudrate;
    134c:	3f25                	jal	1284 <GetSysClock>
    134e:	4729                	li	a4,10
    1350:	02e507b3          	mul	a5,a0,a4
F:/private/nanoCH57x-private/doc/CH572EVT/EVT/EXAM/SRC/StdPeriphDriver/CH57x_uart.c:49
    x = (x + 5) / 10;
    R16_UART_DL = (uint16_t)x;
}
    1354:	40b2                	lw	ra,12(sp)
F:/private/nanoCH57x-private/doc/CH572EVT/EVT/EXAM/SRC/StdPeriphDriver/CH57x_uart.c:46
    x = 10 * GetSysClock() / 8 / baudrate;
    1356:	838d                	srli	a5,a5,0x3
    1358:	0287d7b3          	divu	a5,a5,s0
F:/private/nanoCH57x-private/doc/CH572EVT/EVT/EXAM/SRC/StdPeriphDriver/CH57x_uart.c:49
}
    135c:	4422                	lw	s0,8(sp)
F:/private/nanoCH57x-private/doc/CH572EVT/EVT/EXAM/SRC/StdPeriphDriver/CH57x_uart.c:47
    x = (x + 5) / 10;
    135e:	0795                	addi	a5,a5,5
    1360:	02e7d7b3          	divu	a5,a5,a4
F:/private/nanoCH57x-private/doc/CH572EVT/EVT/EXAM/SRC/StdPeriphDriver/CH57x_uart.c:48
    R16_UART_DL = (uint16_t)x;
    1364:	40003737          	lui	a4,0x40003
    1368:	0807c7b3          	zext.h	a5,a5
    136c:	40f71623          	sh	a5,1036(a4) # 4000340c <_eusrstack+0x2000040c>
F:/private/nanoCH57x-private/doc/CH572EVT/EVT/EXAM/SRC/StdPeriphDriver/CH57x_uart.c:49
}
    1370:	0141                	addi	sp,sp,16
    1372:	8082                	ret

00001374 <UART_DefInit>:
UART_DefInit():
F:/private/nanoCH57x-private/doc/CH572EVT/EVT/EXAM/SRC/StdPeriphDriver/CH57x_uart.c:26
    UART_BaudRateCfg(115200);
    1374:	6571                	lui	a0,0x1c
F:/private/nanoCH57x-private/doc/CH572EVT/EVT/EXAM/SRC/StdPeriphDriver/CH57x_uart.c:25
{
    1376:	1141                	addi	sp,sp,-16
F:/private/nanoCH57x-private/doc/CH572EVT/EVT/EXAM/SRC/StdPeriphDriver/CH57x_uart.c:26
    UART_BaudRateCfg(115200);
    1378:	20050513          	addi	a0,a0,512 # 1c200 <_data_lma+0x18d58>
F:/private/nanoCH57x-private/doc/CH572EVT/EVT/EXAM/SRC/StdPeriphDriver/CH57x_uart.c:25
{
    137c:	c606                	sw	ra,12(sp)
F:/private/nanoCH57x-private/doc/CH572EVT/EVT/EXAM/SRC/StdPeriphDriver/CH57x_uart.c:26
    UART_BaudRateCfg(115200);
    137e:	37d9                	jal	1344 <UART_BaudRateCfg>
F:/private/nanoCH57x-private/doc/CH572EVT/EVT/EXAM/SRC/StdPeriphDriver/CH57x_uart.c:27
    R8_UART_FCR = (2 << 6) | RB_FCR_FIFO_EN; // FIFO4
    1380:	400037b7          	lui	a5,0x40003
    1384:	f8100713          	li	a4,-127
    1388:	40e78123          	sb	a4,1026(a5) # 40003402 <_eusrstack+0x20000402>
F:/private/nanoCH57x-private/doc/CH572EVT/EVT/EXAM/SRC/StdPeriphDriver/CH57x_uart.c:28
    R8_UART_LCR = RB_LCR_WORD_SZ;
    138c:	470d                	li	a4,3
    138e:	40e781a3          	sb	a4,1027(a5)
F:/private/nanoCH57x-private/doc/CH572EVT/EVT/EXAM/SRC/StdPeriphDriver/CH57x_uart.c:29
    R8_UART_IER = RB_IER_TXD_EN;
    1392:	04000713          	li	a4,64
    1396:	40e780a3          	sb	a4,1025(a5)
F:/private/nanoCH57x-private/doc/CH572EVT/EVT/EXAM/SRC/StdPeriphDriver/CH57x_uart.c:30
    R8_UART_DIV = 1;
    139a:	4705                	li	a4,1
    139c:	40e78723          	sb	a4,1038(a5)
F:/private/nanoCH57x-private/doc/CH572EVT/EVT/EXAM/SRC/StdPeriphDriver/CH57x_uart.c:31
}
    13a0:	40b2                	lw	ra,12(sp)
    13a2:	0141                	addi	sp,sp,16
    13a4:	8082                	ret

000013a6 <UART_Remap>:
UART_Remap():
F:/private/nanoCH57x-private/doc/CH572EVT/EVT/EXAM/SRC/StdPeriphDriver/CH57x_uart.c:153
 */
void UART_Remap(FunctionalState s, UARTTxPinRemapDef u_tx, UARTRxPinRemapDef u_rx)
{
    if(s)
    {
        R16_PIN_ALTERNATE_H &= ~(RB_UART_TXD | RB_UART_RXD); // ShutDown0
    13a6:	40001737          	lui	a4,0x40001
    13aa:	2f3e                	lhu	a5,26(a4)
    13ac:	0807c7b3          	zext.h	a5,a5
    13b0:	fc07f793          	andi	a5,a5,-64
    13b4:	0807c7b3          	zext.h	a5,a5
    13b8:	af3e                	sh	a5,26(a4)
F:/private/nanoCH57x-private/doc/CH572EVT/EVT/EXAM/SRC/StdPeriphDriver/CH57x_uart.c:151
    if(s)
    13ba:	c909                	beqz	a0,13cc <UART_Remap+0x26>
F:/private/nanoCH57x-private/doc/CH572EVT/EVT/EXAM/SRC/StdPeriphDriver/CH57x_uart.c:154
        R16_PIN_ALTERNATE_H |= (u_tx << 3) | u_rx;
    13bc:	2f3e                	lhu	a5,26(a4)
    13be:	058e                	slli	a1,a1,0x3
    13c0:	8e5d                	or	a2,a2,a5
    13c2:	8dd1                	or	a1,a1,a2
    13c4:	0805c5b3          	zext.h	a1,a1
    13c8:	af2e                	sh	a1,26(a4)
    13ca:	8082                	ret
F:/private/nanoCH57x-private/doc/CH572EVT/EVT/EXAM/SRC/StdPeriphDriver/CH57x_uart.c:160
    }
    else
    {
        R16_PIN_ALTERNATE_H &= ~(RB_UART_TXD | RB_UART_RXD);
    }
}
    13cc:	8082                	ret

000013ce <main>:
main():
F:\private\nanoCH57x-private\doc\CH572EVT\EVT\EXAM\BLE\RF_Basic\obj/../APP/main.c:29
 * @brief   
 *
 * @return  none
 */
int main(void)
{
    13ce:	1141                	addi	sp,sp,-16
F:\private\nanoCH57x-private\doc\CH572EVT\EVT\EXAM\BLE\RF_Basic\obj/../APP/main.c:33
#if(defined(DCDC_ENABLE)) && (DCDC_ENABLE == TRUE)
    PWR_DCDCCfg(ENABLE);
#endif
    HSECFG_Capacitance(HSECap_18p);
    13d0:	4519                	li	a0,6
F:\private\nanoCH57x-private\doc\CH572EVT\EVT\EXAM\BLE\RF_Basic\obj/../APP/main.c:29
{
    13d2:	c606                	sw	ra,12(sp)
F:\private\nanoCH57x-private\doc\CH572EVT\EVT\EXAM\BLE\RF_Basic\obj/../APP/main.c:33
    HSECFG_Capacitance(HSECap_18p);
    13d4:	3bf9                	jal	11b2 <HSECFG_Capacitance>
F:\private\nanoCH57x-private\doc\CH572EVT\EVT\EXAM\BLE\RF_Basic\obj/../APP/main.c:34
    SetSysClock(CLK_SOURCE_HSE_PLL_100MHz);
    13d6:	04600513          	li	a0,70
    13da:	1ffff097          	auipc	ra,0x1ffff
    13de:	662080e7          	jalr	1634(ra) # 20000a3c <SetSysClock>
F:\private\nanoCH57x-private\doc\CH572EVT\EVT\EXAM\BLE\RF_Basic\obj/../APP/main.c:40
#if(defined(HAL_SLEEP)) && (HAL_SLEEP == TRUE)
    GPIOA_ModeCfg(GPIO_Pin_All, GPIO_ModeIN_PU);
    GPIOB_ModeCfg(GPIO_Pin_All, GPIO_ModeIN_PU);
#endif
#ifdef DEBUG
    GPIOA_SetBits(bTXD_0);
    13e2:	400017b7          	lui	a5,0x40001
    13e6:	4721                	li	a4,8
    13e8:	0ae7ac23          	sw	a4,184(a5) # 400010b8 <_eusrstack+0x1fffe0b8>
F:\private\nanoCH57x-private\doc\CH572EVT\EVT\EXAM\BLE\RF_Basic\obj/../APP/main.c:41
    GPIOA_ModeCfg(bTXD_0, GPIO_ModeOut_PP_5mA); // TXD-IO
    13ec:	458d                	li	a1,3
    13ee:	4521                	li	a0,8
    13f0:	3d09                	jal	1202 <GPIOA_ModeCfg>
F:\private\nanoCH57x-private\doc\CH572EVT\EVT\EXAM\BLE\RF_Basic\obj/../APP/main.c:42
    UART_Remap(ENABLE, UART_TX_REMAP_PA3, UART_RX_REMAP_PA2);
    13f2:	4601                	li	a2,0
    13f4:	4581                	li	a1,0
    13f6:	4505                	li	a0,1
    13f8:	377d                	jal	13a6 <UART_Remap>
F:\private\nanoCH57x-private\doc\CH572EVT\EVT\EXAM\BLE\RF_Basic\obj/../APP/main.c:43
    UART_DefInit();
    13fa:	3fad                	jal	1374 <UART_DefInit>
F:\private\nanoCH57x-private\doc\CH572EVT\EVT\EXAM\BLE\RF_Basic\obj/../APP/main.c:45
#endif
    PRINT("start.\n");
    13fc:	00002517          	auipc	a0,0x2
    1400:	f3850513          	addi	a0,a0,-200 # 3334 <_read+0x22>
    1404:	5c5000ef          	jal	ra,21c8 <puts>
F:\private\nanoCH57x-private\doc\CH572EVT\EVT\EXAM\BLE\RF_Basic\obj/../APP/main.c:46
    PRINT("%s\n", VER_RF_LIB);
    1408:	00002517          	auipc	a0,0x2
    140c:	f8c50513          	addi	a0,a0,-116 # 3394 <VER_RF_LIB>
    1410:	5b9000ef          	jal	ra,21c8 <puts>
F:\private\nanoCH57x-private\doc\CH572EVT\EVT\EXAM\BLE\RF_Basic\obj/../APP/main.c:47
    RFRole_Init();
    1414:	2011                	jal	1418 <RFRole_Init>
F:\private\nanoCH57x-private\doc\CH572EVT\EVT\EXAM\BLE\RF_Basic\obj/../APP/main.c:48 (discriminator 1)
    while(1);
    1416:	a001                	j	1416 <main+0x48>

00001418 <RFRole_Init>:
RFRole_Init():
F:\private\nanoCH57x-private\doc\CH572EVT\EVT\EXAM\BLE\RF_Basic\obj/../APP/rf_basic.c:281
 * @param   None.
 *
 * @return  None.
 */
void RFRole_Init(void)
{
    1418:	1101                	addi	sp,sp,-32
    141a:	ce06                	sw	ra,28(sp)
    141c:	cc22                	sw	s0,24(sp)
__risc_v_disable_irq():
F:\private\nanoCH57x-private\doc\CH572EVT\EVT\EXAM\SRC\RVMSIS/core_riscv.h:154
    __asm volatile("csrrc %0, 0x800, %1" : \
    141e:	08800793          	li	a5,136
    1422:	8007b7f3          	csrrc	a5,0x800,a5
F:\private\nanoCH57x-private\doc\CH572EVT\EVT\EXAM\SRC\RVMSIS/core_riscv.h:156
    return result & 0x88;
    1426:	0887f793          	andi	a5,a5,136
RFRole_Init():
F:\private\nanoCH57x-private\doc\CH572EVT\EVT\EXAM\BLE\RF_Basic\obj/../APP/rf_basic.c:282
    sys_safe_access_enable( );
    142a:	c23e                	sw	a5,4(sp)
    142c:	0000100f          	fence.i
    1430:	400017b7          	lui	a5,0x40001
    1434:	05700713          	li	a4,87
    1438:	04e78023          	sb	a4,64(a5) # 40001040 <_eusrstack+0x1fffe040>
    143c:	fa800713          	li	a4,-88
    1440:	04e78023          	sb	a4,64(a5)
    1444:	0000100f          	fence.i
F:\private\nanoCH57x-private\doc\CH572EVT\EVT\EXAM\BLE\RF_Basic\obj/../APP/rf_basic.c:283
    R32_MISC_CTRL = (R32_MISC_CTRL&(~(0x3f<<24)))|(0xe<<24);
    1448:	47b8                	lw	a4,72(a5)
    144a:	c10006b7          	lui	a3,0xc1000
    144e:	16fd                	addi	a3,a3,-1 # c0ffffff <_eusrstack+0xa0ffcfff>
    1450:	8f75                	and	a4,a4,a3
    1452:	0e0006b7          	lui	a3,0xe000
    1456:	8f55                	or	a4,a4,a3
    1458:	c7b8                	sw	a4,72(a5)
F:\private\nanoCH57x-private\doc\CH572EVT\EVT\EXAM\BLE\RF_Basic\obj/../APP/rf_basic.c:284
    sys_safe_access_disable( );
    145a:	04078023          	sb	zero,64(a5)
    145e:	4792                	lw	a5,4(sp)
__risc_v_enable_irq():
F:\private\nanoCH57x-private\doc\CH572EVT\EVT\EXAM\SRC\RVMSIS/core_riscv.h:138
    __asm volatile("csrrs %0, 0x800, %1" : \
    1460:	8007a7f3          	csrrs	a5,0x800,a5
RFRole_Init():
F:\private\nanoCH57x-private\doc\CH572EVT\EVT\EXAM\BLE\RF_Basic\obj/../APP/rf_basic.c:284
    1464:	0000100f          	fence.i
F:\private\nanoCH57x-private\doc\CH572EVT\EVT\EXAM\BLE\RF_Basic\obj/../APP/rf_basic.c:292
    PKT_DET_CFG4(0x78);
#endif

    {
        rfRoleConfig_t conf ={0};
        conf.rfProcessCB = RF_ProcessCallBack;
    1468:	20000797          	auipc	a5,0x20000
    146c:	8da78793          	addi	a5,a5,-1830 # 20000d42 <RF_ProcessCallBack>
    1470:	c43e                	sw	a5,8(sp)
F:\private\nanoCH57x-private\doc\CH572EVT\EVT\EXAM\BLE\RF_Basic\obj/../APP/rf_basic.c:294
        conf.processMask = RF_STATE_RX|RF_STATE_RX_CRCERR|RF_STATE_TX_FINISH|RF_STATE_TIMEOUT;
        RFRole_BasicInit( &conf );
    1472:	0028                	addi	a0,sp,8
F:\private\nanoCH57x-private\doc\CH572EVT\EVT\EXAM\BLE\RF_Basic\obj/../APP/rf_basic.c:293
        conf.processMask = RF_STATE_RX|RF_STATE_RX_CRCERR|RF_STATE_TX_FINISH|RF_STATE_TIMEOUT;
    1474:	47f5                	li	a5,29
    1476:	c63e                	sw	a5,12(sp)
F:\private\nanoCH57x-private\doc\CH572EVT\EVT\EXAM\BLE\RF_Basic\obj/../APP/rf_basic.c:309
        Properties.dplEnable = DPL_EN;
        Properties.mode2G4 = MODE_2G4;
        Properties.bitOrderData = DATA_ORDER;
        Properties.crcXOREnable = CRC_XOR_EN;
#endif
        PRINT("cfgVal=%x\n",Properties.cfgVal);
    1478:	02520437          	lui	s0,0x2520
F:\private\nanoCH57x-private\doc\CH572EVT\EVT\EXAM\BLE\RF_Basic\obj/../APP/rf_basic.c:294
        RFRole_BasicInit( &conf );
    147c:	2af5                	jal	1678 <RFRole_BasicInit>
F:\private\nanoCH57x-private\doc\CH572EVT\EVT\EXAM\BLE\RF_Basic\obj/../APP/rf_basic.c:309
        PRINT("cfgVal=%x\n",Properties.cfgVal);
    147e:	03140593          	addi	a1,s0,49 # 2520031 <_data_lma+0x251cb89>
    1482:	00002517          	auipc	a0,0x2
    1486:	ece50513          	addi	a0,a0,-306 # 3350 <_read+0x3e>
    148a:	3fd000ef          	jal	ra,2086 <iprintf>
F:\private\nanoCH57x-private\doc\CH572EVT\EVT\EXAM\BLE\RF_Basic\obj/../APP/rf_basic.c:319
        gTxParam.accessAddress = AA;
        gTxParam.accessAddressEx = AA_EX;
        gTxParam.crcInit = CRC_INIT;
        gTxParam.crcPoly = CRC_POLY;
        gTxParam.properties = Properties.cfgVal;
        gTxParam.waitTime = 80*2;
    148e:	6705                	lui	a4,0x1
F:\private\nanoCH57x-private\doc\CH572EVT\EVT\EXAM\BLE\RF_Basic\obj/../APP/rf_basic.c:314
        gTxParam.accessAddress = AA;
    1490:	9c018793          	addi	a5,gp,-1600 # 20001310 <gTxParam>
F:\private\nanoCH57x-private\doc\CH572EVT\EVT\EXAM\BLE\RF_Basic\obj/../APP/rf_basic.c:319
        gTxParam.waitTime = 80*2;
    1494:	2a070713          	addi	a4,a4,672 # 12a0 <GetSysClock+0x1c>
    1498:	afba                	sh	a4,26(a5)
F:\private\nanoCH57x-private\doc\CH572EVT\EVT\EXAM\BLE\RF_Basic\obj/../APP/rf_basic.c:314
        gTxParam.accessAddress = AA;
    149a:	94827637          	lui	a2,0x94827
F:\private\nanoCH57x-private\doc\CH572EVT\EVT\EXAM\BLE\RF_Basic\obj/../APP/rf_basic.c:316
        gTxParam.crcInit = CRC_INIT;
    149e:	66c1                	lui	a3,0x10
F:\private\nanoCH57x-private\doc\CH572EVT\EVT\EXAM\BLE\RF_Basic\obj/../APP/rf_basic.c:317
        gTxParam.crcPoly = CRC_POLY;
    14a0:	6725                	lui	a4,0x9
F:\private\nanoCH57x-private\doc\CH572EVT\EVT\EXAM\BLE\RF_Basic\obj/../APP/rf_basic.c:314
        gTxParam.accessAddress = AA;
    14a2:	e8e60613          	addi	a2,a2,-370 # 94826e8e <_eusrstack+0x74823e8e>
F:\private\nanoCH57x-private\doc\CH572EVT\EVT\EXAM\BLE\RF_Basic\obj/../APP/rf_basic.c:316
        gTxParam.crcInit = CRC_INIT;
    14a6:	16fd                	addi	a3,a3,-1 # ffff <_data_lma+0xcb57>
F:\private\nanoCH57x-private\doc\CH572EVT\EVT\EXAM\BLE\RF_Basic\obj/../APP/rf_basic.c:321
        gTxParam.txPowerVal = LL_TX_POWEER_0_DBM;
        gTxParam.txLen = TEST_DATA_LEN;
    14a8:	4591                	li	a1,4
F:\private\nanoCH57x-private\doc\CH572EVT\EVT\EXAM\BLE\RF_Basic\obj/../APP/rf_basic.c:318
        gTxParam.properties = Properties.cfgVal;
    14aa:	03140413          	addi	s0,s0,49
F:\private\nanoCH57x-private\doc\CH572EVT\EVT\EXAM\BLE\RF_Basic\obj/../APP/rf_basic.c:317
        gTxParam.crcPoly = CRC_POLY;
    14ae:	81070713          	addi	a4,a4,-2032 # 8810 <_data_lma+0x5368>
F:\private\nanoCH57x-private\doc\CH572EVT\EVT\EXAM\BLE\RF_Basic\obj/../APP/rf_basic.c:314
        gTxParam.accessAddress = AA;
    14b2:	c390                	sw	a2,0(a5)
F:\private\nanoCH57x-private\doc\CH572EVT\EVT\EXAM\BLE\RF_Basic\obj/../APP/rf_basic.c:316
        gTxParam.crcInit = CRC_INIT;
    14b4:	c794                	sw	a3,8(a5)
F:\private\nanoCH57x-private\doc\CH572EVT\EVT\EXAM\BLE\RF_Basic\obj/../APP/rf_basic.c:321
        gTxParam.txLen = TEST_DATA_LEN;
    14b6:	bf8c                	sb	a1,25(a5)
F:\private\nanoCH57x-private\doc\CH572EVT\EVT\EXAM\BLE\RF_Basic\obj/../APP/rf_basic.c:318
        gTxParam.properties = Properties.cfgVal;
    14b8:	cb80                	sw	s0,16(a5)
F:\private\nanoCH57x-private\doc\CH572EVT\EVT\EXAM\BLE\RF_Basic\obj/../APP/rf_basic.c:317
        gTxParam.crcPoly = CRC_POLY;
    14ba:	cfd8                	sw	a4,28(a5)
F:\private\nanoCH57x-private\doc\CH572EVT\EVT\EXAM\BLE\RF_Basic\obj/../APP/rf_basic.c:315
        gTxParam.accessAddressEx = AA_EX;
    14bc:	00078223          	sb	zero,4(a5)
F:\private\nanoCH57x-private\doc\CH572EVT\EVT\EXAM\BLE\RF_Basic\obj/../APP/rf_basic.c:326
    }

    // RX
    {
        gRxParam.accessAddress = AA;
    14c0:	9a018793          	addi	a5,gp,-1632 # 200012f0 <gRxParam>
F:\private\nanoCH57x-private\doc\CH572EVT\EVT\EXAM\BLE\RF_Basic\obj/../APP/rf_basic.c:329
        gRxParam.accessAddressEx = AA_EX;
        gRxParam.crcInit = CRC_INIT;
        gRxParam.crcPoly = CRC_POLY;
    14c4:	cfd8                	sw	a4,28(a5)
F:\private\nanoCH57x-private\doc\CH572EVT\EVT\EXAM\BLE\RF_Basic\obj/../APP/rf_basic.c:331
        gRxParam.properties = Properties.cfgVal;
        gRxParam.rxDMA = (uint32_t)RxBuf;
    14c6:	20000717          	auipc	a4,0x20000
    14ca:	ce270713          	addi	a4,a4,-798 # 200011a8 <RxBuf>
    14ce:	cbd8                	sw	a4,20(a5)
F:\private\nanoCH57x-private\doc\CH572EVT\EVT\EXAM\BLE\RF_Basic\obj/../APP/rf_basic.c:326
        gRxParam.accessAddress = AA;
    14d0:	c390                	sw	a2,0(a5)
F:\private\nanoCH57x-private\doc\CH572EVT\EVT\EXAM\BLE\RF_Basic\obj/../APP/rf_basic.c:328
        gRxParam.crcInit = CRC_INIT;
    14d2:	c794                	sw	a3,8(a5)
F:\private\nanoCH57x-private\doc\CH572EVT\EVT\EXAM\BLE\RF_Basic\obj/../APP/rf_basic.c:332
        gRxParam.rxMaxLen = TEST_DATA_LEN;
    14d4:	bf8c                	sb	a1,25(a5)
F:\private\nanoCH57x-private\doc\CH572EVT\EVT\EXAM\BLE\RF_Basic\obj/../APP/rf_basic.c:330
        gRxParam.properties = Properties.cfgVal;
    14d6:	cb80                	sw	s0,16(a5)
F:\private\nanoCH57x-private\doc\CH572EVT\EVT\EXAM\BLE\RF_Basic\obj/../APP/rf_basic.c:327
        gRxParam.accessAddressEx = AA_EX;
    14d8:	00078223          	sb	zero,4(a5)
PFIC_EnableIRQ():
F:\private\nanoCH57x-private\doc\CH572EVT\EVT\EXAM\SRC\RVMSIS/core_riscv.h:173
    PFIC->IENR[((uint32_t)(IRQn) >> 5)] = (1 << ((uint32_t)(IRQn) & 0x1F));
    14dc:	e000e437          	lui	s0,0xe000e
    14e0:	001007b7          	lui	a5,0x100
    14e4:	10f42023          	sw	a5,256(s0) # e000e100 <_eusrstack+0xc000b100>
    14e8:	002007b7          	lui	a5,0x200
    14ec:	10f42023          	sw	a5,256(s0)
RFRole_Init():
F:\private\nanoCH57x-private\doc\CH572EVT\EVT\EXAM\BLE\RF_Basic\obj/../APP/rf_basic.c:338
    }
    PFIC_EnableIRQ( BLEB_IRQn );
    PFIC_EnableIRQ( BLEL_IRQn );

#if( TEST_MODE == MODE_RX )
    PRINT("----------------- rx -----------------\n");
    14f0:	00002517          	auipc	a0,0x2
    14f4:	e6c50513          	addi	a0,a0,-404 # 335c <_read+0x4a>
    14f8:	4d1000ef          	jal	ra,21c8 <puts>
F:\private\nanoCH57x-private\doc\CH572EVT\EVT\EXAM\BLE\RF_Basic\obj/../APP/rf_basic.c:339
    gTxCount = 0;
    14fc:	8001aa23          	sw	zero,-2028(gp) # 20001164 <gTxCount>
F:\private\nanoCH57x-private\doc\CH572EVT\EVT\EXAM\BLE\RF_Basic\obj/../APP/rf_basic.c:340
    gRxCount = 0;
    1500:	8001a823          	sw	zero,-2032(gp) # 20001160 <gRxCount>
F:\private\nanoCH57x-private\doc\CH572EVT\EVT\EXAM\BLE\RF_Basic\obj/../APP/rf_basic.c:341
    PRINT("start rx...%d\n",GetSysClock());
    1504:	3341                	jal	1284 <GetSysClock>
    1506:	85aa                	mv	a1,a0
    1508:	00002517          	auipc	a0,0x2
    150c:	e7c50513          	addi	a0,a0,-388 # 3384 <_read+0x72>
    1510:	377000ef          	jal	ra,2086 <iprintf>
F:\private\nanoCH57x-private\doc\CH572EVT\EVT\EXAM\BLE\RF_Basic\obj/../APP/rf_basic.c:342
    rf_rx_start();
    1514:	20000097          	auipc	ra,0x20000
    1518:	812080e7          	jalr	-2030(ra) # 20000d26 <rf_rx_start>
F:\private\nanoCH57x-private\doc\CH572EVT\EVT\EXAM\BLE\RF_Basic\obj/../APP/rf_basic.c:343
    TMR_TimerInit( GetSysClock() / 2 ); // 500ms
    151c:	33a5                	jal	1284 <GetSysClock>
    151e:	8105                	srli	a0,a0,0x1
    1520:	3531                	jal	132c <TMR_TimerInit>
F:\private\nanoCH57x-private\doc\CH572EVT\EVT\EXAM\BLE\RF_Basic\obj/../APP/rf_basic.c:344
    TMR_ITCfg(ENABLE, TMR_IT_CYC_END);  // 
    1522:	40002737          	lui	a4,0x40002
    1526:	40274783          	lbu	a5,1026(a4) # 40002402 <_eusrstack+0x1ffff402>
    152a:	0017e793          	ori	a5,a5,1
    152e:	40f70123          	sb	a5,1026(a4)
PFIC_EnableIRQ():
F:\private\nanoCH57x-private\doc\CH572EVT\EVT\EXAM\SRC\RVMSIS/core_riscv.h:173
    1532:	010007b7          	lui	a5,0x1000
RFRole_Init():
F:\private\nanoCH57x-private\doc\CH572EVT\EVT\EXAM\BLE\RF_Basic\obj/../APP/rf_basic.c:356
    TMR_TimerInit( GetSysClock() / RF_DEVICE_PERIDOC );

    TMR_ITCfg(ENABLE, TMR_IT_CYC_END); // 
    PFIC_EnableIRQ(TMR_IRQn);
#endif
}
    1536:	40f2                	lw	ra,28(sp)
PFIC_EnableIRQ():
F:\private\nanoCH57x-private\doc\CH572EVT\EVT\EXAM\SRC\RVMSIS/core_riscv.h:173
    1538:	10f42023          	sw	a5,256(s0)
RFRole_Init():
F:\private\nanoCH57x-private\doc\CH572EVT\EVT\EXAM\BLE\RF_Basic\obj/../APP/rf_basic.c:356
    153c:	4462                	lw	s0,24(sp)
    153e:	6105                	addi	sp,sp,32
    1540:	8082                	ret

00001542 <FLASH_EEPROM_CMD>:
FLASH_EEPROM_CMD():
    1542:	1101                	addi	sp,sp,-32
    1544:	872a                	mv	a4,a0
    1546:	ce06                	sw	ra,28(sp)
    1548:	852e                	mv	a0,a1
    154a:	cc26                	sw	s1,24(sp)
    154c:	85b2                	mv	a1,a2
    154e:	ca4a                	sw	s2,20(sp)
    1550:	8636                	mv	a2,a3
    1552:	c622                	sw	s0,12(sp)
    1554:	40002437          	lui	s0,0x40002
    1558:	e000e7b7          	lui	a5,0xe000e
    155c:	56fd                	li	a3,-1
    155e:	0007a903          	lw	s2,0(a5) # e000e000 <_eusrstack+0xc000b000>
    1562:	43c4                	lw	s1,4(a5)
    1564:	18d7a023          	sw	a3,384(a5)
    1568:	18d7a223          	sw	a3,388(a5)
    156c:	fff70793          	addi	a5,a4,-1
    1570:	0ff7f793          	zext.b	a5,a5
    1574:	4689                	li	a3,2
    1576:	0af6e063          	bltu	a3,a5,1616 <FLASH_EEPROM_CMD+0xd4>
    157a:	400017b7          	lui	a5,0x40001
    157e:	0457c783          	lbu	a5,69(a5) # 40001045 <_eusrstack+0x1fffe045>
    1582:	000406b7          	lui	a3,0x40
    1586:	0207f793          	andi	a5,a5,32
    158a:	e399                	bnez	a5,1590 <FLASH_EEPROM_CMD+0x4e>
    158c:	0003c6b7          	lui	a3,0x3c
    1590:	57f9                	li	a5,-2
    1592:	04d57563          	bgeu	a0,a3,15dc <FLASH_EEPROM_CMD+0x9a>
    1596:	00c50833          	add	a6,a0,a2
    159a:	0506e163          	bltu	a3,a6,15dc <FLASH_EEPROM_CMD+0x9a>
    159e:	4789                	li	a5,2
    15a0:	04f71463          	bne	a4,a5,15e8 <FLASH_EEPROM_CMD+0xa6>
    15a4:	8209                	srli	a2,a2,0x2
    15a6:	20000097          	auipc	ra,0x20000
    15aa:	95a080e7          	jalr	-1702(ra) # 20000f00 <FLASH_CMD_ROM_WRITE>
    15ae:	87aa                	mv	a5,a0
    15b0:	40001737          	lui	a4,0x40001
    15b4:	05700693          	li	a3,87
    15b8:	04d70023          	sb	a3,64(a4) # 40001040 <_eusrstack+0x1fffe040>
    15bc:	fa800693          	li	a3,-88
    15c0:	04d70023          	sb	a3,64(a4)
    15c4:	04474683          	lbu	a3,68(a4)
    15c8:	8ac1                	andi	a3,a3,16
    15ca:	04d70223          	sb	a3,68(a4)
    15ce:	e000e737          	lui	a4,0xe000e
    15d2:	11272023          	sw	s2,256(a4) # e000e100 <_eusrstack+0xc000b100>
    15d6:	10972223          	sw	s1,260(a4)
    15da:	4432                	lw	s0,12(sp)
    15dc:	40f2                	lw	ra,28(sp)
    15de:	44e2                	lw	s1,24(sp)
    15e0:	4952                	lw	s2,20(sp)
    15e2:	853e                	mv	a0,a5
    15e4:	6105                	addi	sp,sp,32
    15e6:	8082                	ret
    15e8:	4785                	li	a5,1
    15ea:	00f71f63          	bne	a4,a5,1608 <FLASH_EEPROM_CMD+0xc6>
    15ee:	6785                	lui	a5,0x1
    15f0:	17fd                	addi	a5,a5,-1 # fff <_einit+0xffb>
    15f2:	963e                	add	a2,a2,a5
    15f4:	8fe9                	and	a5,a5,a0
    15f6:	963e                	add	a2,a2,a5
    15f8:	77fd                	lui	a5,0xfffff
    15fa:	8e7d                	and	a2,a2,a5
    15fc:	8d7d                	and	a0,a0,a5
    15fe:	20000097          	auipc	ra,0x20000
    1602:	962080e7          	jalr	-1694(ra) # 20000f60 <FLASH_CMD_ROM_ERASE>
    1606:	b765                	j	15ae <FLASH_EEPROM_CMD+0x6c>
    1608:	20000097          	auipc	ra,0x20000
    160c:	9ca080e7          	jalr	-1590(ra) # 20000fd2 <FLASH_CMD_ROM_VERIFY>
    1610:	00150793          	addi	a5,a0,1
    1614:	bf71                	j	15b0 <FLASH_EEPROM_CMD+0x6e>
    1616:	47b5                	li	a5,13
    1618:	00f71a63          	bne	a4,a5,162c <FLASH_EEPROM_CMD+0xea>
    161c:	0b900513          	li	a0,185
    1620:	20000097          	auipc	ra,0x20000
    1624:	a02080e7          	jalr	-1534(ra) # 20001022 <FLASH_CMD_ROM_PWR>
    1628:	4781                	li	a5,0
    162a:	b759                	j	15b0 <FLASH_EEPROM_CMD+0x6e>
    162c:	47b1                	li	a5,12
    162e:	00f71563          	bne	a4,a5,1638 <FLASH_EEPROM_CMD+0xf6>
    1632:	0ab00513          	li	a0,171
    1636:	b7ed                	j	1620 <FLASH_EEPROM_CMD+0xde>
    1638:	4799                	li	a5,6
    163a:	00f71763          	bne	a4,a5,1648 <FLASH_EEPROM_CMD+0x106>
    163e:	20000097          	auipc	ra,0x20000
    1642:	9f6080e7          	jalr	-1546(ra) # 20001034 <FLASH_CMD_GET_ROM_INFO>
    1646:	b7cd                	j	1628 <FLASH_EEPROM_CMD+0xe6>
    1648:	479d                	li	a5,7
    164a:	00f71b63          	bne	a4,a5,1660 <FLASH_EEPROM_CMD+0x11e>
    164e:	0005a023          	sw	zero,0(a1)
    1652:	0005a223          	sw	zero,4(a1)
    1656:	20000097          	auipc	ra,0x20000
    165a:	a3e080e7          	jalr	-1474(ra) # 20001094 <FLASH_CMD_GET_UNIQUE_ID>
    165e:	b7e9                	j	1628 <FLASH_EEPROM_CMD+0xe6>
    1660:	4791                	li	a5,4
    1662:	00f71763          	bne	a4,a5,1670 <FLASH_EEPROM_CMD+0x12e>
    1666:	20000097          	auipc	ra,0x20000
    166a:	a6c080e7          	jalr	-1428(ra) # 200010d2 <FLASH_CMD_ROM_SW_RESET>
    166e:	bf6d                	j	1628 <FLASH_EEPROM_CMD+0xe6>
    1670:	4781                	li	a5,0
    1672:	df1d                	beqz	a4,15b0 <FLASH_EEPROM_CMD+0x6e>
    1674:	57f1                	li	a5,-4
    1676:	bf2d                	j	15b0 <FLASH_EEPROM_CMD+0x6e>

00001678 <RFRole_BasicInit>:
RFRole_BasicInit():
    1678:	4118                	lw	a4,0(a0)
    167a:	1141                	addi	sp,sp,-16
    167c:	c606                	sw	ra,12(sp)
    167e:	81818793          	addi	a5,gp,-2024 # 20001168 <gRfConfig>
    1682:	c398                	sw	a4,0(a5)
    1684:	4158                	lw	a4,4(a0)
    1686:	1ffff517          	auipc	a0,0x1ffff
    168a:	a0a50513          	addi	a0,a0,-1526 # 20000090 <rfBasicProcess>
    168e:	c3d8                	sw	a4,4(a5)
    1690:	2075                	jal	173c <RFIP_RegInit>
    1692:	40b2                	lw	ra,12(sp)
    1694:	4501                	li	a0,0
    1696:	0141                	addi	sp,sp,16
    1698:	8082                	ret

0000169a <RFIP_Calibration>:
RFIP_Calibration():
    169a:	1101                	addi	sp,sp,-32
    169c:	c64e                	sw	s3,12(sp)
    169e:	82418993          	addi	s3,gp,-2012 # 20001174 <gptrBBReg>
    16a2:	0009a703          	lw	a4,0(s3)
    16a6:	ce06                	sw	ra,28(sp)
    16a8:	cc22                	sw	s0,24(sp)
    16aa:	ca26                	sw	s1,20(sp)
    16ac:	c84a                	sw	s2,16(sp)
    16ae:	c452                	sw	s4,8(sp)
    16b0:	c256                	sw	s5,4(sp)
    16b2:	4314                	lw	a3,0(a4)
    16b4:	fffd07b7          	lui	a5,0xfffd0
    16b8:	fff78413          	addi	s0,a5,-1 # fffcffff <_eusrstack+0xdffccfff>
    16bc:	0086f7b3          	and	a5,a3,s0
    16c0:	c31c                	sw	a5,0(a4)
    16c2:	431c                	lw	a5,0(a4)
    16c4:	00020a37          	lui	s4,0x20
    16c8:	83418913          	addi	s2,gp,-1996 # 20001184 <gptrRFENDReg>
    16cc:	8fe1                	and	a5,a5,s0
    16ce:	0147e7b3          	or	a5,a5,s4
    16d2:	c31c                	sw	a5,0(a4)
    16d4:	00092703          	lw	a4,0(s2)
    16d8:	003306b7          	lui	a3,0x330
    16dc:	82818a93          	addi	s5,gp,-2008 # 20001178 <gptrLLEReg>
    16e0:	471c                	lw	a5,8(a4)
    16e2:	000f04b7          	lui	s1,0xf0
    16e6:	8fd5                	or	a5,a5,a3
    16e8:	c71c                	sw	a5,8(a4)
    16ea:	000aa783          	lw	a5,0(s5) # 10000 <_data_lma+0xcb58>
    16ee:	5d848713          	addi	a4,s1,1496 # f05d8 <_data_lma+0xed130>
    16f2:	08048493          	addi	s1,s1,128
    16f6:	cbb8                	sw	a4,80(a5)
    16f8:	2409                	jal	18fa <RFEND_TXCtune>
    16fa:	17d000ef          	jal	ra,2076 <RFEND_TXFtune>
    16fe:	28d5                	jal	17f2 <RFEND_RXFilter>
    1700:	2a49                	jal	1892 <RFEND_RXAdc>
    1702:	000aa683          	lw	a3,0(s5)
    1706:	0009a703          	lw	a4,0(s3)
    170a:	6641                	lui	a2,0x10
    170c:	0146a423          	sw	s4,8(a3) # 330008 <_data_lma+0x32cb60>
    1710:	431c                	lw	a5,0(a4)
    1712:	8fe1                	and	a5,a5,s0
    1714:	8fd1                	or	a5,a5,a2
    1716:	c31c                	sw	a5,0(a4)
    1718:	00092603          	lw	a2,0(s2)
    171c:	ffce0737          	lui	a4,0xffce0
    1720:	177d                	addi	a4,a4,-1 # ffcdffff <_eusrstack+0xdfcdcfff>
    1722:	461c                	lw	a5,8(a2)
    1724:	40f2                	lw	ra,28(sp)
    1726:	4462                	lw	s0,24(sp)
    1728:	8ff9                	and	a5,a5,a4
    172a:	c61c                	sw	a5,8(a2)
    172c:	caa4                	sw	s1,80(a3)
    172e:	4942                	lw	s2,16(sp)
    1730:	44d2                	lw	s1,20(sp)
    1732:	49b2                	lw	s3,12(sp)
    1734:	4a22                	lw	s4,8(sp)
    1736:	4a92                	lw	s5,4(sp)
    1738:	6105                	addi	sp,sp,32
    173a:	8082                	ret

0000173c <RFIP_RegInit>:
RFIP_RegInit():
    173c:	4000c7b7          	lui	a5,0x4000c
    1740:	20078713          	addi	a4,a5,512 # 4000c200 <_eusrstack+0x20009200>
    1744:	1101                	addi	sp,sp,-32
    1746:	10078793          	addi	a5,a5,256
    174a:	82e1a423          	sw	a4,-2008(gp) # 20001178 <gptrLLEReg>
    174e:	4000d737          	lui	a4,0x4000d
    1752:	ce06                	sw	ra,28(sp)
    1754:	c62a                	sw	a0,12(sp)
    1756:	82e1aa23          	sw	a4,-1996(gp) # 20001184 <gptrRFENDReg>
    175a:	82f1a223          	sw	a5,-2012(gp) # 20001174 <gptrBBReg>
    175e:	2829                	jal	1778 <RFEND_DevInit>
    1760:	1ffff097          	auipc	ra,0x1ffff
    1764:	280080e7          	jalr	640(ra) # 200009e0 <RFIP_WakeUpRegInit>
    1768:	3f0d                	jal	169a <RFIP_Calibration>
    176a:	4532                	lw	a0,12(sp)
    176c:	40f2                	lw	ra,28(sp)
    176e:	82a1a623          	sw	a0,-2004(gp) # 2000117c <lleProcess>
    1772:	4501                	li	a0,0
    1774:	6105                	addi	sp,sp,32
    1776:	8082                	ret

00001778 <RFEND_DevInit>:
RFEND_DevInit():
    1778:	83418793          	addi	a5,gp,-1996 # 20001184 <gptrRFENDReg>
    177c:	439c                	lw	a5,0(a5)
    177e:	48000713          	li	a4,1152
    1782:	f90006b7          	lui	a3,0xf9000
    1786:	d798                	sw	a4,40(a5)
    1788:	5fd8                	lw	a4,60(a5)
    178a:	16fd                	addi	a3,a3,-1 # f8ffffff <_eusrstack+0xd8ffcfff>
    178c:	8f75                	and	a4,a4,a3
    178e:	020006b7          	lui	a3,0x2000
    1792:	8f55                	or	a4,a4,a3
    1794:	dfd8                	sw	a4,60(a5)
    1796:	5fd8                	lw	a4,60(a5)
    1798:	400006b7          	lui	a3,0x40000
    179c:	070e                	slli	a4,a4,0x3
    179e:	830d                	srli	a4,a4,0x3
    17a0:	8f55                	or	a4,a4,a3
    17a2:	dfd8                	sw	a4,60(a5)
    17a4:	5b98                	lw	a4,48(a5)
    17a6:	fffa06b7          	lui	a3,0xfffa0
    17aa:	16fd                	addi	a3,a3,-1 # fff9ffff <_eusrstack+0xdff9cfff>
    17ac:	8f75                	and	a4,a4,a3
    17ae:	db98                	sw	a4,48(a5)
    17b0:	5b98                	lw	a4,48(a5)
    17b2:	700006b7          	lui	a3,0x70000
    17b6:	8f55                	or	a4,a4,a3
    17b8:	db98                	sw	a4,48(a5)
    17ba:	47b8                	lw	a4,72(a5)
    17bc:	fff906b7          	lui	a3,0xfff90
    17c0:	16fd                	addi	a3,a3,-1 # fff8ffff <_eusrstack+0xdff8cfff>
    17c2:	8f75                	and	a4,a4,a3
    17c4:	c7b8                	sw	a4,72(a5)
    17c6:	4bb8                	lw	a4,80(a5)
    17c8:	000706b7          	lui	a3,0x70
    17cc:	8ff77713          	andi	a4,a4,-1793
    17d0:	30076713          	ori	a4,a4,768
    17d4:	cbb8                	sw	a4,80(a5)
    17d6:	4ff8                	lw	a4,92(a5)
    17d8:	8f55                	or	a4,a4,a3
    17da:	cff8                	sw	a4,92(a5)
    17dc:	4ff8                	lw	a4,92(a5)
    17de:	070006b7          	lui	a3,0x7000
    17e2:	8f55                	or	a4,a4,a3
    17e4:	cff8                	sw	a4,92(a5)
    17e6:	06400793          	li	a5,100
    17ea:	0001                	nop
    17ec:	17fd                	addi	a5,a5,-1
    17ee:	fff5                	bnez	a5,17ea <RFEND_DevInit+0x72>
    17f0:	8082                	ret

000017f2 <RFEND_RXFilter>:
RFEND_RXFilter():
    17f2:	83418713          	addi	a4,gp,-1996 # 20001184 <gptrRFENDReg>
    17f6:	431c                	lw	a5,0(a4)
    17f8:	7641                	lui	a2,0xffff0
    17fa:	167d                	addi	a2,a2,-1 # fffeffff <_eusrstack+0xdffecfff>
    17fc:	4bb4                	lw	a3,80(a5)
    17fe:	8ef1                	and	a3,a3,a2
    1800:	cbb4                	sw	a3,80(a5)
    1802:	4794                	lw	a3,8(a5)
    1804:	00200637          	lui	a2,0x200
    1808:	8ed1                	or	a3,a3,a2
    180a:	c794                	sw	a3,8(a5)
    180c:	47d4                	lw	a3,12(a5)
    180e:	0106e693          	ori	a3,a3,16
    1812:	c7d4                	sw	a3,12(a5)
    1814:	47d4                	lw	a3,12(a5)
    1816:	9abd                	andi	a3,a3,-17
    1818:	c7d4                	sw	a3,12(a5)
    181a:	0001                	nop
    181c:	0001                	nop
    181e:	0001                	nop
    1820:	0001                	nop
    1822:	4314                	lw	a3,0(a4)
    1824:	6605                	lui	a2,0x1
    1826:	46dc                	lw	a5,12(a3)
    1828:	0107e793          	ori	a5,a5,16
    182c:	c6dc                	sw	a5,12(a3)
    182e:	42dc                	lw	a5,4(a3)
    1830:	8fd1                	or	a5,a5,a2
    1832:	c2dc                	sw	a5,4(a3)
    1834:	82818793          	addi	a5,gp,-2008 # 20001178 <gptrLLEReg>
    1838:	4390                	lw	a2,0(a5)
    183a:	06400793          	li	a5,100
    183e:	d27c                	sw	a5,100(a2)
    1840:	527c                	lw	a5,100(a2)
    1842:	c791                	beqz	a5,184e <RFEND_RXFilter+0x5c>
    1844:	09c6a783          	lw	a5,156(a3) # 700009c <_data_lma+0x6ffcbf4>
    1848:	83a1                	srli	a5,a5,0x8
    184a:	8b85                	andi	a5,a5,1
    184c:	dbf5                	beqz	a5,1840 <RFEND_RXFilter+0x4e>
    184e:	0001                	nop
    1850:	0001                	nop
    1852:	0001                	nop
    1854:	0001                	nop
    1856:	4318                	lw	a4,0(a4)
    1858:	6641                	lui	a2,0x10
    185a:	09c72783          	lw	a5,156(a4) # 4000d09c <_eusrstack+0x2000a09c>
    185e:	8bfd                	andi	a5,a5,31
    1860:	82f18923          	sb	a5,-1998(gp) # 20001182 <gTuneFilter>
    1864:	4b34                	lw	a3,80(a4)
    1866:	8ed1                	or	a3,a3,a2
    1868:	cb34                	sw	a3,80(a4)
    186a:	4b34                	lw	a3,80(a4)
    186c:	ffe00637          	lui	a2,0xffe00
    1870:	167d                	addi	a2,a2,-1 # ffdfffff <_eusrstack+0xdfdfcfff>
    1872:	9a81                	andi	a3,a3,-32
    1874:	8edd                	or	a3,a3,a5
    1876:	cb34                	sw	a3,80(a4)
    1878:	4714                	lw	a3,8(a4)
    187a:	0789                	addi	a5,a5,2
    187c:	8ef1                	and	a3,a3,a2
    187e:	c714                	sw	a3,8(a4)
    1880:	477d                	li	a4,31
    1882:	00f76563          	bltu	a4,a5,188c <RFEND_RXFilter+0x9a>
    1886:	82f189a3          	sb	a5,-1997(gp) # 20001183 <gTuneFilter2M>
    188a:	8082                	ret
    188c:	82e189a3          	sb	a4,-1997(gp) # 20001183 <gTuneFilter2M>
    1890:	8082                	ret

00001892 <RFEND_RXAdc>:
RFEND_RXAdc():
    1892:	83418793          	addi	a5,gp,-1996 # 20001184 <gptrRFENDReg>
    1896:	439c                	lw	a5,0(a5)
    1898:	7741                	lui	a4,0xffff0
    189a:	177d                	addi	a4,a4,-1 # fffeffff <_eusrstack+0xdffecfff>
    189c:	4fb4                	lw	a3,88(a5)
    189e:	6641                	lui	a2,0x10
    18a0:	8ef9                	and	a3,a3,a4
    18a2:	cfb4                	sw	a3,88(a5)
    18a4:	4794                	lw	a3,8(a5)
    18a6:	8ed1                	or	a3,a3,a2
    18a8:	c794                	sw	a3,8(a5)
    18aa:	47d4                	lw	a3,12(a5)
    18ac:	eff6f693          	andi	a3,a3,-257
    18b0:	c7d4                	sw	a3,12(a5)
    18b2:	43d4                	lw	a3,4(a5)
    18b4:	8f75                	and	a4,a4,a3
    18b6:	c3d8                	sw	a4,4(a5)
    18b8:	47d4                	lw	a3,12(a5)
    18ba:	1006e693          	ori	a3,a3,256
    18be:	c7d4                	sw	a3,12(a5)
    18c0:	43d8                	lw	a4,4(a5)
    18c2:	8f51                	or	a4,a4,a2
    18c4:	c3d8                	sw	a4,4(a5)
    18c6:	8082                	ret

000018c8 <RFEND_WaitTune>:
RFEND_WaitTune():
    18c8:	82818793          	addi	a5,gp,-2008 # 20001178 <gptrLLEReg>
    18cc:	4398                	lw	a4,0(a5)
    18ce:	6789                	lui	a5,0x2
    18d0:	f4078793          	addi	a5,a5,-192 # 1f40 <RFEND_TXCtune+0x646>
    18d4:	d37c                	sw	a5,100(a4)
    18d6:	83418793          	addi	a5,gp,-1996 # 20001184 <gptrRFENDReg>
    18da:	439c                	lw	a5,0(a5)
    18dc:	0907a683          	lw	a3,144(a5)
    18e0:	00569613          	slli	a2,a3,0x5
    18e4:	00065863          	bgez	a2,18f4 <RFEND_WaitTune+0x2c>
    18e8:	0907a683          	lw	a3,144(a5)
    18ec:	00669613          	slli	a2,a3,0x6
    18f0:	00064463          	bltz	a2,18f8 <RFEND_WaitTune+0x30>
    18f4:	5374                	lw	a3,100(a4)
    18f6:	f2fd                	bnez	a3,18dc <RFEND_WaitTune+0x14>
    18f8:	8082                	ret

000018fa <RFEND_TXCtune>:
RFEND_TXCtune():
    18fa:	7139                	addi	sp,sp,-64
    18fc:	dc22                	sw	s0,56(sp)
    18fe:	83418413          	addi	s0,gp,-1996 # 20001184 <gptrRFENDReg>
    1902:	401c                	lw	a5,0(s0)
    1904:	de06                	sw	ra,60(sp)
    1906:	da26                	sw	s1,52(sp)
    1908:	d84a                	sw	s2,48(sp)
    190a:	d64e                	sw	s3,44(sp)
    190c:	d452                	sw	s4,40(sp)
    190e:	d256                	sw	s5,36(sp)
    1910:	d05a                	sw	s6,32(sp)
    1912:	ce5e                	sw	s7,28(sp)
    1914:	cc62                	sw	s8,24(sp)
    1916:	ca66                	sw	s9,20(sp)
    1918:	c86a                	sw	s10,16(sp)
    191a:	c66e                	sw	s11,12(sp)
    191c:	43d8                	lw	a4,4(a5)
    191e:	76fd                	lui	a3,0xfffff
    1920:	16fd                	addi	a3,a3,-1 # ffffefff <_eusrstack+0xdfffbfff>
    1922:	eff77713          	andi	a4,a4,-257
    1926:	c3d8                	sw	a4,4(a5)
    1928:	5798                	lw	a4,40(a5)
    192a:	8f75                	and	a4,a4,a3
    192c:	d798                	sw	a4,40(a5)
    192e:	57d8                	lw	a4,44(a5)
    1930:	000206b7          	lui	a3,0x20
    1934:	9b3d                	andi	a4,a4,-17
    1936:	d7d8                	sw	a4,44(a5)
    1938:	4798                	lw	a4,8(a5)
    193a:	8f55                	or	a4,a4,a3
    193c:	c798                	sw	a4,8(a5)
    193e:	43d8                	lw	a4,4(a5)
    1940:	01076713          	ori	a4,a4,16
    1944:	c3d8                	sw	a4,4(a5)
    1946:	6705                	lui	a4,0x1
    1948:	8301d683          	lhu	a3,-2000(gp) # 20001180 <ftuneFlag>
    194c:	23470713          	addi	a4,a4,564 # 1234 <GPIOA_ModeCfg+0x32>
    1950:	72e68063          	beq	a3,a4,2070 <RFEND_TXCtune+0x776>
    1954:	43d8                	lw	a4,4(a5)
    1956:	7481                	lui	s1,0xfffe0
    1958:	0ff48493          	addi	s1,s1,255 # fffe00ff <_eusrstack+0xdffdd0ff>
    195c:	9b79                	andi	a4,a4,-2
    195e:	c3d8                	sw	a4,4(a5)
    1960:	5f98                	lw	a4,56(a5)
    1962:	66b1                	lui	a3,0xc
    1964:	f0068693          	addi	a3,a3,-256 # bf00 <_data_lma+0x8a58>
    1968:	8f65                	and	a4,a4,s1
    196a:	8f55                	or	a4,a4,a3
    196c:	df98                	sw	a4,56(a5)
    196e:	43d8                	lw	a4,4(a5)
    1970:	00176713          	ori	a4,a4,1
    1974:	c3d8                	sw	a4,4(a5)
    1976:	3f89                	jal	18c8 <RFEND_WaitTune>
    1978:	401c                	lw	a5,0(s0)
    197a:	0907a703          	lw	a4,144(a5)
    197e:	03f77713          	andi	a4,a4,63
    1982:	82e18c23          	sb	a4,-1992(gp) # 20001188 <nCO2401>
    1986:	0947a703          	lw	a4,148(a5)
    198a:	8329                	srli	a4,a4,0xa
    198c:	07f77713          	andi	a4,a4,127
    1990:	82e18e23          	sb	a4,-1988(gp) # 2000118c <nGA2401>
    1994:	43d8                	lw	a4,4(a5)
    1996:	66b9                	lui	a3,0xe
    1998:	70068693          	addi	a3,a3,1792 # e700 <_data_lma+0xb258>
    199c:	9b79                	andi	a4,a4,-2
    199e:	c3d8                	sw	a4,4(a5)
    19a0:	5f98                	lw	a4,56(a5)
    19a2:	8f65                	and	a4,a4,s1
    19a4:	8f55                	or	a4,a4,a3
    19a6:	df98                	sw	a4,56(a5)
    19a8:	43d8                	lw	a4,4(a5)
    19aa:	00176713          	ori	a4,a4,1
    19ae:	c3d8                	sw	a4,4(a5)
    19b0:	3f21                	jal	18c8 <RFEND_WaitTune>
    19b2:	401c                	lw	a5,0(s0)
    19b4:	0907a703          	lw	a4,144(a5)
    19b8:	03f77713          	andi	a4,a4,63
    19bc:	82e18d23          	sb	a4,-1990(gp) # 2000118a <nCO2480>
    19c0:	0947a703          	lw	a4,148(a5)
    19c4:	8329                	srli	a4,a4,0xa
    19c6:	07f77713          	andi	a4,a4,127
    19ca:	82e18f23          	sb	a4,-1986(gp) # 2000118e <nGA2480>
    19ce:	43d8                	lw	a4,4(a5)
    19d0:	66b5                	lui	a3,0xd
    19d2:	30068693          	addi	a3,a3,768 # d300 <_data_lma+0x9e58>
    19d6:	9b79                	andi	a4,a4,-2
    19d8:	c3d8                	sw	a4,4(a5)
    19da:	5f98                	lw	a4,56(a5)
    19dc:	8f65                	and	a4,a4,s1
    19de:	8f55                	or	a4,a4,a3
    19e0:	df98                	sw	a4,56(a5)
    19e2:	43d8                	lw	a4,4(a5)
    19e4:	00176713          	ori	a4,a4,1
    19e8:	c3d8                	sw	a4,4(a5)
    19ea:	3df9                	jal	18c8 <RFEND_WaitTune>
    19ec:	401c                	lw	a5,0(s0)
    19ee:	0907a703          	lw	a4,144(a5)
    19f2:	03f77713          	andi	a4,a4,63
    19f6:	82e18ca3          	sb	a4,-1991(gp) # 20001189 <nCO2440>
    19fa:	0947a703          	lw	a4,148(a5)
    19fe:	8329                	srli	a4,a4,0xa
    1a00:	07f77713          	andi	a4,a4,127
    1a04:	82e18ea3          	sb	a4,-1987(gp) # 2000118d <nGA2440>
    1a08:	43d8                	lw	a4,4(a5)
    1a0a:	9b79                	andi	a4,a4,-2
    1a0c:	c3d8                	sw	a4,4(a5)
    1a0e:	5f98                	lw	a4,56(a5)
    1a10:	8cf9                	and	s1,s1,a4
    1a12:	6741                	lui	a4,0x10
    1a14:	c0070713          	addi	a4,a4,-1024 # fc00 <_data_lma+0xc758>
    1a18:	8cd9                	or	s1,s1,a4
    1a1a:	df84                	sw	s1,56(a5)
    1a1c:	43d8                	lw	a4,4(a5)
    1a1e:	00176713          	ori	a4,a4,1
    1a22:	c3d8                	sw	a4,4(a5)
    1a24:	3555                	jal	18c8 <RFEND_WaitTune>
    1a26:	4018                	lw	a4,0(s0)
    1a28:	09072783          	lw	a5,144(a4)
    1a2c:	03f7f793          	andi	a5,a5,63
    1a30:	82f18da3          	sb	a5,-1989(gp) # 2000118b <nCO2522>
    1a34:	09472783          	lw	a5,148(a4)
    1a38:	83a9                	srli	a5,a5,0xa
    1a3a:	07f7f793          	andi	a5,a5,127
    1a3e:	82f18fa3          	sb	a5,-1985(gp) # 2000118f <nGA2522>
    1a42:	8391cc83          	lbu	s9,-1991(gp) # 20001189 <nCO2440>
    1a46:	8381c703          	lbu	a4,-1992(gp) # 20001188 <nCO2401>
    1a4a:	41970733          	sub	a4,a4,s9
    1a4e:	02600793          	li	a5,38
    1a52:	02500613          	li	a2,37
    1a56:	02f707b3          	mul	a5,a4,a5
    1a5a:	02700693          	li	a3,39
    1a5e:	02400513          	li	a0,36
    1a62:	02300813          	li	a6,35
    1a66:	02200e13          	li	t3,34
    1a6a:	02100e93          	li	t4,33
    1a6e:	400c                	lw	a1,0(s0)
    1a70:	4f79                	li	t5,30
    1a72:	4ff5                	li	t6,29
    1a74:	42fd                	li	t0,31
    1a76:	02c70633          	mul	a2,a4,a2
    1a7a:	4a71                	li	s4,28
    1a7c:	4aed                	li	s5,27
    1a7e:	4b65                	li	s6,25
    1a80:	4be1                	li	s7,24
    1a82:	43d9                	li	t2,22
    1a84:	4455                	li	s0,21
    1a86:	435d                	li	t1,23
    1a88:	4dd1                	li	s11,20
    1a8a:	44cd                	li	s1,19
    1a8c:	02d7c7b3          	div	a5,a5,a3
    1a90:	4949                	li	s2,18
    1a92:	4c45                	li	s8,17
    1a94:	49b9                	li	s3,14
    1a96:	4d29                	li	s10,10
    1a98:	02d64633          	div	a2,a2,a3
    1a9c:	0792                	slli	a5,a5,0x4
    1a9e:	0622                	slli	a2,a2,0x8
    1aa0:	8fd1                	or	a5,a5,a2
    1aa2:	02a70633          	mul	a2,a4,a0
    1aa6:	8fd9                	or	a5,a5,a4
    1aa8:	02d64633          	div	a2,a2,a3
    1aac:	0632                	slli	a2,a2,0xc
    1aae:	8fd1                	or	a5,a5,a2
    1ab0:	03070633          	mul	a2,a4,a6
    1ab4:	4869                	li	a6,26
    1ab6:	02d64633          	div	a2,a2,a3
    1aba:	0642                	slli	a2,a2,0x10
    1abc:	8fd1                	or	a5,a5,a2
    1abe:	03c70633          	mul	a2,a4,t3
    1ac2:	4e3d                	li	t3,15
    1ac4:	02d64633          	div	a2,a2,a3
    1ac8:	0652                	slli	a2,a2,0x14
    1aca:	8fd1                	or	a5,a5,a2
    1acc:	03d70633          	mul	a2,a4,t4
    1ad0:	4ea5                	li	t4,9
    1ad2:	02d64633          	div	a2,a2,a3
    1ad6:	0662                	slli	a2,a2,0x18
    1ad8:	8fd1                	or	a5,a5,a2
    1ada:	00571613          	slli	a2,a4,0x5
    1ade:	02d64633          	div	a2,a2,a3
    1ae2:	0672                	slli	a2,a2,0x1c
    1ae4:	8fd1                	or	a5,a5,a2
    1ae6:	0af5a023          	sw	a5,160(a1)
    1aea:	03f70633          	mul	a2,a4,t6
    1aee:	4f99                	li	t6,6
    1af0:	03e707b3          	mul	a5,a4,t5
    1af4:	4f1d                	li	t5,7
    1af6:	02d7c7b3          	div	a5,a5,a3
    1afa:	02d64633          	div	a2,a2,a3
    1afe:	0792                	slli	a5,a5,0x4
    1b00:	0622                	slli	a2,a2,0x8
    1b02:	8fd1                	or	a5,a5,a2
    1b04:	02570633          	mul	a2,a4,t0
    1b08:	428d                	li	t0,3
    1b0a:	02d64633          	div	a2,a2,a3
    1b0e:	8fd1                	or	a5,a5,a2
    1b10:	03470633          	mul	a2,a4,s4
    1b14:	4a35                	li	s4,13
    1b16:	02d64633          	div	a2,a2,a3
    1b1a:	0632                	slli	a2,a2,0xc
    1b1c:	8fd1                	or	a5,a5,a2
    1b1e:	03570633          	mul	a2,a4,s5
    1b22:	4ab1                	li	s5,12
    1b24:	02d64633          	div	a2,a2,a3
    1b28:	0642                	slli	a2,a2,0x10
    1b2a:	8fd1                	or	a5,a5,a2
    1b2c:	03070633          	mul	a2,a4,a6
    1b30:	02d64633          	div	a2,a2,a3
    1b34:	0652                	slli	a2,a2,0x14
    1b36:	8fd1                	or	a5,a5,a2
    1b38:	03670633          	mul	a2,a4,s6
    1b3c:	4b2d                	li	s6,11
    1b3e:	02d64633          	div	a2,a2,a3
    1b42:	0662                	slli	a2,a2,0x18
    1b44:	8fd1                	or	a5,a5,a2
    1b46:	03770633          	mul	a2,a4,s7
    1b4a:	02d64633          	div	a2,a2,a3
    1b4e:	0672                	slli	a2,a2,0x1c
    1b50:	8fd1                	or	a5,a5,a2
    1b52:	0af5a223          	sw	a5,164(a1)
    1b56:	02870633          	mul	a2,a4,s0
    1b5a:	027707b3          	mul	a5,a4,t2
    1b5e:	02d64633          	div	a2,a2,a3
    1b62:	02d7c7b3          	div	a5,a5,a3
    1b66:	0622                	slli	a2,a2,0x8
    1b68:	0792                	slli	a5,a5,0x4
    1b6a:	8fd1                	or	a5,a5,a2
    1b6c:	02670633          	mul	a2,a4,t1
    1b70:	02d64633          	div	a2,a2,a3
    1b74:	8fd1                	or	a5,a5,a2
    1b76:	03b70633          	mul	a2,a4,s11
    1b7a:	02d64633          	div	a2,a2,a3
    1b7e:	0632                	slli	a2,a2,0xc
    1b80:	8fd1                	or	a5,a5,a2
    1b82:	02970633          	mul	a2,a4,s1
    1b86:	02d64633          	div	a2,a2,a3
    1b8a:	0642                	slli	a2,a2,0x10
    1b8c:	8fd1                	or	a5,a5,a2
    1b8e:	03270633          	mul	a2,a4,s2
    1b92:	02d64633          	div	a2,a2,a3
    1b96:	0652                	slli	a2,a2,0x14
    1b98:	8fd1                	or	a5,a5,a2
    1b9a:	03870633          	mul	a2,a4,s8
    1b9e:	02d64633          	div	a2,a2,a3
    1ba2:	0662                	slli	a2,a2,0x18
    1ba4:	8fd1                	or	a5,a5,a2
    1ba6:	00471613          	slli	a2,a4,0x4
    1baa:	02d64633          	div	a2,a2,a3
    1bae:	0672                	slli	a2,a2,0x1c
    1bb0:	8fd1                	or	a5,a5,a2
    1bb2:	03c70633          	mul	a2,a4,t3
    1bb6:	0af5a423          	sw	a5,168(a1)
    1bba:	025747b3          	div	a5,a4,t0
    1bbe:	02d64533          	div	a0,a2,a3
    1bc2:	07a2                	slli	a5,a5,0x8
    1bc4:	00f56633          	or	a2,a0,a5
    1bc8:	033707b3          	mul	a5,a4,s3
    1bcc:	4515                	li	a0,5
    1bce:	02d7c7b3          	div	a5,a5,a3
    1bd2:	0792                	slli	a5,a5,0x4
    1bd4:	8fd1                	or	a5,a5,a2
    1bd6:	03570633          	mul	a2,a4,s5
    1bda:	02d64633          	div	a2,a2,a3
    1bde:	0632                	slli	a2,a2,0xc
    1be0:	8fd1                	or	a5,a5,a2
    1be2:	03670633          	mul	a2,a4,s6
    1be6:	02d64633          	div	a2,a2,a3
    1bea:	0642                	slli	a2,a2,0x10
    1bec:	8fd1                	or	a5,a5,a2
    1bee:	03a70633          	mul	a2,a4,s10
    1bf2:	02d64633          	div	a2,a2,a3
    1bf6:	0652                	slli	a2,a2,0x14
    1bf8:	8fd1                	or	a5,a5,a2
    1bfa:	03d70633          	mul	a2,a4,t4
    1bfe:	02d64633          	div	a2,a2,a3
    1c02:	0662                	slli	a2,a2,0x18
    1c04:	8fd1                	or	a5,a5,a2
    1c06:	00371613          	slli	a2,a4,0x3
    1c0a:	02d64633          	div	a2,a2,a3
    1c0e:	0672                	slli	a2,a2,0x1c
    1c10:	8fd1                	or	a5,a5,a2
    1c12:	0af5a623          	sw	a5,172(a1)
    1c16:	03e707b3          	mul	a5,a4,t5
    1c1a:	02d7c633          	div	a2,a5,a3
    1c1e:	034747b3          	div	a5,a4,s4
    1c22:	07c2                	slli	a5,a5,0x10
    1c24:	8fd1                	or	a5,a5,a2
    1c26:	02d74633          	div	a2,a4,a3
    1c2a:	0662                	slli	a2,a2,0x18
    1c2c:	8fd1                	or	a5,a5,a2
    1c2e:	03f70633          	mul	a2,a4,t6
    1c32:	02d64633          	div	a2,a2,a3
    1c36:	0612                	slli	a2,a2,0x4
    1c38:	8fd1                	or	a5,a5,a2
    1c3a:	02a70633          	mul	a2,a4,a0
    1c3e:	02d64633          	div	a2,a2,a3
    1c42:	0622                	slli	a2,a2,0x8
    1c44:	8fd1                	or	a5,a5,a2
    1c46:	00271613          	slli	a2,a4,0x2
    1c4a:	02d64633          	div	a2,a2,a3
    1c4e:	0632                	slli	a2,a2,0xc
    1c50:	8fd1                	or	a5,a5,a2
    1c52:	00171613          	slli	a2,a4,0x1
    1c56:	02d64633          	div	a2,a2,a3
    1c5a:	0652                	slli	a2,a2,0x14
    1c5c:	8fd1                	or	a5,a5,a2
    1c5e:	0af5a823          	sw	a5,176(a1)
    1c62:	83a1c783          	lbu	a5,-1990(gp) # 2000118a <nCO2480>
    1c66:	40fc87b3          	sub	a5,s9,a5
    1c6a:	03a7c8b3          	div	a7,a5,s10
    1c6e:	02800613          	li	a2,40
    1c72:	03b7cdb3          	div	s11,a5,s11
    1c76:	08b2                	slli	a7,a7,0xc
    1c78:	0d92                	slli	s11,s11,0x4
    1c7a:	011dedb3          	or	s11,s11,a7
    1c7e:	02c7c8b3          	div	a7,a5,a2
    1c82:	011dedb3          	or	s11,s11,a7
    1c86:	48a1                	li	a7,8
    1c88:	0317c8b3          	div	a7,a5,a7
    1c8c:	08c2                	slli	a7,a7,0x10
    1c8e:	011de8b3          	or	a7,s11,a7
    1c92:	02a7cdb3          	div	s11,a5,a0
    1c96:	0df2                	slli	s11,s11,0x1c
    1c98:	01b8e8b3          	or	a7,a7,s11
    1c9c:	02578db3          	mul	s11,a5,t0
    1ca0:	02cdcdb3          	div	s11,s11,a2
    1ca4:	0da2                	slli	s11,s11,0x8
    1ca6:	01b8e8b3          	or	a7,a7,s11
    1caa:	03f78db3          	mul	s11,a5,t6
    1cae:	02cdcdb3          	div	s11,s11,a2
    1cb2:	0dd2                	slli	s11,s11,0x14
    1cb4:	01b8e8b3          	or	a7,a7,s11
    1cb8:	03e78db3          	mul	s11,a5,t5
    1cbc:	02cdcdb3          	div	s11,s11,a2
    1cc0:	0de2                	slli	s11,s11,0x18
    1cc2:	01b8e8b3          	or	a7,a7,s11
    1cc6:	03d78db3          	mul	s11,a5,t4
    1cca:	0b15aa23          	sw	a7,180(a1)
    1cce:	4891                	li	a7,4
    1cd0:	0317c8b3          	div	a7,a5,a7
    1cd4:	02cdcdb3          	div	s11,s11,a2
    1cd8:	0892                	slli	a7,a7,0x4
    1cda:	011de8b3          	or	a7,s11,a7
    1cde:	03678db3          	mul	s11,a5,s6
    1ce2:	4b65                	li	s6,25
    1ce4:	02cdcdb3          	div	s11,s11,a2
    1ce8:	0da2                	slli	s11,s11,0x8
    1cea:	01b8e8b3          	or	a7,a7,s11
    1cee:	03578db3          	mul	s11,a5,s5
    1cf2:	4aed                	li	s5,27
    1cf4:	02cdcdb3          	div	s11,s11,a2
    1cf8:	0db2                	slli	s11,s11,0xc
    1cfa:	01b8e8b3          	or	a7,a7,s11
    1cfe:	03478db3          	mul	s11,a5,s4
    1d02:	4a71                	li	s4,28
    1d04:	02cdcdb3          	div	s11,s11,a2
    1d08:	0dc2                	slli	s11,s11,0x10
    1d0a:	01b8e8b3          	or	a7,a7,s11
    1d0e:	03378db3          	mul	s11,a5,s3
    1d12:	49f5                	li	s3,29
    1d14:	02cdcdb3          	div	s11,s11,a2
    1d18:	0dd2                	slli	s11,s11,0x14
    1d1a:	01b8e8b3          	or	a7,a7,s11
    1d1e:	03c78db3          	mul	s11,a5,t3
    1d22:	02200e13          	li	t3,34
    1d26:	02cdcdb3          	div	s11,s11,a2
    1d2a:	0de2                	slli	s11,s11,0x18
    1d2c:	01b8edb3          	or	s11,a7,s11
    1d30:	00479893          	slli	a7,a5,0x4
    1d34:	02c8c8b3          	div	a7,a7,a2
    1d38:	03878c33          	mul	s8,a5,s8
    1d3c:	08f2                	slli	a7,a7,0x1c
    1d3e:	011dedb3          	or	s11,s11,a7
    1d42:	4889                	li	a7,2
    1d44:	0bb5ac23          	sw	s11,184(a1)
    1d48:	0317c8b3          	div	a7,a5,a7
    1d4c:	02cc4c33          	div	s8,s8,a2
    1d50:	08b2                	slli	a7,a7,0xc
    1d52:	011c6c33          	or	s8,s8,a7
    1d56:	032788b3          	mul	a7,a5,s2
    1d5a:	4979                	li	s2,30
    1d5c:	02c8c8b3          	div	a7,a7,a2
    1d60:	0892                	slli	a7,a7,0x4
    1d62:	011c6c33          	or	s8,s8,a7
    1d66:	029788b3          	mul	a7,a5,s1
    1d6a:	02500493          	li	s1,37
    1d6e:	02c8c8b3          	div	a7,a7,a2
    1d72:	08a2                	slli	a7,a7,0x8
    1d74:	011c6c33          	or	s8,s8,a7
    1d78:	028788b3          	mul	a7,a5,s0
    1d7c:	02600413          	li	s0,38
    1d80:	02c8c8b3          	div	a7,a7,a2
    1d84:	08c2                	slli	a7,a7,0x10
    1d86:	011c6c33          	or	s8,s8,a7
    1d8a:	027788b3          	mul	a7,a5,t2
    1d8e:	02100393          	li	t2,33
    1d92:	02c8c8b3          	div	a7,a7,a2
    1d96:	08d2                	slli	a7,a7,0x14
    1d98:	011c6c33          	or	s8,s8,a7
    1d9c:	026788b3          	mul	a7,a5,t1
    1da0:	02300313          	li	t1,35
    1da4:	02c8c8b3          	div	a7,a7,a2
    1da8:	08e2                	slli	a7,a7,0x18
    1daa:	011c6c33          	or	s8,s8,a7
    1dae:	037788b3          	mul	a7,a5,s7
    1db2:	02c8c8b3          	div	a7,a7,a2
    1db6:	08f2                	slli	a7,a7,0x1c
    1db8:	011c68b3          	or	a7,s8,a7
    1dbc:	0b15ae23          	sw	a7,188(a1)
    1dc0:	03078833          	mul	a6,a5,a6
    1dc4:	035788b3          	mul	a7,a5,s5
    1dc8:	02c84833          	div	a6,a6,a2
    1dcc:	02c8c8b3          	div	a7,a7,a2
    1dd0:	0812                	slli	a6,a6,0x4
    1dd2:	08a2                	slli	a7,a7,0x8
    1dd4:	01186833          	or	a6,a6,a7
    1dd8:	036788b3          	mul	a7,a5,s6
    1ddc:	02c8c8b3          	div	a7,a7,a2
    1de0:	01186833          	or	a6,a6,a7
    1de4:	034788b3          	mul	a7,a5,s4
    1de8:	02c8c8b3          	div	a7,a7,a2
    1dec:	08b2                	slli	a7,a7,0xc
    1dee:	01186833          	or	a6,a6,a7
    1df2:	033788b3          	mul	a7,a5,s3
    1df6:	02c8c8b3          	div	a7,a7,a2
    1dfa:	08c2                	slli	a7,a7,0x10
    1dfc:	01186833          	or	a6,a6,a7
    1e00:	032788b3          	mul	a7,a5,s2
    1e04:	497d                	li	s2,31
    1e06:	02c8c8b3          	div	a7,a7,a2
    1e0a:	08d2                	slli	a7,a7,0x14
    1e0c:	01186833          	or	a6,a6,a7
    1e10:	032788b3          	mul	a7,a5,s2
    1e14:	02c8c8b3          	div	a7,a7,a2
    1e18:	08e2                	slli	a7,a7,0x18
    1e1a:	01186833          	or	a6,a6,a7
    1e1e:	00579893          	slli	a7,a5,0x5
    1e22:	02c8c8b3          	div	a7,a7,a2
    1e26:	08f2                	slli	a7,a7,0x1c
    1e28:	01186833          	or	a6,a6,a7
    1e2c:	0d05a023          	sw	a6,192(a1)
    1e30:	02778833          	mul	a6,a5,t2
    1e34:	01c79893          	slli	a7,a5,0x1c
    1e38:	02c84833          	div	a6,a6,a2
    1e3c:	01186833          	or	a6,a6,a7
    1e40:	03c788b3          	mul	a7,a5,t3
    1e44:	02c8c8b3          	div	a7,a7,a2
    1e48:	0892                	slli	a7,a7,0x4
    1e4a:	01186833          	or	a6,a6,a7
    1e4e:	026788b3          	mul	a7,a5,t1
    1e52:	02c8c8b3          	div	a7,a7,a2
    1e56:	08a2                	slli	a7,a7,0x8
    1e58:	01186833          	or	a6,a6,a7
    1e5c:	02400893          	li	a7,36
    1e60:	031788b3          	mul	a7,a5,a7
    1e64:	02c8c8b3          	div	a7,a7,a2
    1e68:	08b2                	slli	a7,a7,0xc
    1e6a:	01186833          	or	a6,a6,a7
    1e6e:	029788b3          	mul	a7,a5,s1
    1e72:	02c8c8b3          	div	a7,a7,a2
    1e76:	08c2                	slli	a7,a7,0x10
    1e78:	01186833          	or	a6,a6,a7
    1e7c:	028788b3          	mul	a7,a5,s0
    1e80:	02d786b3          	mul	a3,a5,a3
    1e84:	02c8c8b3          	div	a7,a7,a2
    1e88:	02c6c6b3          	div	a3,a3,a2
    1e8c:	08d2                	slli	a7,a7,0x14
    1e8e:	01186833          	or	a6,a6,a7
    1e92:	06e2                	slli	a3,a3,0x18
    1e94:	00d866b3          	or	a3,a6,a3
    1e98:	0cd5a223          	sw	a3,196(a1)
    1e9c:	02900693          	li	a3,41
    1ea0:	02d786b3          	mul	a3,a5,a3
    1ea4:	0c85a803          	lw	a6,200(a1)
    1ea8:	ff087813          	andi	a6,a6,-16
    1eac:	02c6c6b3          	div	a3,a3,a2
    1eb0:	8abd                	andi	a3,a3,15
    1eb2:	00d866b3          	or	a3,a6,a3
    1eb6:	0cd5a423          	sw	a3,200(a1)
    1eba:	02a00693          	li	a3,42
    1ebe:	02d786b3          	mul	a3,a5,a3
    1ec2:	02c6c633          	div	a2,a3,a2
    1ec6:	0c85a683          	lw	a3,200(a1)
    1eca:	f0f6f693          	andi	a3,a3,-241
    1ece:	8a3d                	andi	a2,a2,15
    1ed0:	0612                	slli	a2,a2,0x4
    1ed2:	8e55                	or	a2,a2,a3
    1ed4:	0cc5a423          	sw	a2,200(a1)
    1ed8:	83d1c603          	lbu	a2,-1987(gp) # 2000118d <nGA2440>
    1edc:	83e1c803          	lbu	a6,-1986(gp) # 2000118e <nGA2480>
    1ee0:	41060833          	sub	a6,a2,a6
    1ee4:	03a806b3          	mul	a3,a6,s10
    1ee8:	0c85a303          	lw	t1,200(a1)
    1eec:	02a808b3          	mul	a7,a6,a0
    1ef0:	02f6c6b3          	div	a3,a3,a5
    1ef4:	02f8c8b3          	div	a7,a7,a5
    1ef8:	06a2                	slli	a3,a3,0x8
    1efa:	08f2                	slli	a7,a7,0x1c
    1efc:	0116e6b3          	or	a3,a3,a7
    1f00:	03d808b3          	mul	a7,a6,t4
    1f04:	02f8c8b3          	div	a7,a7,a5
    1f08:	08b2                	slli	a7,a7,0xc
    1f0a:	0116e6b3          	or	a3,a3,a7
    1f0e:	00381893          	slli	a7,a6,0x3
    1f12:	02f8c8b3          	div	a7,a7,a5
    1f16:	08c2                	slli	a7,a7,0x10
    1f18:	0116e6b3          	or	a3,a3,a7
    1f1c:	03e808b3          	mul	a7,a6,t5
    1f20:	02f8c8b3          	div	a7,a7,a5
    1f24:	08d2                	slli	a7,a7,0x14
    1f26:	0116e6b3          	or	a3,a3,a7
    1f2a:	03f808b3          	mul	a7,a6,t6
    1f2e:	02f8c8b3          	div	a7,a7,a5
    1f32:	08e2                	slli	a7,a7,0x18
    1f34:	0116e6b3          	or	a3,a3,a7
    1f38:	888898b7          	lui	a7,0x88889
    1f3c:	80088893          	addi	a7,a7,-2048 # 88888800 <_eusrstack+0x68885800>
    1f40:	0116e6b3          	or	a3,a3,a7
    1f44:	0066e6b3          	or	a3,a3,t1
    1f48:	00281893          	slli	a7,a6,0x2
    1f4c:	02f84333          	div	t1,a6,a5
    1f50:	0cd5a423          	sw	a3,200(a1)
    1f54:	83c1c683          	lbu	a3,-1988(gp) # 2000118c <nGA2401>
    1f58:	8e91                	sub	a3,a3,a2
    1f5a:	07f67613          	andi	a2,a2,127
    1f5e:	0662                	slli	a2,a2,0x18
    1f60:	02f8c8b3          	div	a7,a7,a5
    1f64:	0332                	slli	t1,t1,0xc
    1f66:	0068e8b3          	or	a7,a7,t1
    1f6a:	02568333          	mul	t1,a3,t0
    1f6e:	02e34333          	div	t1,t1,a4
    1f72:	025802b3          	mul	t0,a6,t0
    1f76:	0372                	slli	t1,t1,0x1c
    1f78:	0068e8b3          	or	a7,a7,t1
    1f7c:	0806                	slli	a6,a6,0x1
    1f7e:	02e6c333          	div	t1,a3,a4
    1f82:	02f2c2b3          	div	t0,t0,a5
    1f86:	0352                	slli	t1,t1,0x14
    1f88:	0068e8b3          	or	a7,a7,t1
    1f8c:	02f847b3          	div	a5,a6,a5
    1f90:	00169813          	slli	a6,a3,0x1
    1f94:	0292                	slli	t0,t0,0x4
    1f96:	0058e2b3          	or	t0,a7,t0
    1f9a:	02e84833          	div	a6,a6,a4
    1f9e:	07a2                	slli	a5,a5,0x8
    1fa0:	00f2e7b3          	or	a5,t0,a5
    1fa4:	0862                	slli	a6,a6,0x18
    1fa6:	0107e7b3          	or	a5,a5,a6
    1faa:	6825                	lui	a6,0x9
    1fac:	88880813          	addi	a6,a6,-1912 # 8888 <_data_lma+0x53e0>
    1fb0:	0107e7b3          	or	a5,a5,a6
    1fb4:	0cf5a623          	sw	a5,204(a1)
    1fb8:	03f68fb3          	mul	t6,a3,t6
    1fbc:	02a687b3          	mul	a5,a3,a0
    1fc0:	00269513          	slli	a0,a3,0x2
    1fc4:	02e7c7b3          	div	a5,a5,a4
    1fc8:	02efcfb3          	div	t6,t6,a4
    1fcc:	0792                	slli	a5,a5,0x4
    1fce:	02e54533          	div	a0,a0,a4
    1fd2:	0fa2                	slli	t6,t6,0x8
    1fd4:	01f7e7b3          	or	a5,a5,t6
    1fd8:	03e68f33          	mul	t5,a3,t5
    1fdc:	8fc9                	or	a5,a5,a0
    1fde:	00369513          	slli	a0,a3,0x3
    1fe2:	03d68eb3          	mul	t4,a3,t4
    1fe6:	03a68d33          	mul	s10,a3,s10
    1fea:	02ef4f33          	div	t5,t5,a4
    1fee:	02e54533          	div	a0,a0,a4
    1ff2:	0f32                	slli	t5,t5,0xc
    1ff4:	01e7e7b3          	or	a5,a5,t5
    1ff8:	02eeceb3          	div	t4,t4,a4
    1ffc:	0542                	slli	a0,a0,0x10
    1ffe:	8fc9                	or	a5,a5,a0
    2000:	02ed4733          	div	a4,s10,a4
    2004:	0ed2                	slli	t4,t4,0x14
    2006:	01d7eeb3          	or	t4,a5,t4
    200a:	0762                	slli	a4,a4,0x18
    200c:	00eee733          	or	a4,t4,a4
    2010:	0ce5a823          	sw	a4,208(a1)
    2014:	41dc                	lw	a5,4(a1)
    2016:	6705                	lui	a4,0x1
    2018:	9bbd                	andi	a5,a5,-17
    201a:	c1dc                	sw	a5,4(a1)
    201c:	41dc                	lw	a5,4(a1)
    201e:	9bf9                	andi	a5,a5,-2
    2020:	c1dc                	sw	a5,4(a1)
    2022:	559c                	lw	a5,40(a1)
    2024:	8fd9                	or	a5,a5,a4
    2026:	d59c                	sw	a5,40(a1)
    2028:	55dc                	lw	a5,44(a1)
    202a:	81000737          	lui	a4,0x81000
    202e:	177d                	addi	a4,a4,-1 # 80ffffff <_eusrstack+0x60ffcfff>
    2030:	0107e793          	ori	a5,a5,16
    2034:	d5dc                	sw	a5,44(a1)
    2036:	03fcf793          	andi	a5,s9,63
    203a:	0385ac83          	lw	s9,56(a1)
    203e:	fc0cfc93          	andi	s9,s9,-64
    2042:	00fcecb3          	or	s9,s9,a5
    2046:	0395ac23          	sw	s9,56(a1)
    204a:	5d9c                	lw	a5,56(a1)
    204c:	8ff9                	and	a5,a5,a4
    204e:	8e5d                	or	a2,a2,a5
    2050:	dd90                	sw	a2,56(a1)
    2052:	50f2                	lw	ra,60(sp)
    2054:	5462                	lw	s0,56(sp)
    2056:	54d2                	lw	s1,52(sp)
    2058:	5942                	lw	s2,48(sp)
    205a:	59b2                	lw	s3,44(sp)
    205c:	5a22                	lw	s4,40(sp)
    205e:	5a92                	lw	s5,36(sp)
    2060:	5b02                	lw	s6,32(sp)
    2062:	4bf2                	lw	s7,28(sp)
    2064:	4c62                	lw	s8,24(sp)
    2066:	4cd2                	lw	s9,20(sp)
    2068:	4d42                	lw	s10,16(sp)
    206a:	4db2                	lw	s11,12(sp)
    206c:	6121                	addi	sp,sp,64
    206e:	8082                	ret
    2070:	82019823          	sh	zero,-2000(gp) # 20001180 <ftuneFlag>
    2074:	b2f9                	j	1a42 <RFEND_TXCtune+0x148>

00002076 <RFEND_TXFtune>:
RFEND_TXFtune():
    2076:	83418793          	addi	a5,gp,-1996 # 20001184 <gptrRFENDReg>
    207a:	4398                	lw	a4,0(a5)
    207c:	435c                	lw	a5,4(a4)
    207e:	1007e793          	ori	a5,a5,256
    2082:	c35c                	sw	a5,4(a4)
    2084:	8082                	ret

00002086 <iprintf>:
printf():
    2086:	715d                	addi	sp,sp,-80
    2088:	d422                	sw	s0,40(sp)
    208a:	d606                	sw	ra,44(sp)
    208c:	842a                	mv	s0,a0
    208e:	da2e                	sw	a1,52(sp)
    2090:	dc32                	sw	a2,56(sp)
    2092:	de36                	sw	a3,60(sp)
    2094:	c0ba                	sw	a4,64(sp)
    2096:	c2be                	sw	a5,68(sp)
    2098:	c4c2                	sw	a6,72(sp)
    209a:	c6c6                	sw	a7,76(sp)
    209c:	1ffff517          	auipc	a0,0x1ffff
    20a0:	0b852503          	lw	a0,184(a0) # 20001154 <_impure_ptr>
    20a4:	c511                	beqz	a0,20b0 <iprintf+0x2a>
    20a6:	4d1c                	lw	a5,24(a0)
    20a8:	e781                	bnez	a5,20b0 <iprintf+0x2a>
    20aa:	c62a                	sw	a0,12(sp)
    20ac:	2bb1                	jal	2608 <__sinit>
    20ae:	4532                	lw	a0,12(sp)
    20b0:	450c                	lw	a1,8(a0)
    20b2:	1854                	addi	a3,sp,52
    20b4:	8622                	mv	a2,s0
    20b6:	ce36                	sw	a3,28(sp)
    20b8:	213000ef          	jal	ra,2aca <_vfiprintf_r>
    20bc:	50b2                	lw	ra,44(sp)
    20be:	5422                	lw	s0,40(sp)
    20c0:	6161                	addi	sp,sp,80
    20c2:	8082                	ret

000020c4 <_puts_r>:
_puts_r():
    20c4:	1101                	addi	sp,sp,-32
    20c6:	ca26                	sw	s1,20(sp)
    20c8:	ce06                	sw	ra,28(sp)
    20ca:	cc22                	sw	s0,24(sp)
    20cc:	c84a                	sw	s2,16(sp)
    20ce:	c64e                	sw	s3,12(sp)
    20d0:	c452                	sw	s4,8(sp)
    20d2:	84aa                	mv	s1,a0
    20d4:	e119                	bnez	a0,20da <_puts_r+0x16>
    20d6:	451c                	lw	a5,8(a0)
    20d8:	9002                	ebreak
    20da:	4d1c                	lw	a5,24(a0)
    20dc:	892e                	mv	s2,a1
    20de:	e3ad                	bnez	a5,2140 <_puts_r+0x7c>
    20e0:	2325                	jal	2608 <__sinit>
    20e2:	4c9c                	lw	a5,24(s1)
    20e4:	4480                	lw	s0,8(s1)
    20e6:	cfb9                	beqz	a5,2144 <_puts_r+0x80>
    20e8:	00001797          	auipc	a5,0x1
    20ec:	30878793          	addi	a5,a5,776 # 33f0 <__sf_fake_stdin>
    20f0:	04f41d63          	bne	s0,a5,214a <_puts_r+0x86>
    20f4:	40c0                	lw	s0,4(s1)
    20f6:	507c                	lw	a5,100(s0)
    20f8:	8b85                	andi	a5,a5,1
    20fa:	e799                	bnez	a5,2108 <_puts_r+0x44>
    20fc:	245e                	lhu	a5,12(s0)
    20fe:	2007f793          	andi	a5,a5,512
    2102:	e399                	bnez	a5,2108 <_puts_r+0x44>
    2104:	4c28                	lw	a0,88(s0)
    2106:	2dad                	jal	2780 <__retarget_lock_acquire_recursive>
    2108:	245e                	lhu	a5,12(s0)
    210a:	8ba1                	andi	a5,a5,8
    210c:	c399                	beqz	a5,2112 <_puts_r+0x4e>
    210e:	481c                	lw	a5,16(s0)
    2110:	e3d5                	bnez	a5,21b4 <_puts_r+0xf0>
    2112:	85a2                	mv	a1,s0
    2114:	8526                	mv	a0,s1
    2116:	2aad                	jal	2290 <__swsetup_r>
    2118:	cd51                	beqz	a0,21b4 <_puts_r+0xf0>
    211a:	54fd                	li	s1,-1
    211c:	507c                	lw	a5,100(s0)
    211e:	8b85                	andi	a5,a5,1
    2120:	e799                	bnez	a5,212e <_puts_r+0x6a>
    2122:	245e                	lhu	a5,12(s0)
    2124:	2007f793          	andi	a5,a5,512
    2128:	e399                	bnez	a5,212e <_puts_r+0x6a>
    212a:	4c28                	lw	a0,88(s0)
    212c:	2d99                	jal	2782 <__retarget_lock_release_recursive>
    212e:	40f2                	lw	ra,28(sp)
    2130:	4462                	lw	s0,24(sp)
    2132:	4942                	lw	s2,16(sp)
    2134:	49b2                	lw	s3,12(sp)
    2136:	4a22                	lw	s4,8(sp)
    2138:	8526                	mv	a0,s1
    213a:	44d2                	lw	s1,20(sp)
    213c:	6105                	addi	sp,sp,32
    213e:	8082                	ret
    2140:	4500                	lw	s0,8(a0)
    2142:	b75d                	j	20e8 <_puts_r+0x24>
    2144:	8526                	mv	a0,s1
    2146:	21c9                	jal	2608 <__sinit>
    2148:	b745                	j	20e8 <_puts_r+0x24>
    214a:	00001797          	auipc	a5,0x1
    214e:	28678793          	addi	a5,a5,646 # 33d0 <__sf_fake_stdout>
    2152:	00f41463          	bne	s0,a5,215a <_puts_r+0x96>
    2156:	4480                	lw	s0,8(s1)
    2158:	bf79                	j	20f6 <_puts_r+0x32>
    215a:	00001797          	auipc	a5,0x1
    215e:	25678793          	addi	a5,a5,598 # 33b0 <__sf_fake_stderr>
    2162:	f8f41ae3          	bne	s0,a5,20f6 <_puts_r+0x32>
    2166:	44c0                	lw	s0,12(s1)
    2168:	b779                	j	20f6 <_puts_r+0x32>
    216a:	c41c                	sw	a5,8(s0)
    216c:	0905                	addi	s2,s2,1
    216e:	0207c863          	bltz	a5,219e <_puts_r+0xda>
    2172:	401c                	lw	a5,0(s0)
    2174:	00178713          	addi	a4,a5,1
    2178:	c018                	sw	a4,0(s0)
    217a:	a38c                	sb	a1,0(a5)
    217c:	441c                	lw	a5,8(s0)
    217e:	00094583          	lbu	a1,0(s2)
    2182:	17fd                	addi	a5,a5,-1
    2184:	f1fd                	bnez	a1,216a <_puts_r+0xa6>
    2186:	c41c                	sw	a5,8(s0)
    2188:	0207d963          	bgez	a5,21ba <_puts_r+0xf6>
    218c:	8622                	mv	a2,s0
    218e:	45a9                	li	a1,10
    2190:	8526                	mv	a0,s1
    2192:	2089                	jal	21d4 <__swbuf_r>
    2194:	57fd                	li	a5,-1
    2196:	f8f502e3          	beq	a0,a5,211a <_puts_r+0x56>
    219a:	44a9                	li	s1,10
    219c:	b741                	j	211c <_puts_r+0x58>
    219e:	4c18                	lw	a4,24(s0)
    21a0:	00e7c463          	blt	a5,a4,21a8 <_puts_r+0xe4>
    21a4:	fd4597e3          	bne	a1,s4,2172 <_puts_r+0xae>
    21a8:	8622                	mv	a2,s0
    21aa:	8526                	mv	a0,s1
    21ac:	2025                	jal	21d4 <__swbuf_r>
    21ae:	fd3517e3          	bne	a0,s3,217c <_puts_r+0xb8>
    21b2:	b7a5                	j	211a <_puts_r+0x56>
    21b4:	59fd                	li	s3,-1
    21b6:	4a29                	li	s4,10
    21b8:	b7d1                	j	217c <_puts_r+0xb8>
    21ba:	401c                	lw	a5,0(s0)
    21bc:	00178713          	addi	a4,a5,1
    21c0:	c018                	sw	a4,0(s0)
    21c2:	4729                	li	a4,10
    21c4:	a398                	sb	a4,0(a5)
    21c6:	bfd1                	j	219a <_puts_r+0xd6>

000021c8 <puts>:
puts():
    21c8:	85aa                	mv	a1,a0
    21ca:	1ffff517          	auipc	a0,0x1ffff
    21ce:	f8a52503          	lw	a0,-118(a0) # 20001154 <_impure_ptr>
    21d2:	bdcd                	j	20c4 <_puts_r>

000021d4 <__swbuf_r>:
__swbuf_r():
    21d4:	1101                	addi	sp,sp,-32
    21d6:	cc22                	sw	s0,24(sp)
    21d8:	ca26                	sw	s1,20(sp)
    21da:	c84a                	sw	s2,16(sp)
    21dc:	ce06                	sw	ra,28(sp)
    21de:	c64e                	sw	s3,12(sp)
    21e0:	84aa                	mv	s1,a0
    21e2:	892e                	mv	s2,a1
    21e4:	8432                	mv	s0,a2
    21e6:	c501                	beqz	a0,21ee <__swbuf_r+0x1a>
    21e8:	4d1c                	lw	a5,24(a0)
    21ea:	e391                	bnez	a5,21ee <__swbuf_r+0x1a>
    21ec:	2931                	jal	2608 <__sinit>
    21ee:	00001797          	auipc	a5,0x1
    21f2:	20278793          	addi	a5,a5,514 # 33f0 <__sf_fake_stdin>
    21f6:	02f41763          	bne	s0,a5,2224 <__swbuf_r+0x50>
    21fa:	40c0                	lw	s0,4(s1)
    21fc:	4c1c                	lw	a5,24(s0)
    21fe:	c41c                	sw	a5,8(s0)
    2200:	245e                	lhu	a5,12(s0)
    2202:	8ba1                	andi	a5,a5,8
    2204:	c399                	beqz	a5,220a <__swbuf_r+0x36>
    2206:	481c                	lw	a5,16(s0)
    2208:	ef95                	bnez	a5,2244 <__swbuf_r+0x70>
    220a:	85a2                	mv	a1,s0
    220c:	8526                	mv	a0,s1
    220e:	2049                	jal	2290 <__swsetup_r>
    2210:	c915                	beqz	a0,2244 <__swbuf_r+0x70>
    2212:	597d                	li	s2,-1
    2214:	40f2                	lw	ra,28(sp)
    2216:	4462                	lw	s0,24(sp)
    2218:	44d2                	lw	s1,20(sp)
    221a:	49b2                	lw	s3,12(sp)
    221c:	854a                	mv	a0,s2
    221e:	4942                	lw	s2,16(sp)
    2220:	6105                	addi	sp,sp,32
    2222:	8082                	ret
    2224:	00001797          	auipc	a5,0x1
    2228:	1ac78793          	addi	a5,a5,428 # 33d0 <__sf_fake_stdout>
    222c:	00f41463          	bne	s0,a5,2234 <__swbuf_r+0x60>
    2230:	4480                	lw	s0,8(s1)
    2232:	b7e9                	j	21fc <__swbuf_r+0x28>
    2234:	00001797          	auipc	a5,0x1
    2238:	17c78793          	addi	a5,a5,380 # 33b0 <__sf_fake_stderr>
    223c:	fcf410e3          	bne	s0,a5,21fc <__swbuf_r+0x28>
    2240:	44c0                	lw	s0,12(s1)
    2242:	bf6d                	j	21fc <__swbuf_r+0x28>
    2244:	481c                	lw	a5,16(s0)
    2246:	4008                	lw	a0,0(s0)
    2248:	0ff97993          	zext.b	s3,s2
    224c:	0ff97913          	zext.b	s2,s2
    2250:	8d1d                	sub	a0,a0,a5
    2252:	485c                	lw	a5,20(s0)
    2254:	00f54663          	blt	a0,a5,2260 <__swbuf_r+0x8c>
    2258:	85a2                	mv	a1,s0
    225a:	8526                	mv	a0,s1
    225c:	2ca1                	jal	24b4 <_fflush_r>
    225e:	f955                	bnez	a0,2212 <__swbuf_r+0x3e>
    2260:	441c                	lw	a5,8(s0)
    2262:	0505                	addi	a0,a0,1
    2264:	17fd                	addi	a5,a5,-1
    2266:	c41c                	sw	a5,8(s0)
    2268:	401c                	lw	a5,0(s0)
    226a:	00178713          	addi	a4,a5,1
    226e:	c018                	sw	a4,0(s0)
    2270:	01378023          	sb	s3,0(a5)
    2274:	485c                	lw	a5,20(s0)
    2276:	00a78863          	beq	a5,a0,2286 <__swbuf_r+0xb2>
    227a:	245e                	lhu	a5,12(s0)
    227c:	8b85                	andi	a5,a5,1
    227e:	dbd9                	beqz	a5,2214 <__swbuf_r+0x40>
    2280:	47a9                	li	a5,10
    2282:	f8f919e3          	bne	s2,a5,2214 <__swbuf_r+0x40>
    2286:	85a2                	mv	a1,s0
    2288:	8526                	mv	a0,s1
    228a:	242d                	jal	24b4 <_fflush_r>
    228c:	d541                	beqz	a0,2214 <__swbuf_r+0x40>
    228e:	b751                	j	2212 <__swbuf_r+0x3e>

00002290 <__swsetup_r>:
__swsetup_r():
    2290:	1141                	addi	sp,sp,-16
    2292:	c422                	sw	s0,8(sp)
    2294:	c226                	sw	s1,4(sp)
    2296:	c04a                	sw	s2,0(sp)
    2298:	c606                	sw	ra,12(sp)
    229a:	1ffff497          	auipc	s1,0x1ffff
    229e:	eba4a483          	lw	s1,-326(s1) # 20001154 <_impure_ptr>
    22a2:	892a                	mv	s2,a0
    22a4:	842e                	mv	s0,a1
    22a6:	c489                	beqz	s1,22b0 <__swsetup_r+0x20>
    22a8:	4c9c                	lw	a5,24(s1)
    22aa:	e399                	bnez	a5,22b0 <__swsetup_r+0x20>
    22ac:	8526                	mv	a0,s1
    22ae:	2ea9                	jal	2608 <__sinit>
    22b0:	00001797          	auipc	a5,0x1
    22b4:	14078793          	addi	a5,a5,320 # 33f0 <__sf_fake_stdin>
    22b8:	02f41363          	bne	s0,a5,22de <__swsetup_r+0x4e>
    22bc:	40c0                	lw	s0,4(s1)
    22be:	00c41783          	lh	a5,12(s0) # 4000200c <_eusrstack+0x1ffff00c>
    22c2:	0087f713          	andi	a4,a5,8
    22c6:	e725                	bnez	a4,232e <__swsetup_r+0x9e>
    22c8:	0107f713          	andi	a4,a5,16
    22cc:	eb0d                	bnez	a4,22fe <__swsetup_r+0x6e>
    22ce:	4725                	li	a4,9
    22d0:	00e92023          	sw	a4,0(s2)
    22d4:	0407e793          	ori	a5,a5,64
    22d8:	a45e                	sh	a5,12(s0)
    22da:	557d                	li	a0,-1
    22dc:	a071                	j	2368 <__swsetup_r+0xd8>
    22de:	00001797          	auipc	a5,0x1
    22e2:	0f278793          	addi	a5,a5,242 # 33d0 <__sf_fake_stdout>
    22e6:	00f41463          	bne	s0,a5,22ee <__swsetup_r+0x5e>
    22ea:	4480                	lw	s0,8(s1)
    22ec:	bfc9                	j	22be <__swsetup_r+0x2e>
    22ee:	00001797          	auipc	a5,0x1
    22f2:	0c278793          	addi	a5,a5,194 # 33b0 <__sf_fake_stderr>
    22f6:	fcf414e3          	bne	s0,a5,22be <__swsetup_r+0x2e>
    22fa:	44c0                	lw	s0,12(s1)
    22fc:	b7c9                	j	22be <__swsetup_r+0x2e>
    22fe:	8b91                	andi	a5,a5,4
    2300:	c39d                	beqz	a5,2326 <__swsetup_r+0x96>
    2302:	584c                	lw	a1,52(s0)
    2304:	c989                	beqz	a1,2316 <__swsetup_r+0x86>
    2306:	04440793          	addi	a5,s0,68
    230a:	00f58463          	beq	a1,a5,2312 <__swsetup_r+0x82>
    230e:	854a                	mv	a0,s2
    2310:	2bb9                	jal	286e <_free_r>
    2312:	02042a23          	sw	zero,52(s0)
    2316:	245e                	lhu	a5,12(s0)
    2318:	00042223          	sw	zero,4(s0)
    231c:	fdb7f793          	andi	a5,a5,-37
    2320:	a45e                	sh	a5,12(s0)
    2322:	481c                	lw	a5,16(s0)
    2324:	c01c                	sw	a5,0(s0)
    2326:	245e                	lhu	a5,12(s0)
    2328:	0087e793          	ori	a5,a5,8
    232c:	a45e                	sh	a5,12(s0)
    232e:	481c                	lw	a5,16(s0)
    2330:	eb99                	bnez	a5,2346 <__swsetup_r+0xb6>
    2332:	245e                	lhu	a5,12(s0)
    2334:	20000713          	li	a4,512
    2338:	2807f793          	andi	a5,a5,640
    233c:	00e78563          	beq	a5,a4,2346 <__swsetup_r+0xb6>
    2340:	85a2                	mv	a1,s0
    2342:	854a                	mv	a0,s2
    2344:	2961                	jal	27dc <__smakebuf_r>
    2346:	00c41783          	lh	a5,12(s0)
    234a:	0017f713          	andi	a4,a5,1
    234e:	c31d                	beqz	a4,2374 <__swsetup_r+0xe4>
    2350:	4858                	lw	a4,20(s0)
    2352:	00042423          	sw	zero,8(s0)
    2356:	40e00733          	neg	a4,a4
    235a:	cc18                	sw	a4,24(s0)
    235c:	4818                	lw	a4,16(s0)
    235e:	4501                	li	a0,0
    2360:	e701                	bnez	a4,2368 <__swsetup_r+0xd8>
    2362:	0807f713          	andi	a4,a5,128
    2366:	f73d                	bnez	a4,22d4 <__swsetup_r+0x44>
    2368:	40b2                	lw	ra,12(sp)
    236a:	4422                	lw	s0,8(sp)
    236c:	4492                	lw	s1,4(sp)
    236e:	4902                	lw	s2,0(sp)
    2370:	0141                	addi	sp,sp,16
    2372:	8082                	ret
    2374:	0027f713          	andi	a4,a5,2
    2378:	4681                	li	a3,0
    237a:	e311                	bnez	a4,237e <__swsetup_r+0xee>
    237c:	4854                	lw	a3,20(s0)
    237e:	c414                	sw	a3,8(s0)
    2380:	bff1                	j	235c <__swsetup_r+0xcc>

00002382 <__sflush_r>:
__sflush_r():
    2382:	00c59783          	lh	a5,12(a1)
    2386:	1101                	addi	sp,sp,-32
    2388:	cc22                	sw	s0,24(sp)
    238a:	ca26                	sw	s1,20(sp)
    238c:	ce06                	sw	ra,28(sp)
    238e:	c84a                	sw	s2,16(sp)
    2390:	c64e                	sw	s3,12(sp)
    2392:	0087f713          	andi	a4,a5,8
    2396:	84aa                	mv	s1,a0
    2398:	842e                	mv	s0,a1
    239a:	e379                	bnez	a4,2460 <__sflush_r+0xde>
    239c:	41d8                	lw	a4,4(a1)
    239e:	00e04563          	bgtz	a4,23a8 <__sflush_r+0x26>
    23a2:	41b8                	lw	a4,64(a1)
    23a4:	08e05663          	blez	a4,2430 <__sflush_r+0xae>
    23a8:	5458                	lw	a4,44(s0)
    23aa:	c359                	beqz	a4,2430 <__sflush_r+0xae>
    23ac:	0004a903          	lw	s2,0(s1)
    23b0:	0004a023          	sw	zero,0(s1)
    23b4:	500c                	lw	a1,32(s0)
    23b6:	48c7d793          	bexti	a5,a5,0xc
    23ba:	cba9                	beqz	a5,240c <__sflush_r+0x8a>
    23bc:	4870                	lw	a2,84(s0)
    23be:	245e                	lhu	a5,12(s0)
    23c0:	8b91                	andi	a5,a5,4
    23c2:	c799                	beqz	a5,23d0 <__sflush_r+0x4e>
    23c4:	405c                	lw	a5,4(s0)
    23c6:	8e1d                	sub	a2,a2,a5
    23c8:	585c                	lw	a5,52(s0)
    23ca:	c399                	beqz	a5,23d0 <__sflush_r+0x4e>
    23cc:	403c                	lw	a5,64(s0)
    23ce:	8e1d                	sub	a2,a2,a5
    23d0:	545c                	lw	a5,44(s0)
    23d2:	500c                	lw	a1,32(s0)
    23d4:	4681                	li	a3,0
    23d6:	8526                	mv	a0,s1
    23d8:	9782                	jalr	a5
    23da:	57fd                	li	a5,-1
    23dc:	04f50c63          	beq	a0,a5,2434 <__sflush_r+0xb2>
    23e0:	481c                	lw	a5,16(s0)
    23e2:	6705                	lui	a4,0x1
    23e4:	00042223          	sw	zero,4(s0)
    23e8:	c01c                	sw	a5,0(s0)
    23ea:	245e                	lhu	a5,12(s0)
    23ec:	8ff9                	and	a5,a5,a4
    23ee:	c391                	beqz	a5,23f2 <__sflush_r+0x70>
    23f0:	c868                	sw	a0,84(s0)
    23f2:	584c                	lw	a1,52(s0)
    23f4:	0124a023          	sw	s2,0(s1)
    23f8:	cd85                	beqz	a1,2430 <__sflush_r+0xae>
    23fa:	04440793          	addi	a5,s0,68
    23fe:	00f58463          	beq	a1,a5,2406 <__sflush_r+0x84>
    2402:	8526                	mv	a0,s1
    2404:	21ad                	jal	286e <_free_r>
    2406:	02042a23          	sw	zero,52(s0)
    240a:	a01d                	j	2430 <__sflush_r+0xae>
    240c:	4601                	li	a2,0
    240e:	4685                	li	a3,1
    2410:	8526                	mv	a0,s1
    2412:	9702                	jalr	a4
    2414:	57fd                	li	a5,-1
    2416:	862a                	mv	a2,a0
    2418:	faf513e3          	bne	a0,a5,23be <__sflush_r+0x3c>
    241c:	409c                	lw	a5,0(s1)
    241e:	d3c5                	beqz	a5,23be <__sflush_r+0x3c>
    2420:	4775                	li	a4,29
    2422:	00e78563          	beq	a5,a4,242c <__sflush_r+0xaa>
    2426:	4759                	li	a4,22
    2428:	06e79563          	bne	a5,a4,2492 <__sflush_r+0x110>
    242c:	0124a023          	sw	s2,0(s1)
    2430:	4501                	li	a0,0
    2432:	a0b5                	j	249e <__sflush_r+0x11c>
    2434:	4098                	lw	a4,0(s1)
    2436:	00c41783          	lh	a5,12(s0)
    243a:	cf01                	beqz	a4,2452 <__sflush_r+0xd0>
    243c:	46f5                	li	a3,29
    243e:	00d70563          	beq	a4,a3,2448 <__sflush_r+0xc6>
    2442:	46d9                	li	a3,22
    2444:	04d71963          	bne	a4,a3,2496 <__sflush_r+0x114>
    2448:	481c                	lw	a5,16(s0)
    244a:	00042223          	sw	zero,4(s0)
    244e:	c01c                	sw	a5,0(s0)
    2450:	b74d                	j	23f2 <__sflush_r+0x70>
    2452:	4818                	lw	a4,16(s0)
    2454:	00042223          	sw	zero,4(s0)
    2458:	48c7d793          	bexti	a5,a5,0xc
    245c:	c018                	sw	a4,0(s0)
    245e:	bf41                	j	23ee <__sflush_r+0x6c>
    2460:	0105a983          	lw	s3,16(a1)
    2464:	fc0986e3          	beqz	s3,2430 <__sflush_r+0xae>
    2468:	0005a903          	lw	s2,0(a1)
    246c:	8b8d                	andi	a5,a5,3
    246e:	0135a023          	sw	s3,0(a1)
    2472:	41390933          	sub	s2,s2,s3
    2476:	4701                	li	a4,0
    2478:	e391                	bnez	a5,247c <__sflush_r+0xfa>
    247a:	49d8                	lw	a4,20(a1)
    247c:	c418                	sw	a4,8(s0)
    247e:	fb2059e3          	blez	s2,2430 <__sflush_r+0xae>
    2482:	541c                	lw	a5,40(s0)
    2484:	500c                	lw	a1,32(s0)
    2486:	86ca                	mv	a3,s2
    2488:	864e                	mv	a2,s3
    248a:	8526                	mv	a0,s1
    248c:	9782                	jalr	a5
    248e:	00a04f63          	bgtz	a0,24ac <__sflush_r+0x12a>
    2492:	00c41783          	lh	a5,12(s0)
    2496:	0407e793          	ori	a5,a5,64
    249a:	a45e                	sh	a5,12(s0)
    249c:	557d                	li	a0,-1
    249e:	40f2                	lw	ra,28(sp)
    24a0:	4462                	lw	s0,24(sp)
    24a2:	44d2                	lw	s1,20(sp)
    24a4:	4942                	lw	s2,16(sp)
    24a6:	49b2                	lw	s3,12(sp)
    24a8:	6105                	addi	sp,sp,32
    24aa:	8082                	ret
    24ac:	99aa                	add	s3,s3,a0
    24ae:	40a90933          	sub	s2,s2,a0
    24b2:	b7f1                	j	247e <__sflush_r+0xfc>

000024b4 <_fflush_r>:
_fflush_r():
    24b4:	499c                	lw	a5,16(a1)
    24b6:	1141                	addi	sp,sp,-16
    24b8:	c606                	sw	ra,12(sp)
    24ba:	c422                	sw	s0,8(sp)
    24bc:	c226                	sw	s1,4(sp)
    24be:	eb81                	bnez	a5,24ce <_fflush_r+0x1a>
    24c0:	4481                	li	s1,0
    24c2:	40b2                	lw	ra,12(sp)
    24c4:	4422                	lw	s0,8(sp)
    24c6:	8526                	mv	a0,s1
    24c8:	4492                	lw	s1,4(sp)
    24ca:	0141                	addi	sp,sp,16
    24cc:	8082                	ret
    24ce:	84aa                	mv	s1,a0
    24d0:	842e                	mv	s0,a1
    24d2:	c501                	beqz	a0,24da <_fflush_r+0x26>
    24d4:	4d1c                	lw	a5,24(a0)
    24d6:	e391                	bnez	a5,24da <_fflush_r+0x26>
    24d8:	2a05                	jal	2608 <__sinit>
    24da:	00001797          	auipc	a5,0x1
    24de:	f1678793          	addi	a5,a5,-234 # 33f0 <__sf_fake_stdin>
    24e2:	02f41c63          	bne	s0,a5,251a <_fflush_r+0x66>
    24e6:	40c0                	lw	s0,4(s1)
    24e8:	00c41783          	lh	a5,12(s0)
    24ec:	dbf1                	beqz	a5,24c0 <_fflush_r+0xc>
    24ee:	5078                	lw	a4,100(s0)
    24f0:	8b05                	andi	a4,a4,1
    24f2:	e711                	bnez	a4,24fe <_fflush_r+0x4a>
    24f4:	2007f793          	andi	a5,a5,512
    24f8:	e399                	bnez	a5,24fe <_fflush_r+0x4a>
    24fa:	4c28                	lw	a0,88(s0)
    24fc:	2451                	jal	2780 <__retarget_lock_acquire_recursive>
    24fe:	8526                	mv	a0,s1
    2500:	85a2                	mv	a1,s0
    2502:	3541                	jal	2382 <__sflush_r>
    2504:	507c                	lw	a5,100(s0)
    2506:	84aa                	mv	s1,a0
    2508:	8b85                	andi	a5,a5,1
    250a:	ffc5                	bnez	a5,24c2 <_fflush_r+0xe>
    250c:	245e                	lhu	a5,12(s0)
    250e:	2007f793          	andi	a5,a5,512
    2512:	fbc5                	bnez	a5,24c2 <_fflush_r+0xe>
    2514:	4c28                	lw	a0,88(s0)
    2516:	24b5                	jal	2782 <__retarget_lock_release_recursive>
    2518:	b76d                	j	24c2 <_fflush_r+0xe>
    251a:	00001797          	auipc	a5,0x1
    251e:	eb678793          	addi	a5,a5,-330 # 33d0 <__sf_fake_stdout>
    2522:	00f41463          	bne	s0,a5,252a <_fflush_r+0x76>
    2526:	4480                	lw	s0,8(s1)
    2528:	b7c1                	j	24e8 <_fflush_r+0x34>
    252a:	00001797          	auipc	a5,0x1
    252e:	e8678793          	addi	a5,a5,-378 # 33b0 <__sf_fake_stderr>
    2532:	faf41be3          	bne	s0,a5,24e8 <_fflush_r+0x34>
    2536:	44c0                	lw	s0,12(s1)
    2538:	bf45                	j	24e8 <_fflush_r+0x34>

0000253a <std>:
std():
    253a:	1141                	addi	sp,sp,-16
    253c:	c422                	sw	s0,8(sp)
    253e:	c606                	sw	ra,12(sp)
    2540:	842a                	mv	s0,a0
    2542:	a54e                	sh	a1,12(a0)
    2544:	a572                	sh	a2,14(a0)
    2546:	00052023          	sw	zero,0(a0)
    254a:	00052223          	sw	zero,4(a0)
    254e:	00052423          	sw	zero,8(a0)
    2552:	06052223          	sw	zero,100(a0)
    2556:	00052823          	sw	zero,16(a0)
    255a:	00052a23          	sw	zero,20(a0)
    255e:	00052c23          	sw	zero,24(a0)
    2562:	4621                	li	a2,8
    2564:	4581                	li	a1,0
    2566:	05c50513          	addi	a0,a0,92
    256a:	c39fe0ef          	jal	ra,11a2 <memset>
    256e:	00001797          	auipc	a5,0x1
    2572:	83278793          	addi	a5,a5,-1998 # 2da0 <__sread>
    2576:	d05c                	sw	a5,36(s0)
    2578:	00001797          	auipc	a5,0x1
    257c:	85278793          	addi	a5,a5,-1966 # 2dca <__swrite>
    2580:	d41c                	sw	a5,40(s0)
    2582:	00001797          	auipc	a5,0x1
    2586:	88e78793          	addi	a5,a5,-1906 # 2e10 <__sseek>
    258a:	d45c                	sw	a5,44(s0)
    258c:	00001797          	auipc	a5,0x1
    2590:	8b278793          	addi	a5,a5,-1870 # 2e3e <__sclose>
    2594:	40b2                	lw	ra,12(sp)
    2596:	d000                	sw	s0,32(s0)
    2598:	d81c                	sw	a5,48(s0)
    259a:	4422                	lw	s0,8(sp)
    259c:	0141                	addi	sp,sp,16
    259e:	8082                	ret

000025a0 <_cleanup_r>:
_cleanup_r():
    25a0:	00000597          	auipc	a1,0x0
    25a4:	f1458593          	addi	a1,a1,-236 # 24b4 <_fflush_r>
    25a8:	a2bd                	j	2716 <_fwalk_reent>

000025aa <__sfmoreglue>:
__sfmoreglue():
    25aa:	1141                	addi	sp,sp,-16
    25ac:	c226                	sw	s1,4(sp)
    25ae:	06800793          	li	a5,104
    25b2:	fff58493          	addi	s1,a1,-1
    25b6:	02f484b3          	mul	s1,s1,a5
    25ba:	c04a                	sw	s2,0(sp)
    25bc:	892e                	mv	s2,a1
    25be:	c422                	sw	s0,8(sp)
    25c0:	c606                	sw	ra,12(sp)
    25c2:	07448593          	addi	a1,s1,116
    25c6:	2e69                	jal	2960 <_malloc_r>
    25c8:	842a                	mv	s0,a0
    25ca:	cd01                	beqz	a0,25e2 <__sfmoreglue+0x38>
    25cc:	00052023          	sw	zero,0(a0)
    25d0:	01252223          	sw	s2,4(a0)
    25d4:	0531                	addi	a0,a0,12
    25d6:	c408                	sw	a0,8(s0)
    25d8:	06848613          	addi	a2,s1,104
    25dc:	4581                	li	a1,0
    25de:	bc5fe0ef          	jal	ra,11a2 <memset>
    25e2:	40b2                	lw	ra,12(sp)
    25e4:	8522                	mv	a0,s0
    25e6:	4422                	lw	s0,8(sp)
    25e8:	4492                	lw	s1,4(sp)
    25ea:	4902                	lw	s2,0(sp)
    25ec:	0141                	addi	sp,sp,16
    25ee:	8082                	ret

000025f0 <__sfp_lock_acquire>:
__sfp_lock_acquire():
    25f0:	84418513          	addi	a0,gp,-1980 # 20001194 <__lock___sfp_recursive_mutex>
    25f4:	a271                	j	2780 <__retarget_lock_acquire_recursive>

000025f6 <__sfp_lock_release>:
__sfp_lock_release():
    25f6:	84418513          	addi	a0,gp,-1980 # 20001194 <__lock___sfp_recursive_mutex>
    25fa:	a261                	j	2782 <__retarget_lock_release_recursive>

000025fc <__sinit_lock_acquire>:
__sinit_lock_acquire():
    25fc:	84818513          	addi	a0,gp,-1976 # 20001198 <__lock___sinit_recursive_mutex>
    2600:	a241                	j	2780 <__retarget_lock_acquire_recursive>

00002602 <__sinit_lock_release>:
__sinit_lock_release():
    2602:	84818513          	addi	a0,gp,-1976 # 20001198 <__lock___sinit_recursive_mutex>
    2606:	aab5                	j	2782 <__retarget_lock_release_recursive>

00002608 <__sinit>:
__sinit():
    2608:	1141                	addi	sp,sp,-16
    260a:	c422                	sw	s0,8(sp)
    260c:	c606                	sw	ra,12(sp)
    260e:	842a                	mv	s0,a0
    2610:	37f5                	jal	25fc <__sinit_lock_acquire>
    2612:	4c1c                	lw	a5,24(s0)
    2614:	c789                	beqz	a5,261e <__sinit+0x16>
    2616:	4422                	lw	s0,8(sp)
    2618:	40b2                	lw	ra,12(sp)
    261a:	0141                	addi	sp,sp,16
    261c:	b7dd                	j	2602 <__sinit_lock_release>
    261e:	00000797          	auipc	a5,0x0
    2622:	f8278793          	addi	a5,a5,-126 # 25a0 <_cleanup_r>
    2626:	d41c                	sw	a5,40(s0)
    2628:	04042423          	sw	zero,72(s0)
    262c:	04042623          	sw	zero,76(s0)
    2630:	04042823          	sw	zero,80(s0)
    2634:	8081a783          	lw	a5,-2040(gp) # 20001158 <_global_impure_ptr>
    2638:	00879463          	bne	a5,s0,2640 <__sinit+0x38>
    263c:	4785                	li	a5,1
    263e:	cc1c                	sw	a5,24(s0)
    2640:	8522                	mv	a0,s0
    2642:	203d                	jal	2670 <__sfp>
    2644:	c048                	sw	a0,4(s0)
    2646:	8522                	mv	a0,s0
    2648:	2025                	jal	2670 <__sfp>
    264a:	c408                	sw	a0,8(s0)
    264c:	8522                	mv	a0,s0
    264e:	200d                	jal	2670 <__sfp>
    2650:	c448                	sw	a0,12(s0)
    2652:	4048                	lw	a0,4(s0)
    2654:	4601                	li	a2,0
    2656:	4591                	li	a1,4
    2658:	35cd                	jal	253a <std>
    265a:	4408                	lw	a0,8(s0)
    265c:	4605                	li	a2,1
    265e:	45a5                	li	a1,9
    2660:	3de9                	jal	253a <std>
    2662:	4448                	lw	a0,12(s0)
    2664:	4609                	li	a2,2
    2666:	45c9                	li	a1,18
    2668:	3dc9                	jal	253a <std>
    266a:	4785                	li	a5,1
    266c:	cc1c                	sw	a5,24(s0)
    266e:	b765                	j	2616 <__sinit+0xe>

00002670 <__sfp>:
__sfp():
    2670:	1141                	addi	sp,sp,-16
    2672:	c226                	sw	s1,4(sp)
    2674:	c04a                	sw	s2,0(sp)
    2676:	c606                	sw	ra,12(sp)
    2678:	c422                	sw	s0,8(sp)
    267a:	892a                	mv	s2,a0
    267c:	3f95                	jal	25f0 <__sfp_lock_acquire>
    267e:	8081a483          	lw	s1,-2040(gp) # 20001158 <_global_impure_ptr>
    2682:	4c9c                	lw	a5,24(s1)
    2684:	e399                	bnez	a5,268a <__sfp+0x1a>
    2686:	8526                	mv	a0,s1
    2688:	3741                	jal	2608 <__sinit>
    268a:	04848493          	addi	s1,s1,72
    268e:	4480                	lw	s0,8(s1)
    2690:	40dc                	lw	a5,4(s1)
    2692:	17fd                	addi	a5,a5,-1
    2694:	0007d663          	bgez	a5,26a0 <__sfp+0x30>
    2698:	409c                	lw	a5,0(s1)
    269a:	c3bd                	beqz	a5,2700 <__sfp+0x90>
    269c:	4084                	lw	s1,0(s1)
    269e:	bfc5                	j	268e <__sfp+0x1e>
    26a0:	00c41703          	lh	a4,12(s0)
    26a4:	eb39                	bnez	a4,26fa <__sfp+0x8a>
    26a6:	77c1                	lui	a5,0xffff0
    26a8:	0785                	addi	a5,a5,1 # ffff0001 <_eusrstack+0xdffed001>
    26aa:	c45c                	sw	a5,12(s0)
    26ac:	05840513          	addi	a0,s0,88
    26b0:	06042223          	sw	zero,100(s0)
    26b4:	20e9                	jal	277e <__retarget_lock_init_recursive>
    26b6:	3781                	jal	25f6 <__sfp_lock_release>
    26b8:	4621                	li	a2,8
    26ba:	00042023          	sw	zero,0(s0)
    26be:	00042423          	sw	zero,8(s0)
    26c2:	00042223          	sw	zero,4(s0)
    26c6:	00042823          	sw	zero,16(s0)
    26ca:	00042a23          	sw	zero,20(s0)
    26ce:	00042c23          	sw	zero,24(s0)
    26d2:	4581                	li	a1,0
    26d4:	05c40513          	addi	a0,s0,92
    26d8:	acbfe0ef          	jal	ra,11a2 <memset>
    26dc:	02042a23          	sw	zero,52(s0)
    26e0:	02042c23          	sw	zero,56(s0)
    26e4:	04042423          	sw	zero,72(s0)
    26e8:	04042623          	sw	zero,76(s0)
    26ec:	40b2                	lw	ra,12(sp)
    26ee:	8522                	mv	a0,s0
    26f0:	4422                	lw	s0,8(sp)
    26f2:	4492                	lw	s1,4(sp)
    26f4:	4902                	lw	s2,0(sp)
    26f6:	0141                	addi	sp,sp,16
    26f8:	8082                	ret
    26fa:	06840413          	addi	s0,s0,104
    26fe:	bf51                	j	2692 <__sfp+0x22>
    2700:	4591                	li	a1,4
    2702:	854a                	mv	a0,s2
    2704:	355d                	jal	25aa <__sfmoreglue>
    2706:	c088                	sw	a0,0(s1)
    2708:	842a                	mv	s0,a0
    270a:	f949                	bnez	a0,269c <__sfp+0x2c>
    270c:	35ed                	jal	25f6 <__sfp_lock_release>
    270e:	47b1                	li	a5,12
    2710:	00f92023          	sw	a5,0(s2)
    2714:	bfe1                	j	26ec <__sfp+0x7c>

00002716 <_fwalk_reent>:
_fwalk_reent():
    2716:	7179                	addi	sp,sp,-48
    2718:	d422                	sw	s0,40(sp)
    271a:	d04a                	sw	s2,32(sp)
    271c:	ce4e                	sw	s3,28(sp)
    271e:	cc52                	sw	s4,24(sp)
    2720:	c85a                	sw	s6,16(sp)
    2722:	c65e                	sw	s7,12(sp)
    2724:	d606                	sw	ra,44(sp)
    2726:	d226                	sw	s1,36(sp)
    2728:	ca56                	sw	s5,20(sp)
    272a:	892a                	mv	s2,a0
    272c:	8a2e                	mv	s4,a1
    272e:	04850413          	addi	s0,a0,72
    2732:	4981                	li	s3,0
    2734:	4b05                	li	s6,1
    2736:	5bfd                	li	s7,-1
    2738:	4404                	lw	s1,8(s0)
    273a:	00442a83          	lw	s5,4(s0)
    273e:	1afd                	addi	s5,s5,-1
    2740:	020ad063          	bgez	s5,2760 <_fwalk_reent+0x4a>
    2744:	4000                	lw	s0,0(s0)
    2746:	f86d                	bnez	s0,2738 <_fwalk_reent+0x22>
    2748:	50b2                	lw	ra,44(sp)
    274a:	5422                	lw	s0,40(sp)
    274c:	5492                	lw	s1,36(sp)
    274e:	5902                	lw	s2,32(sp)
    2750:	4a62                	lw	s4,24(sp)
    2752:	4ad2                	lw	s5,20(sp)
    2754:	4b42                	lw	s6,16(sp)
    2756:	4bb2                	lw	s7,12(sp)
    2758:	854e                	mv	a0,s3
    275a:	49f2                	lw	s3,28(sp)
    275c:	6145                	addi	sp,sp,48
    275e:	8082                	ret
    2760:	24de                	lhu	a5,12(s1)
    2762:	00fb7b63          	bgeu	s6,a5,2778 <_fwalk_reent+0x62>
    2766:	00e49783          	lh	a5,14(s1)
    276a:	01778763          	beq	a5,s7,2778 <_fwalk_reent+0x62>
    276e:	85a6                	mv	a1,s1
    2770:	854a                	mv	a0,s2
    2772:	9a02                	jalr	s4
    2774:	00a9e9b3          	or	s3,s3,a0
    2778:	06848493          	addi	s1,s1,104
    277c:	b7c9                	j	273e <_fwalk_reent+0x28>

0000277e <__retarget_lock_init_recursive>:
__retarget_lock_init_recursive():
    277e:	8082                	ret

00002780 <__retarget_lock_acquire_recursive>:
__retarget_lock_acquire_recursive():
    2780:	8082                	ret

00002782 <__retarget_lock_release_recursive>:
__retarget_lock_release_recursive():
    2782:	8082                	ret

00002784 <__swhatbuf_r>:
__swhatbuf_r():
    2784:	7159                	addi	sp,sp,-112
    2786:	d4a2                	sw	s0,104(sp)
    2788:	842e                	mv	s0,a1
    278a:	00e59583          	lh	a1,14(a1)
    278e:	d2a6                	sw	s1,100(sp)
    2790:	d0ca                	sw	s2,96(sp)
    2792:	d686                	sw	ra,108(sp)
    2794:	84b2                	mv	s1,a2
    2796:	8936                	mv	s2,a3
    2798:	0205d263          	bgez	a1,27bc <__swhatbuf_r+0x38>
    279c:	245e                	lhu	a5,12(s0)
    279e:	0807f793          	andi	a5,a5,128
    27a2:	eb8d                	bnez	a5,27d4 <__swhatbuf_r+0x50>
    27a4:	40000713          	li	a4,1024
    27a8:	50b6                	lw	ra,108(sp)
    27aa:	5426                	lw	s0,104(sp)
    27ac:	00f92023          	sw	a5,0(s2)
    27b0:	c098                	sw	a4,0(s1)
    27b2:	5906                	lw	s2,96(sp)
    27b4:	5496                	lw	s1,100(sp)
    27b6:	4501                	li	a0,0
    27b8:	6165                	addi	sp,sp,112
    27ba:	8082                	ret
    27bc:	0030                	addi	a2,sp,8
    27be:	2de1                	jal	2e96 <_fstat_r>
    27c0:	fc054ee3          	bltz	a0,279c <__swhatbuf_r+0x18>
    27c4:	4732                	lw	a4,12(sp)
    27c6:	67bd                	lui	a5,0xf
    27c8:	8ff9                	and	a5,a5,a4
    27ca:	7779                	lui	a4,0xffffe
    27cc:	97ba                	add	a5,a5,a4
    27ce:	0017b793          	seqz	a5,a5
    27d2:	bfc9                	j	27a4 <__swhatbuf_r+0x20>
    27d4:	4781                	li	a5,0
    27d6:	04000713          	li	a4,64
    27da:	b7f9                	j	27a8 <__swhatbuf_r+0x24>

000027dc <__smakebuf_r>:
__smakebuf_r():
    27dc:	25de                	lhu	a5,12(a1)
    27de:	7179                	addi	sp,sp,-48
    27e0:	d422                	sw	s0,40(sp)
    27e2:	d606                	sw	ra,44(sp)
    27e4:	d226                	sw	s1,36(sp)
    27e6:	d04a                	sw	s2,32(sp)
    27e8:	ce4e                	sw	s3,28(sp)
    27ea:	8b89                	andi	a5,a5,2
    27ec:	842e                	mv	s0,a1
    27ee:	cf91                	beqz	a5,280a <__smakebuf_r+0x2e>
    27f0:	04740793          	addi	a5,s0,71
    27f4:	c01c                	sw	a5,0(s0)
    27f6:	c81c                	sw	a5,16(s0)
    27f8:	4785                	li	a5,1
    27fa:	c85c                	sw	a5,20(s0)
    27fc:	50b2                	lw	ra,44(sp)
    27fe:	5422                	lw	s0,40(sp)
    2800:	5492                	lw	s1,36(sp)
    2802:	5902                	lw	s2,32(sp)
    2804:	49f2                	lw	s3,28(sp)
    2806:	6145                	addi	sp,sp,48
    2808:	8082                	ret
    280a:	0074                	addi	a3,sp,12
    280c:	0030                	addi	a2,sp,8
    280e:	84aa                	mv	s1,a0
    2810:	3f95                	jal	2784 <__swhatbuf_r>
    2812:	49a2                	lw	s3,8(sp)
    2814:	892a                	mv	s2,a0
    2816:	8526                	mv	a0,s1
    2818:	85ce                	mv	a1,s3
    281a:	2299                	jal	2960 <_malloc_r>
    281c:	e919                	bnez	a0,2832 <__smakebuf_r+0x56>
    281e:	00c41783          	lh	a5,12(s0)
    2822:	2007f713          	andi	a4,a5,512
    2826:	fb79                	bnez	a4,27fc <__smakebuf_r+0x20>
    2828:	9bf1                	andi	a5,a5,-4
    282a:	0027e793          	ori	a5,a5,2
    282e:	a45e                	sh	a5,12(s0)
    2830:	b7c1                	j	27f0 <__smakebuf_r+0x14>
    2832:	00000797          	auipc	a5,0x0
    2836:	d6e78793          	addi	a5,a5,-658 # 25a0 <_cleanup_r>
    283a:	d49c                	sw	a5,40(s1)
    283c:	245e                	lhu	a5,12(s0)
    283e:	c008                	sw	a0,0(s0)
    2840:	c808                	sw	a0,16(s0)
    2842:	0807e793          	ori	a5,a5,128
    2846:	a45e                	sh	a5,12(s0)
    2848:	47b2                	lw	a5,12(sp)
    284a:	01342a23          	sw	s3,20(s0)
    284e:	cb99                	beqz	a5,2864 <__smakebuf_r+0x88>
    2850:	00e41583          	lh	a1,14(s0)
    2854:	8526                	mv	a0,s1
    2856:	25a5                	jal	2ebe <_isatty_r>
    2858:	c511                	beqz	a0,2864 <__smakebuf_r+0x88>
    285a:	245e                	lhu	a5,12(s0)
    285c:	9bf1                	andi	a5,a5,-4
    285e:	0017e793          	ori	a5,a5,1
    2862:	a45e                	sh	a5,12(s0)
    2864:	245e                	lhu	a5,12(s0)
    2866:	0127e533          	or	a0,a5,s2
    286a:	a44a                	sh	a0,12(s0)
    286c:	bf41                	j	27fc <__smakebuf_r+0x20>

0000286e <_free_r>:
_free_r():
    286e:	cdd1                	beqz	a1,290a <_free_r+0x9c>
    2870:	ffc5a783          	lw	a5,-4(a1)
    2874:	1101                	addi	sp,sp,-32
    2876:	cc22                	sw	s0,24(sp)
    2878:	ce06                	sw	ra,28(sp)
    287a:	ffc58413          	addi	s0,a1,-4
    287e:	0007d363          	bgez	a5,2884 <_free_r+0x16>
    2882:	943e                	add	s0,s0,a5
    2884:	c62a                	sw	a0,12(sp)
    2886:	2545                	jal	2f26 <__malloc_lock>
    2888:	85018713          	addi	a4,gp,-1968 # 200011a0 <__malloc_free_list>
    288c:	431c                	lw	a5,0(a4)
    288e:	4532                	lw	a0,12(sp)
    2890:	eb81                	bnez	a5,28a0 <_free_r+0x32>
    2892:	00042223          	sw	zero,4(s0)
    2896:	c300                	sw	s0,0(a4)
    2898:	4462                	lw	s0,24(sp)
    289a:	40f2                	lw	ra,28(sp)
    289c:	6105                	addi	sp,sp,32
    289e:	ad41                	j	2f2e <__malloc_unlock>
    28a0:	00f47d63          	bgeu	s0,a5,28ba <_free_r+0x4c>
    28a4:	4010                	lw	a2,0(s0)
    28a6:	00c406b3          	add	a3,s0,a2
    28aa:	00d79663          	bne	a5,a3,28b6 <_free_r+0x48>
    28ae:	4394                	lw	a3,0(a5)
    28b0:	43dc                	lw	a5,4(a5)
    28b2:	96b2                	add	a3,a3,a2
    28b4:	c014                	sw	a3,0(s0)
    28b6:	c05c                	sw	a5,4(s0)
    28b8:	bff9                	j	2896 <_free_r+0x28>
    28ba:	873e                	mv	a4,a5
    28bc:	43dc                	lw	a5,4(a5)
    28be:	c399                	beqz	a5,28c4 <_free_r+0x56>
    28c0:	fef47de3          	bgeu	s0,a5,28ba <_free_r+0x4c>
    28c4:	4314                	lw	a3,0(a4)
    28c6:	00d70633          	add	a2,a4,a3
    28ca:	00861f63          	bne	a2,s0,28e8 <_free_r+0x7a>
    28ce:	4010                	lw	a2,0(s0)
    28d0:	96b2                	add	a3,a3,a2
    28d2:	c314                	sw	a3,0(a4)
    28d4:	00d70633          	add	a2,a4,a3
    28d8:	fcc790e3          	bne	a5,a2,2898 <_free_r+0x2a>
    28dc:	4390                	lw	a2,0(a5)
    28de:	43dc                	lw	a5,4(a5)
    28e0:	96b2                	add	a3,a3,a2
    28e2:	c314                	sw	a3,0(a4)
    28e4:	c35c                	sw	a5,4(a4)
    28e6:	bf4d                	j	2898 <_free_r+0x2a>
    28e8:	00c47563          	bgeu	s0,a2,28f2 <_free_r+0x84>
    28ec:	47b1                	li	a5,12
    28ee:	c11c                	sw	a5,0(a0)
    28f0:	b765                	j	2898 <_free_r+0x2a>
    28f2:	4010                	lw	a2,0(s0)
    28f4:	00c406b3          	add	a3,s0,a2
    28f8:	00d79663          	bne	a5,a3,2904 <_free_r+0x96>
    28fc:	4394                	lw	a3,0(a5)
    28fe:	43dc                	lw	a5,4(a5)
    2900:	96b2                	add	a3,a3,a2
    2902:	c014                	sw	a3,0(s0)
    2904:	c05c                	sw	a5,4(s0)
    2906:	c340                	sw	s0,4(a4)
    2908:	bf41                	j	2898 <_free_r+0x2a>
    290a:	8082                	ret

0000290c <sbrk_aligned>:
sbrk_aligned():
    290c:	1141                	addi	sp,sp,-16
    290e:	c04a                	sw	s2,0(sp)
    2910:	84c18913          	addi	s2,gp,-1972 # 2000119c <__malloc_sbrk_start>
    2914:	00092783          	lw	a5,0(s2)
    2918:	c422                	sw	s0,8(sp)
    291a:	c226                	sw	s1,4(sp)
    291c:	c606                	sw	ra,12(sp)
    291e:	84aa                	mv	s1,a0
    2920:	842e                	mv	s0,a1
    2922:	e789                	bnez	a5,292c <sbrk_aligned+0x20>
    2924:	4581                	li	a1,0
    2926:	2989                	jal	2d78 <_sbrk_r>
    2928:	00a92023          	sw	a0,0(s2)
    292c:	85a2                	mv	a1,s0
    292e:	8526                	mv	a0,s1
    2930:	21a1                	jal	2d78 <_sbrk_r>
    2932:	597d                	li	s2,-1
    2934:	01251a63          	bne	a0,s2,2948 <sbrk_aligned+0x3c>
    2938:	547d                	li	s0,-1
    293a:	40b2                	lw	ra,12(sp)
    293c:	8522                	mv	a0,s0
    293e:	4422                	lw	s0,8(sp)
    2940:	4492                	lw	s1,4(sp)
    2942:	4902                	lw	s2,0(sp)
    2944:	0141                	addi	sp,sp,16
    2946:	8082                	ret
    2948:	00350413          	addi	s0,a0,3
    294c:	9871                	andi	s0,s0,-4
    294e:	fe8506e3          	beq	a0,s0,293a <sbrk_aligned+0x2e>
    2952:	40a405b3          	sub	a1,s0,a0
    2956:	8526                	mv	a0,s1
    2958:	2105                	jal	2d78 <_sbrk_r>
    295a:	ff2510e3          	bne	a0,s2,293a <sbrk_aligned+0x2e>
    295e:	bfe9                	j	2938 <sbrk_aligned+0x2c>

00002960 <_malloc_r>:
_malloc_r():
    2960:	1101                	addi	sp,sp,-32
    2962:	ca26                	sw	s1,20(sp)
    2964:	00358493          	addi	s1,a1,3
    2968:	98f1                	andi	s1,s1,-4
    296a:	c84a                	sw	s2,16(sp)
    296c:	04a1                	addi	s1,s1,8
    296e:	47b1                	li	a5,12
    2970:	ce06                	sw	ra,28(sp)
    2972:	cc22                	sw	s0,24(sp)
    2974:	c64e                	sw	s3,12(sp)
    2976:	892a                	mv	s2,a0
    2978:	0af4f4b3          	maxu	s1,s1,a5
    297c:	0004c463          	bltz	s1,2984 <_malloc_r+0x24>
    2980:	00b4fd63          	bgeu	s1,a1,299a <_malloc_r+0x3a>
    2984:	47b1                	li	a5,12
    2986:	00f92023          	sw	a5,0(s2)
    298a:	4501                	li	a0,0
    298c:	40f2                	lw	ra,28(sp)
    298e:	4462                	lw	s0,24(sp)
    2990:	44d2                	lw	s1,20(sp)
    2992:	4942                	lw	s2,16(sp)
    2994:	49b2                	lw	s3,12(sp)
    2996:	6105                	addi	sp,sp,32
    2998:	8082                	ret
    299a:	2371                	jal	2f26 <__malloc_lock>
    299c:	85018993          	addi	s3,gp,-1968 # 200011a0 <__malloc_free_list>
    29a0:	0009a783          	lw	a5,0(s3)
    29a4:	843e                	mv	s0,a5
    29a6:	e431                	bnez	s0,29f2 <_malloc_r+0x92>
    29a8:	85a6                	mv	a1,s1
    29aa:	854a                	mv	a0,s2
    29ac:	3785                	jal	290c <sbrk_aligned>
    29ae:	57fd                	li	a5,-1
    29b0:	842a                	mv	s0,a0
    29b2:	0af51663          	bne	a0,a5,2a5e <_malloc_r+0xfe>
    29b6:	0009a403          	lw	s0,0(s3)
    29ba:	87a2                	mv	a5,s0
    29bc:	ebc1                	bnez	a5,2a4c <_malloc_r+0xec>
    29be:	00042983          	lw	s3,0(s0)
    29c2:	4581                	li	a1,0
    29c4:	854a                	mv	a0,s2
    29c6:	99a2                	add	s3,s3,s0
    29c8:	2e45                	jal	2d78 <_sbrk_r>
    29ca:	08a99463          	bne	s3,a0,2a52 <_malloc_r+0xf2>
    29ce:	401c                	lw	a5,0(s0)
    29d0:	048d                	addi	s1,s1,3
    29d2:	854a                	mv	a0,s2
    29d4:	8c9d                	sub	s1,s1,a5
    29d6:	98f1                	andi	s1,s1,-4
    29d8:	47b1                	li	a5,12
    29da:	04a1                	addi	s1,s1,8
    29dc:	0af4f4b3          	maxu	s1,s1,a5
    29e0:	85a6                	mv	a1,s1
    29e2:	372d                	jal	290c <sbrk_aligned>
    29e4:	57fd                	li	a5,-1
    29e6:	06f50663          	beq	a0,a5,2a52 <_malloc_r+0xf2>
    29ea:	401c                	lw	a5,0(s0)
    29ec:	97a6                	add	a5,a5,s1
    29ee:	c01c                	sw	a5,0(s0)
    29f0:	a015                	j	2a14 <_malloc_r+0xb4>
    29f2:	4014                	lw	a3,0(s0)
    29f4:	8e85                	sub	a3,a3,s1
    29f6:	0406c863          	bltz	a3,2a46 <_malloc_r+0xe6>
    29fa:	472d                	li	a4,11
    29fc:	02d77d63          	bgeu	a4,a3,2a36 <_malloc_r+0xd6>
    2a00:	c004                	sw	s1,0(s0)
    2a02:	00940733          	add	a4,s0,s1
    2a06:	02879663          	bne	a5,s0,2a32 <_malloc_r+0xd2>
    2a0a:	00e9a023          	sw	a4,0(s3)
    2a0e:	405c                	lw	a5,4(s0)
    2a10:	c314                	sw	a3,0(a4)
    2a12:	c35c                	sw	a5,4(a4)
    2a14:	854a                	mv	a0,s2
    2a16:	2b21                	jal	2f2e <__malloc_unlock>
    2a18:	00b40513          	addi	a0,s0,11
    2a1c:	00440793          	addi	a5,s0,4
    2a20:	9961                	andi	a0,a0,-8
    2a22:	40f50733          	sub	a4,a0,a5
    2a26:	f6f503e3          	beq	a0,a5,298c <_malloc_r+0x2c>
    2a2a:	943a                	add	s0,s0,a4
    2a2c:	8f89                	sub	a5,a5,a0
    2a2e:	c01c                	sw	a5,0(s0)
    2a30:	bfb1                	j	298c <_malloc_r+0x2c>
    2a32:	c3d8                	sw	a4,4(a5)
    2a34:	bfe9                	j	2a0e <_malloc_r+0xae>
    2a36:	4058                	lw	a4,4(s0)
    2a38:	00879563          	bne	a5,s0,2a42 <_malloc_r+0xe2>
    2a3c:	00e9a023          	sw	a4,0(s3)
    2a40:	bfd1                	j	2a14 <_malloc_r+0xb4>
    2a42:	c3d8                	sw	a4,4(a5)
    2a44:	bfc1                	j	2a14 <_malloc_r+0xb4>
    2a46:	87a2                	mv	a5,s0
    2a48:	4040                	lw	s0,4(s0)
    2a4a:	bfb1                	j	29a6 <_malloc_r+0x46>
    2a4c:	843e                	mv	s0,a5
    2a4e:	43dc                	lw	a5,4(a5)
    2a50:	b7b5                	j	29bc <_malloc_r+0x5c>
    2a52:	47b1                	li	a5,12
    2a54:	00f92023          	sw	a5,0(s2)
    2a58:	854a                	mv	a0,s2
    2a5a:	29d1                	jal	2f2e <__malloc_unlock>
    2a5c:	b73d                	j	298a <_malloc_r+0x2a>
    2a5e:	c104                	sw	s1,0(a0)
    2a60:	bf55                	j	2a14 <_malloc_r+0xb4>

00002a62 <__sfputc_r>:
__sfputc_r():
    2a62:	461c                	lw	a5,8(a2)
    2a64:	17fd                	addi	a5,a5,-1
    2a66:	c61c                	sw	a5,8(a2)
    2a68:	0007da63          	bgez	a5,2a7c <__sfputc_r+0x1a>
    2a6c:	4e18                	lw	a4,24(a2)
    2a6e:	00e7c563          	blt	a5,a4,2a78 <__sfputc_r+0x16>
    2a72:	47a9                	li	a5,10
    2a74:	00f59463          	bne	a1,a5,2a7c <__sfputc_r+0x1a>
    2a78:	f5cff06f          	j	21d4 <__swbuf_r>
    2a7c:	421c                	lw	a5,0(a2)
    2a7e:	852e                	mv	a0,a1
    2a80:	00178713          	addi	a4,a5,1
    2a84:	c218                	sw	a4,0(a2)
    2a86:	a38c                	sb	a1,0(a5)
    2a88:	8082                	ret

00002a8a <__sfputs_r>:
__sfputs_r():
    2a8a:	1101                	addi	sp,sp,-32
    2a8c:	cc22                	sw	s0,24(sp)
    2a8e:	ca26                	sw	s1,20(sp)
    2a90:	c84a                	sw	s2,16(sp)
    2a92:	c64e                	sw	s3,12(sp)
    2a94:	c452                	sw	s4,8(sp)
    2a96:	ce06                	sw	ra,28(sp)
    2a98:	892a                	mv	s2,a0
    2a9a:	89ae                	mv	s3,a1
    2a9c:	8432                	mv	s0,a2
    2a9e:	00d604b3          	add	s1,a2,a3
    2aa2:	5a7d                	li	s4,-1
    2aa4:	00941463          	bne	s0,s1,2aac <__sfputs_r+0x22>
    2aa8:	4501                	li	a0,0
    2aaa:	a801                	j	2aba <__sfputs_r+0x30>
    2aac:	200c                	lbu	a1,0(s0)
    2aae:	864e                	mv	a2,s3
    2ab0:	854a                	mv	a0,s2
    2ab2:	3f45                	jal	2a62 <__sfputc_r>
    2ab4:	0405                	addi	s0,s0,1
    2ab6:	ff4517e3          	bne	a0,s4,2aa4 <__sfputs_r+0x1a>
    2aba:	40f2                	lw	ra,28(sp)
    2abc:	4462                	lw	s0,24(sp)
    2abe:	44d2                	lw	s1,20(sp)
    2ac0:	4942                	lw	s2,16(sp)
    2ac2:	49b2                	lw	s3,12(sp)
    2ac4:	4a22                	lw	s4,8(sp)
    2ac6:	6105                	addi	sp,sp,32
    2ac8:	8082                	ret

00002aca <_vfiprintf_r>:
_vfiprintf_r():
    2aca:	7135                	addi	sp,sp,-160
    2acc:	cd22                	sw	s0,152(sp)
    2ace:	cb26                	sw	s1,148(sp)
    2ad0:	c94a                	sw	s2,144(sp)
    2ad2:	c74e                	sw	s3,140(sp)
    2ad4:	cf06                	sw	ra,156(sp)
    2ad6:	c552                	sw	s4,136(sp)
    2ad8:	c356                	sw	s5,132(sp)
    2ada:	c15a                	sw	s6,128(sp)
    2adc:	dede                	sw	s7,124(sp)
    2ade:	dce2                	sw	s8,120(sp)
    2ae0:	89aa                	mv	s3,a0
    2ae2:	842e                	mv	s0,a1
    2ae4:	8932                	mv	s2,a2
    2ae6:	84b6                	mv	s1,a3
    2ae8:	c501                	beqz	a0,2af0 <_vfiprintf_r+0x26>
    2aea:	4d1c                	lw	a5,24(a0)
    2aec:	e391                	bnez	a5,2af0 <_vfiprintf_r+0x26>
    2aee:	3e29                	jal	2608 <__sinit>
    2af0:	00001797          	auipc	a5,0x1
    2af4:	90078793          	addi	a5,a5,-1792 # 33f0 <__sf_fake_stdin>
    2af8:	04f41763          	bne	s0,a5,2b46 <_vfiprintf_r+0x7c>
    2afc:	0049a403          	lw	s0,4(s3)
    2b00:	507c                	lw	a5,100(s0)
    2b02:	8b85                	andi	a5,a5,1
    2b04:	e799                	bnez	a5,2b12 <_vfiprintf_r+0x48>
    2b06:	245e                	lhu	a5,12(s0)
    2b08:	2007f793          	andi	a5,a5,512
    2b0c:	e399                	bnez	a5,2b12 <_vfiprintf_r+0x48>
    2b0e:	4c28                	lw	a0,88(s0)
    2b10:	3985                	jal	2780 <__retarget_lock_acquire_recursive>
    2b12:	245e                	lhu	a5,12(s0)
    2b14:	8ba1                	andi	a5,a5,8
    2b16:	c399                	beqz	a5,2b1c <_vfiprintf_r+0x52>
    2b18:	481c                	lw	a5,16(s0)
    2b1a:	efb9                	bnez	a5,2b78 <_vfiprintf_r+0xae>
    2b1c:	85a2                	mv	a1,s0
    2b1e:	854e                	mv	a0,s3
    2b20:	f70ff0ef          	jal	ra,2290 <__swsetup_r>
    2b24:	c931                	beqz	a0,2b78 <_vfiprintf_r+0xae>
    2b26:	507c                	lw	a5,100(s0)
    2b28:	8b85                	andi	a5,a5,1
    2b2a:	c3a1                	beqz	a5,2b6a <_vfiprintf_r+0xa0>
    2b2c:	557d                	li	a0,-1
    2b2e:	40fa                	lw	ra,156(sp)
    2b30:	446a                	lw	s0,152(sp)
    2b32:	44da                	lw	s1,148(sp)
    2b34:	494a                	lw	s2,144(sp)
    2b36:	49ba                	lw	s3,140(sp)
    2b38:	4a2a                	lw	s4,136(sp)
    2b3a:	4a9a                	lw	s5,132(sp)
    2b3c:	4b0a                	lw	s6,128(sp)
    2b3e:	5bf6                	lw	s7,124(sp)
    2b40:	5c66                	lw	s8,120(sp)
    2b42:	610d                	addi	sp,sp,160
    2b44:	8082                	ret
    2b46:	00001797          	auipc	a5,0x1
    2b4a:	88a78793          	addi	a5,a5,-1910 # 33d0 <__sf_fake_stdout>
    2b4e:	00f41563          	bne	s0,a5,2b58 <_vfiprintf_r+0x8e>
    2b52:	0089a403          	lw	s0,8(s3)
    2b56:	b76d                	j	2b00 <_vfiprintf_r+0x36>
    2b58:	00001797          	auipc	a5,0x1
    2b5c:	85878793          	addi	a5,a5,-1960 # 33b0 <__sf_fake_stderr>
    2b60:	faf410e3          	bne	s0,a5,2b00 <_vfiprintf_r+0x36>
    2b64:	00c9a403          	lw	s0,12(s3)
    2b68:	bf61                	j	2b00 <_vfiprintf_r+0x36>
    2b6a:	245e                	lhu	a5,12(s0)
    2b6c:	2007f793          	andi	a5,a5,512
    2b70:	ffd5                	bnez	a5,2b2c <_vfiprintf_r+0x62>
    2b72:	4c28                	lw	a0,88(s0)
    2b74:	3139                	jal	2782 <__retarget_lock_release_recursive>
    2b76:	bf5d                	j	2b2c <_vfiprintf_r+0x62>
    2b78:	02000793          	li	a5,32
    2b7c:	02f104a3          	sb	a5,41(sp)
    2b80:	03000793          	li	a5,48
    2b84:	d202                	sw	zero,36(sp)
    2b86:	02f10523          	sb	a5,42(sp)
    2b8a:	c626                	sw	s1,12(sp)
    2b8c:	02500b93          	li	s7,37
    2b90:	00001a97          	auipc	s5,0x1
    2b94:	880a8a93          	addi	s5,s5,-1920 # 3410 <__sf_fake_stdin+0x20>
    2b98:	4b29                	li	s6,10
    2b9a:	84ca                	mv	s1,s2
    2b9c:	209c                	lbu	a5,0(s1)
    2b9e:	c399                	beqz	a5,2ba4 <_vfiprintf_r+0xda>
    2ba0:	09779963          	bne	a5,s7,2c32 <_vfiprintf_r+0x168>
    2ba4:	41248c33          	sub	s8,s1,s2
    2ba8:	01248d63          	beq	s1,s2,2bc2 <_vfiprintf_r+0xf8>
    2bac:	86e2                	mv	a3,s8
    2bae:	864a                	mv	a2,s2
    2bb0:	85a2                	mv	a1,s0
    2bb2:	854e                	mv	a0,s3
    2bb4:	3dd9                	jal	2a8a <__sfputs_r>
    2bb6:	57fd                	li	a5,-1
    2bb8:	18f50663          	beq	a0,a5,2d44 <_vfiprintf_r+0x27a>
    2bbc:	5792                	lw	a5,36(sp)
    2bbe:	97e2                	add	a5,a5,s8
    2bc0:	d23e                	sw	a5,36(sp)
    2bc2:	209c                	lbu	a5,0(s1)
    2bc4:	18078063          	beqz	a5,2d44 <_vfiprintf_r+0x27a>
    2bc8:	57fd                	li	a5,-1
    2bca:	00148913          	addi	s2,s1,1
    2bce:	c802                	sw	zero,16(sp)
    2bd0:	ce02                	sw	zero,28(sp)
    2bd2:	ca3e                	sw	a5,20(sp)
    2bd4:	cc02                	sw	zero,24(sp)
    2bd6:	040109a3          	sb	zero,83(sp)
    2bda:	d482                	sw	zero,104(sp)
    2bdc:	00094583          	lbu	a1,0(s2)
    2be0:	4615                	li	a2,5
    2be2:	8556                	mv	a0,s5
    2be4:	262d                	jal	2f0e <memchr>
    2be6:	47c2                	lw	a5,16(sp)
    2be8:	00190493          	addi	s1,s2,1
    2bec:	e529                	bnez	a0,2c36 <_vfiprintf_r+0x16c>
    2bee:	0107f713          	andi	a4,a5,16
    2bf2:	c709                	beqz	a4,2bfc <_vfiprintf_r+0x132>
    2bf4:	02000713          	li	a4,32
    2bf8:	04e109a3          	sb	a4,83(sp)
    2bfc:	0087f713          	andi	a4,a5,8
    2c00:	c709                	beqz	a4,2c0a <_vfiprintf_r+0x140>
    2c02:	02b00713          	li	a4,43
    2c06:	04e109a3          	sb	a4,83(sp)
    2c0a:	00094683          	lbu	a3,0(s2)
    2c0e:	02a00713          	li	a4,42
    2c12:	02e68963          	beq	a3,a4,2c44 <_vfiprintf_r+0x17a>
    2c16:	47f2                	lw	a5,28(sp)
    2c18:	84ca                	mv	s1,s2
    2c1a:	4681                	li	a3,0
    2c1c:	4625                	li	a2,9
    2c1e:	2098                	lbu	a4,0(s1)
    2c20:	00148593          	addi	a1,s1,1
    2c24:	fd070713          	addi	a4,a4,-48 # ffffdfd0 <_eusrstack+0xdfffafd0>
    2c28:	06e67263          	bgeu	a2,a4,2c8c <_vfiprintf_r+0x1c2>
    2c2c:	c685                	beqz	a3,2c54 <_vfiprintf_r+0x18a>
    2c2e:	ce3e                	sw	a5,28(sp)
    2c30:	a015                	j	2c54 <_vfiprintf_r+0x18a>
    2c32:	0485                	addi	s1,s1,1
    2c34:	b7a5                	j	2b9c <_vfiprintf_r+0xd2>
    2c36:	41550533          	sub	a0,a0,s5
    2c3a:	28a797b3          	bset	a5,a5,a0
    2c3e:	8926                	mv	s2,s1
    2c40:	c83e                	sw	a5,16(sp)
    2c42:	bf69                	j	2bdc <_vfiprintf_r+0x112>
    2c44:	4732                	lw	a4,12(sp)
    2c46:	00470693          	addi	a3,a4,4
    2c4a:	4318                	lw	a4,0(a4)
    2c4c:	c636                	sw	a3,12(sp)
    2c4e:	02074863          	bltz	a4,2c7e <_vfiprintf_r+0x1b4>
    2c52:	ce3a                	sw	a4,28(sp)
    2c54:	2098                	lbu	a4,0(s1)
    2c56:	02e00793          	li	a5,46
    2c5a:	04f71c63          	bne	a4,a5,2cb2 <_vfiprintf_r+0x1e8>
    2c5e:	3098                	lbu	a4,1(s1)
    2c60:	02a00793          	li	a5,42
    2c64:	02f71a63          	bne	a4,a5,2c98 <_vfiprintf_r+0x1ce>
    2c68:	47b2                	lw	a5,12(sp)
    2c6a:	0489                	addi	s1,s1,2
    2c6c:	00478713          	addi	a4,a5,4
    2c70:	439c                	lw	a5,0(a5)
    2c72:	c63a                	sw	a4,12(sp)
    2c74:	577d                	li	a4,-1
    2c76:	0ae7e7b3          	max	a5,a5,a4
    2c7a:	ca3e                	sw	a5,20(sp)
    2c7c:	a81d                	j	2cb2 <_vfiprintf_r+0x1e8>
    2c7e:	40e00733          	neg	a4,a4
    2c82:	0027e793          	ori	a5,a5,2
    2c86:	ce3a                	sw	a4,28(sp)
    2c88:	c83e                	sw	a5,16(sp)
    2c8a:	b7e9                	j	2c54 <_vfiprintf_r+0x18a>
    2c8c:	036787b3          	mul	a5,a5,s6
    2c90:	84ae                	mv	s1,a1
    2c92:	4685                	li	a3,1
    2c94:	97ba                	add	a5,a5,a4
    2c96:	b761                	j	2c1e <_vfiprintf_r+0x154>
    2c98:	0485                	addi	s1,s1,1
    2c9a:	ca02                	sw	zero,20(sp)
    2c9c:	4681                	li	a3,0
    2c9e:	4781                	li	a5,0
    2ca0:	4625                	li	a2,9
    2ca2:	2098                	lbu	a4,0(s1)
    2ca4:	00148593          	addi	a1,s1,1
    2ca8:	fd070713          	addi	a4,a4,-48
    2cac:	06e67263          	bgeu	a2,a4,2d10 <_vfiprintf_r+0x246>
    2cb0:	f6e9                	bnez	a3,2c7a <_vfiprintf_r+0x1b0>
    2cb2:	208c                	lbu	a1,0(s1)
    2cb4:	460d                	li	a2,3
    2cb6:	00000517          	auipc	a0,0x0
    2cba:	76250513          	addi	a0,a0,1890 # 3418 <__sf_fake_stdin+0x28>
    2cbe:	2c81                	jal	2f0e <memchr>
    2cc0:	cd11                	beqz	a0,2cdc <_vfiprintf_r+0x212>
    2cc2:	00000797          	auipc	a5,0x0
    2cc6:	75678793          	addi	a5,a5,1878 # 3418 <__sf_fake_stdin+0x28>
    2cca:	8d1d                	sub	a0,a0,a5
    2ccc:	47c2                	lw	a5,16(sp)
    2cce:	04000713          	li	a4,64
    2cd2:	00a71733          	sll	a4,a4,a0
    2cd6:	8fd9                	or	a5,a5,a4
    2cd8:	0485                	addi	s1,s1,1
    2cda:	c83e                	sw	a5,16(sp)
    2cdc:	208c                	lbu	a1,0(s1)
    2cde:	4619                	li	a2,6
    2ce0:	00000517          	auipc	a0,0x0
    2ce4:	73c50513          	addi	a0,a0,1852 # 341c <__sf_fake_stdin+0x2c>
    2ce8:	00148913          	addi	s2,s1,1
    2cec:	02b10423          	sb	a1,40(sp)
    2cf0:	2c39                	jal	2f0e <memchr>
    2cf2:	c92d                	beqz	a0,2d64 <_vfiprintf_r+0x29a>
    2cf4:	00000793          	li	a5,0
    2cf8:	e795                	bnez	a5,2d24 <_vfiprintf_r+0x25a>
    2cfa:	4742                	lw	a4,16(sp)
    2cfc:	47b2                	lw	a5,12(sp)
    2cfe:	10077713          	andi	a4,a4,256
    2d02:	cf09                	beqz	a4,2d1c <_vfiprintf_r+0x252>
    2d04:	0791                	addi	a5,a5,4
    2d06:	c63e                	sw	a5,12(sp)
    2d08:	5792                	lw	a5,36(sp)
    2d0a:	97d2                	add	a5,a5,s4
    2d0c:	d23e                	sw	a5,36(sp)
    2d0e:	b571                	j	2b9a <_vfiprintf_r+0xd0>
    2d10:	036787b3          	mul	a5,a5,s6
    2d14:	84ae                	mv	s1,a1
    2d16:	4685                	li	a3,1
    2d18:	97ba                	add	a5,a5,a4
    2d1a:	b761                	j	2ca2 <_vfiprintf_r+0x1d8>
    2d1c:	079d                	addi	a5,a5,7
    2d1e:	9be1                	andi	a5,a5,-8
    2d20:	07a1                	addi	a5,a5,8
    2d22:	b7d5                	j	2d06 <_vfiprintf_r+0x23c>
    2d24:	0078                	addi	a4,sp,12
    2d26:	00000697          	auipc	a3,0x0
    2d2a:	d6468693          	addi	a3,a3,-668 # 2a8a <__sfputs_r>
    2d2e:	8622                	mv	a2,s0
    2d30:	080c                	addi	a1,sp,16
    2d32:	854e                	mv	a0,s3
    2d34:	00000097          	auipc	ra,0x0
    2d38:	000000e7          	jalr	zero # 0 <_sinit>
    2d3c:	57fd                	li	a5,-1
    2d3e:	8a2a                	mv	s4,a0
    2d40:	fcf514e3          	bne	a0,a5,2d08 <_vfiprintf_r+0x23e>
    2d44:	507c                	lw	a5,100(s0)
    2d46:	8b85                	andi	a5,a5,1
    2d48:	e799                	bnez	a5,2d56 <_vfiprintf_r+0x28c>
    2d4a:	245e                	lhu	a5,12(s0)
    2d4c:	2007f793          	andi	a5,a5,512
    2d50:	e399                	bnez	a5,2d56 <_vfiprintf_r+0x28c>
    2d52:	4c28                	lw	a0,88(s0)
    2d54:	343d                	jal	2782 <__retarget_lock_release_recursive>
    2d56:	245e                	lhu	a5,12(s0)
    2d58:	0407f793          	andi	a5,a5,64
    2d5c:	dc0798e3          	bnez	a5,2b2c <_vfiprintf_r+0x62>
    2d60:	5512                	lw	a0,36(sp)
    2d62:	b3f1                	j	2b2e <_vfiprintf_r+0x64>
    2d64:	0078                	addi	a4,sp,12
    2d66:	00000697          	auipc	a3,0x0
    2d6a:	d2468693          	addi	a3,a3,-732 # 2a8a <__sfputs_r>
    2d6e:	8622                	mv	a2,s0
    2d70:	080c                	addi	a1,sp,16
    2d72:	854e                	mv	a0,s3
    2d74:	24f1                	jal	3040 <_printf_i>
    2d76:	b7d9                	j	2d3c <_vfiprintf_r+0x272>

00002d78 <_sbrk_r>:
_sbrk_r():
    2d78:	1141                	addi	sp,sp,-16
    2d7a:	c422                	sw	s0,8(sp)
    2d7c:	842a                	mv	s0,a0
    2d7e:	852e                	mv	a0,a1
    2d80:	8401aa23          	sw	zero,-1964(gp) # 200011a4 <errno>
    2d84:	c606                	sw	ra,12(sp)
    2d86:	d7efe0ef          	jal	ra,1304 <_sbrk>
    2d8a:	57fd                	li	a5,-1
    2d8c:	00f51663          	bne	a0,a5,2d98 <_sbrk_r+0x20>
    2d90:	8541a783          	lw	a5,-1964(gp) # 200011a4 <errno>
    2d94:	c391                	beqz	a5,2d98 <_sbrk_r+0x20>
    2d96:	c01c                	sw	a5,0(s0)
    2d98:	40b2                	lw	ra,12(sp)
    2d9a:	4422                	lw	s0,8(sp)
    2d9c:	0141                	addi	sp,sp,16
    2d9e:	8082                	ret

00002da0 <__sread>:
__sread():
    2da0:	1141                	addi	sp,sp,-16
    2da2:	c422                	sw	s0,8(sp)
    2da4:	842e                	mv	s0,a1
    2da6:	00e59583          	lh	a1,14(a1)
    2daa:	c606                	sw	ra,12(sp)
    2dac:	2331                	jal	32b8 <_read_r>
    2dae:	00054963          	bltz	a0,2dc0 <__sread+0x20>
    2db2:	487c                	lw	a5,84(s0)
    2db4:	97aa                	add	a5,a5,a0
    2db6:	c87c                	sw	a5,84(s0)
    2db8:	40b2                	lw	ra,12(sp)
    2dba:	4422                	lw	s0,8(sp)
    2dbc:	0141                	addi	sp,sp,16
    2dbe:	8082                	ret
    2dc0:	245e                	lhu	a5,12(s0)
    2dc2:	48c79793          	bclri	a5,a5,0xc
    2dc6:	a45e                	sh	a5,12(s0)
    2dc8:	bfc5                	j	2db8 <__sread+0x18>

00002dca <__swrite>:
__swrite():
    2dca:	25de                	lhu	a5,12(a1)
    2dcc:	1101                	addi	sp,sp,-32
    2dce:	cc22                	sw	s0,24(sp)
    2dd0:	ca26                	sw	s1,20(sp)
    2dd2:	c84a                	sw	s2,16(sp)
    2dd4:	c64e                	sw	s3,12(sp)
    2dd6:	ce06                	sw	ra,28(sp)
    2dd8:	1007f793          	andi	a5,a5,256
    2ddc:	84aa                	mv	s1,a0
    2dde:	842e                	mv	s0,a1
    2de0:	8932                	mv	s2,a2
    2de2:	89b6                	mv	s3,a3
    2de4:	c791                	beqz	a5,2df0 <__swrite+0x26>
    2de6:	00e59583          	lh	a1,14(a1)
    2dea:	4689                	li	a3,2
    2dec:	4601                	li	a2,0
    2dee:	28dd                	jal	2ee4 <_lseek_r>
    2df0:	245e                	lhu	a5,12(s0)
    2df2:	00e41583          	lh	a1,14(s0)
    2df6:	40f2                	lw	ra,28(sp)
    2df8:	48c79793          	bclri	a5,a5,0xc
    2dfc:	a45e                	sh	a5,12(s0)
    2dfe:	4462                	lw	s0,24(sp)
    2e00:	86ce                	mv	a3,s3
    2e02:	864a                	mv	a2,s2
    2e04:	49b2                	lw	s3,12(sp)
    2e06:	4942                	lw	s2,16(sp)
    2e08:	8526                	mv	a0,s1
    2e0a:	44d2                	lw	s1,20(sp)
    2e0c:	6105                	addi	sp,sp,32
    2e0e:	a81d                	j	2e44 <_write_r>

00002e10 <__sseek>:
__sseek():
    2e10:	1141                	addi	sp,sp,-16
    2e12:	c422                	sw	s0,8(sp)
    2e14:	842e                	mv	s0,a1
    2e16:	00e59583          	lh	a1,14(a1)
    2e1a:	c606                	sw	ra,12(sp)
    2e1c:	20e1                	jal	2ee4 <_lseek_r>
    2e1e:	577d                	li	a4,-1
    2e20:	245e                	lhu	a5,12(s0)
    2e22:	00e51963          	bne	a0,a4,2e34 <__sseek+0x24>
    2e26:	48c79793          	bclri	a5,a5,0xc
    2e2a:	a45e                	sh	a5,12(s0)
    2e2c:	40b2                	lw	ra,12(sp)
    2e2e:	4422                	lw	s0,8(sp)
    2e30:	0141                	addi	sp,sp,16
    2e32:	8082                	ret
    2e34:	28c79793          	bseti	a5,a5,0xc
    2e38:	c868                	sw	a0,84(s0)
    2e3a:	a45e                	sh	a5,12(s0)
    2e3c:	bfc5                	j	2e2c <__sseek+0x1c>

00002e3e <__sclose>:
__sclose():
    2e3e:	00e59583          	lh	a1,14(a1)
    2e42:	a03d                	j	2e70 <_close_r>

00002e44 <_write_r>:
_write_r():
    2e44:	1141                	addi	sp,sp,-16
    2e46:	c422                	sw	s0,8(sp)
    2e48:	842a                	mv	s0,a0
    2e4a:	852e                	mv	a0,a1
    2e4c:	85b2                	mv	a1,a2
    2e4e:	8636                	mv	a2,a3
    2e50:	8401aa23          	sw	zero,-1964(gp) # 200011a4 <errno>
    2e54:	c606                	sw	ra,12(sp)
    2e56:	c88fe0ef          	jal	ra,12de <_write>
    2e5a:	57fd                	li	a5,-1
    2e5c:	00f51663          	bne	a0,a5,2e68 <_write_r+0x24>
    2e60:	8541a783          	lw	a5,-1964(gp) # 200011a4 <errno>
    2e64:	c391                	beqz	a5,2e68 <_write_r+0x24>
    2e66:	c01c                	sw	a5,0(s0)
    2e68:	40b2                	lw	ra,12(sp)
    2e6a:	4422                	lw	s0,8(sp)
    2e6c:	0141                	addi	sp,sp,16
    2e6e:	8082                	ret

00002e70 <_close_r>:
_close_r():
    2e70:	1141                	addi	sp,sp,-16
    2e72:	c422                	sw	s0,8(sp)
    2e74:	842a                	mv	s0,a0
    2e76:	852e                	mv	a0,a1
    2e78:	8401aa23          	sw	zero,-1964(gp) # 200011a4 <errno>
    2e7c:	c606                	sw	ra,12(sp)
    2e7e:	2195                	jal	32e2 <_close>
    2e80:	57fd                	li	a5,-1
    2e82:	00f51663          	bne	a0,a5,2e8e <_close_r+0x1e>
    2e86:	8541a783          	lw	a5,-1964(gp) # 200011a4 <errno>
    2e8a:	c391                	beqz	a5,2e8e <_close_r+0x1e>
    2e8c:	c01c                	sw	a5,0(s0)
    2e8e:	40b2                	lw	ra,12(sp)
    2e90:	4422                	lw	s0,8(sp)
    2e92:	0141                	addi	sp,sp,16
    2e94:	8082                	ret

00002e96 <_fstat_r>:
_fstat_r():
    2e96:	1141                	addi	sp,sp,-16
    2e98:	c422                	sw	s0,8(sp)
    2e9a:	842a                	mv	s0,a0
    2e9c:	852e                	mv	a0,a1
    2e9e:	85b2                	mv	a1,a2
    2ea0:	8401aa23          	sw	zero,-1964(gp) # 200011a4 <errno>
    2ea4:	c606                	sw	ra,12(sp)
    2ea6:	21a1                	jal	32ee <_fstat>
    2ea8:	57fd                	li	a5,-1
    2eaa:	00f51663          	bne	a0,a5,2eb6 <_fstat_r+0x20>
    2eae:	8541a783          	lw	a5,-1964(gp) # 200011a4 <errno>
    2eb2:	c391                	beqz	a5,2eb6 <_fstat_r+0x20>
    2eb4:	c01c                	sw	a5,0(s0)
    2eb6:	40b2                	lw	ra,12(sp)
    2eb8:	4422                	lw	s0,8(sp)
    2eba:	0141                	addi	sp,sp,16
    2ebc:	8082                	ret

00002ebe <_isatty_r>:
_isatty_r():
    2ebe:	1141                	addi	sp,sp,-16
    2ec0:	c422                	sw	s0,8(sp)
    2ec2:	842a                	mv	s0,a0
    2ec4:	852e                	mv	a0,a1
    2ec6:	8401aa23          	sw	zero,-1964(gp) # 200011a4 <errno>
    2eca:	c606                	sw	ra,12(sp)
    2ecc:	213d                	jal	32fa <_isatty>
    2ece:	57fd                	li	a5,-1
    2ed0:	00f51663          	bne	a0,a5,2edc <_isatty_r+0x1e>
    2ed4:	8541a783          	lw	a5,-1964(gp) # 200011a4 <errno>
    2ed8:	c391                	beqz	a5,2edc <_isatty_r+0x1e>
    2eda:	c01c                	sw	a5,0(s0)
    2edc:	40b2                	lw	ra,12(sp)
    2ede:	4422                	lw	s0,8(sp)
    2ee0:	0141                	addi	sp,sp,16
    2ee2:	8082                	ret

00002ee4 <_lseek_r>:
_lseek_r():
    2ee4:	1141                	addi	sp,sp,-16
    2ee6:	c422                	sw	s0,8(sp)
    2ee8:	842a                	mv	s0,a0
    2eea:	852e                	mv	a0,a1
    2eec:	85b2                	mv	a1,a2
    2eee:	8636                	mv	a2,a3
    2ef0:	8401aa23          	sw	zero,-1964(gp) # 200011a4 <errno>
    2ef4:	c606                	sw	ra,12(sp)
    2ef6:	2901                	jal	3306 <_lseek>
    2ef8:	57fd                	li	a5,-1
    2efa:	00f51663          	bne	a0,a5,2f06 <_lseek_r+0x22>
    2efe:	8541a783          	lw	a5,-1964(gp) # 200011a4 <errno>
    2f02:	c391                	beqz	a5,2f06 <_lseek_r+0x22>
    2f04:	c01c                	sw	a5,0(s0)
    2f06:	40b2                	lw	ra,12(sp)
    2f08:	4422                	lw	s0,8(sp)
    2f0a:	0141                	addi	sp,sp,16
    2f0c:	8082                	ret

00002f0e <memchr>:
memchr():
    2f0e:	0ff5f593          	zext.b	a1,a1
    2f12:	962a                	add	a2,a2,a0
    2f14:	00c51463          	bne	a0,a2,2f1c <memchr+0xe>
    2f18:	4501                	li	a0,0
    2f1a:	8082                	ret
    2f1c:	211c                	lbu	a5,0(a0)
    2f1e:	feb78ee3          	beq	a5,a1,2f1a <memchr+0xc>
    2f22:	0505                	addi	a0,a0,1
    2f24:	bfc5                	j	2f14 <memchr+0x6>

00002f26 <__malloc_lock>:
__malloc_lock():
    2f26:	84018513          	addi	a0,gp,-1984 # 20001190 <__lock___malloc_recursive_mutex>
    2f2a:	857ff06f          	j	2780 <__retarget_lock_acquire_recursive>

00002f2e <__malloc_unlock>:
__malloc_unlock():
    2f2e:	84018513          	addi	a0,gp,-1984 # 20001190 <__lock___malloc_recursive_mutex>
    2f32:	851ff06f          	j	2782 <__retarget_lock_release_recursive>

00002f36 <_printf_common>:
_printf_common():
    2f36:	7179                	addi	sp,sp,-48
    2f38:	ca56                	sw	s5,20(sp)
    2f3a:	499c                	lw	a5,16(a1)
    2f3c:	8aba                	mv	s5,a4
    2f3e:	4598                	lw	a4,8(a1)
    2f40:	d422                	sw	s0,40(sp)
    2f42:	d04a                	sw	s2,32(sp)
    2f44:	ce4e                	sw	s3,28(sp)
    2f46:	cc52                	sw	s4,24(sp)
    2f48:	d606                	sw	ra,44(sp)
    2f4a:	d226                	sw	s1,36(sp)
    2f4c:	c85a                	sw	s6,16(sp)
    2f4e:	c65e                	sw	s7,12(sp)
    2f50:	0ae7e7b3          	max	a5,a5,a4
    2f54:	c21c                	sw	a5,0(a2)
    2f56:	0435c703          	lbu	a4,67(a1)
    2f5a:	89aa                	mv	s3,a0
    2f5c:	842e                	mv	s0,a1
    2f5e:	8932                	mv	s2,a2
    2f60:	8a36                	mv	s4,a3
    2f62:	c319                	beqz	a4,2f68 <_printf_common+0x32>
    2f64:	0785                	addi	a5,a5,1
    2f66:	c21c                	sw	a5,0(a2)
    2f68:	401c                	lw	a5,0(s0)
    2f6a:	0207f793          	andi	a5,a5,32
    2f6e:	c791                	beqz	a5,2f7a <_printf_common+0x44>
    2f70:	00092783          	lw	a5,0(s2)
    2f74:	0789                	addi	a5,a5,2
    2f76:	00f92023          	sw	a5,0(s2)
    2f7a:	4004                	lw	s1,0(s0)
    2f7c:	8899                	andi	s1,s1,6
    2f7e:	e891                	bnez	s1,2f92 <_printf_common+0x5c>
    2f80:	01940b13          	addi	s6,s0,25
    2f84:	5bfd                	li	s7,-1
    2f86:	445c                	lw	a5,12(s0)
    2f88:	00092703          	lw	a4,0(s2)
    2f8c:	8f99                	sub	a5,a5,a4
    2f8e:	04f4cc63          	blt	s1,a5,2fe6 <_printf_common+0xb0>
    2f92:	04344783          	lbu	a5,67(s0)
    2f96:	00f036b3          	snez	a3,a5
    2f9a:	401c                	lw	a5,0(s0)
    2f9c:	0207f793          	andi	a5,a5,32
    2fa0:	eba5                	bnez	a5,3010 <_printf_common+0xda>
    2fa2:	04340613          	addi	a2,s0,67
    2fa6:	85d2                	mv	a1,s4
    2fa8:	854e                	mv	a0,s3
    2faa:	9a82                	jalr	s5
    2fac:	57fd                	li	a5,-1
    2fae:	04f50363          	beq	a0,a5,2ff4 <_printf_common+0xbe>
    2fb2:	401c                	lw	a5,0(s0)
    2fb4:	4711                	li	a4,4
    2fb6:	4481                	li	s1,0
    2fb8:	8b99                	andi	a5,a5,6
    2fba:	00e79963          	bne	a5,a4,2fcc <_printf_common+0x96>
    2fbe:	00092783          	lw	a5,0(s2)
    2fc2:	4444                	lw	s1,12(s0)
    2fc4:	8c9d                	sub	s1,s1,a5
    2fc6:	4781                	li	a5,0
    2fc8:	0af4e4b3          	max	s1,s1,a5
    2fcc:	441c                	lw	a5,8(s0)
    2fce:	4818                	lw	a4,16(s0)
    2fd0:	00f75463          	bge	a4,a5,2fd8 <_printf_common+0xa2>
    2fd4:	8f99                	sub	a5,a5,a4
    2fd6:	94be                	add	s1,s1,a5
    2fd8:	4901                	li	s2,0
    2fda:	0469                	addi	s0,s0,26
    2fdc:	5b7d                	li	s6,-1
    2fde:	05249863          	bne	s1,s2,302e <_printf_common+0xf8>
    2fe2:	4501                	li	a0,0
    2fe4:	a809                	j	2ff6 <_printf_common+0xc0>
    2fe6:	4685                	li	a3,1
    2fe8:	865a                	mv	a2,s6
    2fea:	85d2                	mv	a1,s4
    2fec:	854e                	mv	a0,s3
    2fee:	9a82                	jalr	s5
    2ff0:	01751e63          	bne	a0,s7,300c <_printf_common+0xd6>
    2ff4:	557d                	li	a0,-1
    2ff6:	50b2                	lw	ra,44(sp)
    2ff8:	5422                	lw	s0,40(sp)
    2ffa:	5492                	lw	s1,36(sp)
    2ffc:	5902                	lw	s2,32(sp)
    2ffe:	49f2                	lw	s3,28(sp)
    3000:	4a62                	lw	s4,24(sp)
    3002:	4ad2                	lw	s5,20(sp)
    3004:	4b42                	lw	s6,16(sp)
    3006:	4bb2                	lw	s7,12(sp)
    3008:	6145                	addi	sp,sp,48
    300a:	8082                	ret
    300c:	0485                	addi	s1,s1,1
    300e:	bfa5                	j	2f86 <_printf_common+0x50>
    3010:	00d40733          	add	a4,s0,a3
    3014:	03000613          	li	a2,48
    3018:	04c701a3          	sb	a2,67(a4)
    301c:	04544703          	lbu	a4,69(s0)
    3020:	00168793          	addi	a5,a3,1
    3024:	97a2                	add	a5,a5,s0
    3026:	0689                	addi	a3,a3,2
    3028:	04e781a3          	sb	a4,67(a5)
    302c:	bf9d                	j	2fa2 <_printf_common+0x6c>
    302e:	4685                	li	a3,1
    3030:	8622                	mv	a2,s0
    3032:	85d2                	mv	a1,s4
    3034:	854e                	mv	a0,s3
    3036:	9a82                	jalr	s5
    3038:	fb650ee3          	beq	a0,s6,2ff4 <_printf_common+0xbe>
    303c:	0905                	addi	s2,s2,1
    303e:	b745                	j	2fde <_printf_common+0xa8>

00003040 <_printf_i>:
_printf_i():
    3040:	7179                	addi	sp,sp,-48
    3042:	d422                	sw	s0,40(sp)
    3044:	d04a                	sw	s2,32(sp)
    3046:	ce4e                	sw	s3,28(sp)
    3048:	cc52                	sw	s4,24(sp)
    304a:	d606                	sw	ra,44(sp)
    304c:	d226                	sw	s1,36(sp)
    304e:	ca56                	sw	s5,20(sp)
    3050:	c85a                	sw	s6,16(sp)
    3052:	0185c803          	lbu	a6,24(a1)
    3056:	07800793          	li	a5,120
    305a:	892a                	mv	s2,a0
    305c:	842e                	mv	s0,a1
    305e:	89b2                	mv	s3,a2
    3060:	8a36                	mv	s4,a3
    3062:	0307e263          	bltu	a5,a6,3086 <_printf_i+0x46>
    3066:	06200793          	li	a5,98
    306a:	04358693          	addi	a3,a1,67
    306e:	0307e163          	bltu	a5,a6,3090 <_printf_i+0x50>
    3072:	1c080b63          	beqz	a6,3248 <_printf_i+0x208>
    3076:	05800793          	li	a5,88
    307a:	00000617          	auipc	a2,0x0
    307e:	3aa60613          	addi	a2,a2,938 # 3424 <__sf_fake_stdin+0x34>
    3082:	14f80763          	beq	a6,a5,31d0 <_printf_i+0x190>
    3086:	04240493          	addi	s1,s0,66
    308a:	05040123          	sb	a6,66(s0)
    308e:	a815                	j	30c2 <_printf_i+0x82>
    3090:	f9d80793          	addi	a5,a6,-99
    3094:	0ff7f793          	zext.b	a5,a5
    3098:	4655                	li	a2,21
    309a:	fef666e3          	bltu	a2,a5,3086 <_printf_i+0x46>
    309e:	00000617          	auipc	a2,0x0
    30a2:	3ae60613          	addi	a2,a2,942 # 344c <__sf_fake_stdin+0x5c>
    30a6:	20c7c7b3          	sh2add	a5,a5,a2
    30aa:	439c                	lw	a5,0(a5)
    30ac:	97b2                	add	a5,a5,a2
    30ae:	8782                	jr	a5
    30b0:	431c                	lw	a5,0(a4)
    30b2:	04258493          	addi	s1,a1,66
    30b6:	00478693          	addi	a3,a5,4
    30ba:	439c                	lw	a5,0(a5)
    30bc:	c314                	sw	a3,0(a4)
    30be:	04f58123          	sb	a5,66(a1)
    30c2:	4785                	li	a5,1
    30c4:	a265                	j	326c <_printf_i+0x22c>
    30c6:	4190                	lw	a2,0(a1)
    30c8:	431c                	lw	a5,0(a4)
    30ca:	08067513          	andi	a0,a2,128
    30ce:	00478593          	addi	a1,a5,4
    30d2:	c129                	beqz	a0,3114 <_printf_i+0xd4>
    30d4:	439c                	lw	a5,0(a5)
    30d6:	c30c                	sw	a1,0(a4)
    30d8:	4058                	lw	a4,4(s0)
    30da:	1207de63          	bgez	a5,3216 <_printf_i+0x1d6>
    30de:	02d00593          	li	a1,45
    30e2:	04b401a3          	sb	a1,67(s0)
    30e6:	c418                	sw	a4,8(s0)
    30e8:	02075e63          	bgez	a4,3124 <_printf_i+0xe4>
    30ec:	40f007b3          	neg	a5,a5
    30f0:	00000617          	auipc	a2,0x0
    30f4:	33460613          	addi	a2,a2,820 # 3424 <__sf_fake_stdin+0x34>
    30f8:	4829                	li	a6,10
    30fa:	84b6                	mv	s1,a3
    30fc:	0307f733          	remu	a4,a5,a6
    3100:	14fd                	addi	s1,s1,-1
    3102:	9732                	add	a4,a4,a2
    3104:	2318                	lbu	a4,0(a4)
    3106:	a098                	sb	a4,0(s1)
    3108:	873e                	mv	a4,a5
    310a:	0307d7b3          	divu	a5,a5,a6
    310e:	ff0777e3          	bgeu	a4,a6,30fc <_printf_i+0xbc>
    3112:	a085                	j	3172 <_printf_i+0x132>
    3114:	439c                	lw	a5,0(a5)
    3116:	04067513          	andi	a0,a2,64
    311a:	c30c                	sw	a1,0(a4)
    311c:	dd55                	beqz	a0,30d8 <_printf_i+0x98>
    311e:	60579793          	sext.h	a5,a5
    3122:	bf5d                	j	30d8 <_printf_i+0x98>
    3124:	9a6d                	andi	a2,a2,-5
    3126:	c010                	sw	a2,0(s0)
    3128:	b7d1                	j	30ec <_printf_i+0xac>
    312a:	4190                	lw	a2,0(a1)
    312c:	431c                	lw	a5,0(a4)
    312e:	08067513          	andi	a0,a2,128
    3132:	00478593          	addi	a1,a5,4
    3136:	c501                	beqz	a0,313e <_printf_i+0xfe>
    3138:	c30c                	sw	a1,0(a4)
    313a:	439c                	lw	a5,0(a5)
    313c:	a031                	j	3148 <_printf_i+0x108>
    313e:	04067613          	andi	a2,a2,64
    3142:	c30c                	sw	a1,0(a4)
    3144:	da7d                	beqz	a2,313a <_printf_i+0xfa>
    3146:	239e                	lhu	a5,0(a5)
    3148:	06f00713          	li	a4,111
    314c:	00000617          	auipc	a2,0x0
    3150:	2d860613          	addi	a2,a2,728 # 3424 <__sf_fake_stdin+0x34>
    3154:	0ae81f63          	bne	a6,a4,3212 <_printf_i+0x1d2>
    3158:	4821                	li	a6,8
    315a:	040401a3          	sb	zero,67(s0)
    315e:	4058                	lw	a4,4(s0)
    3160:	c418                	sw	a4,8(s0)
    3162:	f8074ce3          	bltz	a4,30fa <_printf_i+0xba>
    3166:	400c                	lw	a1,0(s0)
    3168:	99ed                	andi	a1,a1,-5
    316a:	c00c                	sw	a1,0(s0)
    316c:	f7d9                	bnez	a5,30fa <_printf_i+0xba>
    316e:	84b6                	mv	s1,a3
    3170:	f749                	bnez	a4,30fa <_printf_i+0xba>
    3172:	47a1                	li	a5,8
    3174:	00f81e63          	bne	a6,a5,3190 <_printf_i+0x150>
    3178:	401c                	lw	a5,0(s0)
    317a:	8b85                	andi	a5,a5,1
    317c:	cb91                	beqz	a5,3190 <_printf_i+0x150>
    317e:	4058                	lw	a4,4(s0)
    3180:	481c                	lw	a5,16(s0)
    3182:	00e7c763          	blt	a5,a4,3190 <_printf_i+0x150>
    3186:	03000793          	li	a5,48
    318a:	fef48fa3          	sb	a5,-1(s1)
    318e:	14fd                	addi	s1,s1,-1
    3190:	8e85                	sub	a3,a3,s1
    3192:	c814                	sw	a3,16(s0)
    3194:	8752                	mv	a4,s4
    3196:	86ce                	mv	a3,s3
    3198:	0070                	addi	a2,sp,12
    319a:	85a2                	mv	a1,s0
    319c:	854a                	mv	a0,s2
    319e:	3b61                	jal	2f36 <_printf_common>
    31a0:	5afd                	li	s5,-1
    31a2:	0d551963          	bne	a0,s5,3274 <_printf_i+0x234>
    31a6:	557d                	li	a0,-1
    31a8:	50b2                	lw	ra,44(sp)
    31aa:	5422                	lw	s0,40(sp)
    31ac:	5492                	lw	s1,36(sp)
    31ae:	5902                	lw	s2,32(sp)
    31b0:	49f2                	lw	s3,28(sp)
    31b2:	4a62                	lw	s4,24(sp)
    31b4:	4ad2                	lw	s5,20(sp)
    31b6:	4b42                	lw	s6,16(sp)
    31b8:	6145                	addi	sp,sp,48
    31ba:	8082                	ret
    31bc:	419c                	lw	a5,0(a1)
    31be:	0207e793          	ori	a5,a5,32
    31c2:	c19c                	sw	a5,0(a1)
    31c4:	07800813          	li	a6,120
    31c8:	00000617          	auipc	a2,0x0
    31cc:	27060613          	addi	a2,a2,624 # 3438 <__sf_fake_stdin+0x48>
    31d0:	050402a3          	sb	a6,69(s0)
    31d4:	400c                	lw	a1,0(s0)
    31d6:	431c                	lw	a5,0(a4)
    31d8:	0805f813          	andi	a6,a1,128
    31dc:	00478513          	addi	a0,a5,4
    31e0:	00080563          	beqz	a6,31ea <_printf_i+0x1aa>
    31e4:	c308                	sw	a0,0(a4)
    31e6:	439c                	lw	a5,0(a5)
    31e8:	a039                	j	31f6 <_printf_i+0x1b6>
    31ea:	0405f813          	andi	a6,a1,64
    31ee:	c308                	sw	a0,0(a4)
    31f0:	fe080be3          	beqz	a6,31e6 <_printf_i+0x1a6>
    31f4:	239e                	lhu	a5,0(a5)
    31f6:	0015f713          	andi	a4,a1,1
    31fa:	c701                	beqz	a4,3202 <_printf_i+0x1c2>
    31fc:	0205e593          	ori	a1,a1,32
    3200:	c00c                	sw	a1,0(s0)
    3202:	c399                	beqz	a5,3208 <_printf_i+0x1c8>
    3204:	4841                	li	a6,16
    3206:	bf91                	j	315a <_printf_i+0x11a>
    3208:	4018                	lw	a4,0(s0)
    320a:	fdf77713          	andi	a4,a4,-33
    320e:	c018                	sw	a4,0(s0)
    3210:	bfd5                	j	3204 <_printf_i+0x1c4>
    3212:	4829                	li	a6,10
    3214:	b799                	j	315a <_printf_i+0x11a>
    3216:	00000617          	auipc	a2,0x0
    321a:	20e60613          	addi	a2,a2,526 # 3424 <__sf_fake_stdin+0x34>
    321e:	4829                	li	a6,10
    3220:	bf3d                	j	315e <_printf_i+0x11e>
    3222:	4190                	lw	a2,0(a1)
    3224:	431c                	lw	a5,0(a4)
    3226:	49cc                	lw	a1,20(a1)
    3228:	08067813          	andi	a6,a2,128
    322c:	00478513          	addi	a0,a5,4
    3230:	00080663          	beqz	a6,323c <_printf_i+0x1fc>
    3234:	c308                	sw	a0,0(a4)
    3236:	439c                	lw	a5,0(a5)
    3238:	c38c                	sw	a1,0(a5)
    323a:	a039                	j	3248 <_printf_i+0x208>
    323c:	c308                	sw	a0,0(a4)
    323e:	04067613          	andi	a2,a2,64
    3242:	439c                	lw	a5,0(a5)
    3244:	da75                	beqz	a2,3238 <_printf_i+0x1f8>
    3246:	a38e                	sh	a1,0(a5)
    3248:	00042823          	sw	zero,16(s0)
    324c:	84b6                	mv	s1,a3
    324e:	b799                	j	3194 <_printf_i+0x154>
    3250:	431c                	lw	a5,0(a4)
    3252:	41d0                	lw	a2,4(a1)
    3254:	4581                	li	a1,0
    3256:	00478693          	addi	a3,a5,4
    325a:	c314                	sw	a3,0(a4)
    325c:	4384                	lw	s1,0(a5)
    325e:	8526                	mv	a0,s1
    3260:	317d                	jal	2f0e <memchr>
    3262:	c501                	beqz	a0,326a <_printf_i+0x22a>
    3264:	409507b3          	sub	a5,a0,s1
    3268:	c05c                	sw	a5,4(s0)
    326a:	405c                	lw	a5,4(s0)
    326c:	c81c                	sw	a5,16(s0)
    326e:	040401a3          	sb	zero,67(s0)
    3272:	b70d                	j	3194 <_printf_i+0x154>
    3274:	4814                	lw	a3,16(s0)
    3276:	8626                	mv	a2,s1
    3278:	85ce                	mv	a1,s3
    327a:	854a                	mv	a0,s2
    327c:	9a02                	jalr	s4
    327e:	f35504e3          	beq	a0,s5,31a6 <_printf_i+0x166>
    3282:	401c                	lw	a5,0(s0)
    3284:	8b89                	andi	a5,a5,2
    3286:	e785                	bnez	a5,32ae <_printf_i+0x26e>
    3288:	4448                	lw	a0,12(s0)
    328a:	47b2                	lw	a5,12(sp)
    328c:	0af56533          	max	a0,a0,a5
    3290:	bf21                	j	31a8 <_printf_i+0x168>
    3292:	4685                	li	a3,1
    3294:	8656                	mv	a2,s5
    3296:	85ce                	mv	a1,s3
    3298:	854a                	mv	a0,s2
    329a:	9a02                	jalr	s4
    329c:	f16505e3          	beq	a0,s6,31a6 <_printf_i+0x166>
    32a0:	0485                	addi	s1,s1,1
    32a2:	445c                	lw	a5,12(s0)
    32a4:	4732                	lw	a4,12(sp)
    32a6:	8f99                	sub	a5,a5,a4
    32a8:	fef4c5e3          	blt	s1,a5,3292 <_printf_i+0x252>
    32ac:	bff1                	j	3288 <_printf_i+0x248>
    32ae:	4481                	li	s1,0
    32b0:	01940a93          	addi	s5,s0,25
    32b4:	5b7d                	li	s6,-1
    32b6:	b7f5                	j	32a2 <_printf_i+0x262>

000032b8 <_read_r>:
_read_r():
    32b8:	1141                	addi	sp,sp,-16
    32ba:	c422                	sw	s0,8(sp)
    32bc:	842a                	mv	s0,a0
    32be:	852e                	mv	a0,a1
    32c0:	85b2                	mv	a1,a2
    32c2:	8636                	mv	a2,a3
    32c4:	8401aa23          	sw	zero,-1964(gp) # 200011a4 <errno>
    32c8:	c606                	sw	ra,12(sp)
    32ca:	20a1                	jal	3312 <_read>
    32cc:	57fd                	li	a5,-1
    32ce:	00f51663          	bne	a0,a5,32da <_read_r+0x22>
    32d2:	8541a783          	lw	a5,-1964(gp) # 200011a4 <errno>
    32d6:	c391                	beqz	a5,32da <_read_r+0x22>
    32d8:	c01c                	sw	a5,0(s0)
    32da:	40b2                	lw	ra,12(sp)
    32dc:	4422                	lw	s0,8(sp)
    32de:	0141                	addi	sp,sp,16
    32e0:	8082                	ret

000032e2 <_close>:
_close():
    32e2:	05800793          	li	a5,88
    32e6:	84f1aa23          	sw	a5,-1964(gp) # 200011a4 <errno>
    32ea:	557d                	li	a0,-1
    32ec:	8082                	ret

000032ee <_fstat>:
_fstat():
    32ee:	05800793          	li	a5,88
    32f2:	84f1aa23          	sw	a5,-1964(gp) # 200011a4 <errno>
    32f6:	557d                	li	a0,-1
    32f8:	8082                	ret

000032fa <_isatty>:
_isatty():
    32fa:	05800793          	li	a5,88
    32fe:	84f1aa23          	sw	a5,-1964(gp) # 200011a4 <errno>
    3302:	4501                	li	a0,0
    3304:	8082                	ret

00003306 <_lseek>:
_lseek():
    3306:	05800793          	li	a5,88
    330a:	84f1aa23          	sw	a5,-1964(gp) # 200011a4 <errno>
    330e:	557d                	li	a0,-1
    3310:	8082                	ret

00003312 <_read>:
_read():
    3312:	05800793          	li	a5,88
    3316:	84f1aa23          	sw	a5,-1964(gp) # 200011a4 <errno>
    331a:	557d                	li	a0,-1
    331c:	8082                	ret
    331e:	0000                	unimp
    3320:	df02                	sw	zero,188(sp)
    3322:	ffff                	.2byte	0xffff
    3324:	df1a                	sw	t1,188(sp)
    3326:	ffff                	.2byte	0xffff
    3328:	df3e                	sw	a5,188(sp)
    332a:	ffff                	.2byte	0xffff
    332c:	df48                	sw	a0,60(a4)
    332e:	ffff                	.2byte	0xffff
    3330:	df5e                	sw	s7,188(sp)
    3332:	ffff                	.2byte	0xffff
    3334:	72617473          	csrrci	s0,0x726,2
    3338:	2e74                	lbu	a3,30(a2)
    333a:	0000                	unimp
    333c:	646e6573          	csrrsi	a0,0x646,28
    3340:	6520                	.2byte	0x6520
    3342:	7272                	.2byte	0x7272
    3344:	002e726f          	jal	tp,ea346 <_data_lma+0xe6e9e>
    3348:	7872                	.2byte	0x7872
    334a:	252d                	jal	3974 <_data_lma+0x4cc>
    334c:	0a64                	addi	s1,sp,284
    334e:	0000                	unimp
    3350:	56676663          	bltu	a4,t1,38bc <_data_lma+0x414>
    3354:	6c61                	lui	s8,0x18
    3356:	253d                	jal	3984 <_data_lma+0x4dc>
    3358:	0a78                	addi	a4,sp,284
    335a:	0000                	unimp
    335c:	2d2d                	jal	3996 <_data_lma+0x4ee>
    335e:	2d2d                	jal	3998 <_data_lma+0x4f0>
    3360:	2d2d                	jal	399a <_data_lma+0x4f2>
    3362:	2d2d                	jal	399c <_data_lma+0x4f4>
    3364:	2d2d                	jal	399e <_data_lma+0x4f6>
    3366:	2d2d                	jal	39a0 <_data_lma+0x4f8>
    3368:	2d2d                	jal	39a2 <_data_lma+0x4fa>
    336a:	2d2d                	jal	39a4 <_data_lma+0x4fc>
    336c:	202d                	jal	3396 <VER_RF_LIB+0x2>
    336e:	7872                	.2byte	0x7872
    3370:	2d20                	lbu	s0,26(a0)
    3372:	2d2d                	jal	39ac <_data_lma+0x504>
    3374:	2d2d                	jal	39ae <_data_lma+0x506>
    3376:	2d2d                	jal	39b0 <_data_lma+0x508>
    3378:	2d2d                	jal	39b2 <_data_lma+0x50a>
    337a:	2d2d                	jal	39b4 <_data_lma+0x50c>
    337c:	2d2d                	jal	39b6 <_data_lma+0x50e>
    337e:	2d2d                	jal	39b8 <_data_lma+0x510>
    3380:	2d2d                	jal	39ba <_data_lma+0x512>
    3382:	0000                	unimp
    3384:	72617473          	csrrci	s0,0x726,2
    3388:	2074                	lbu	a3,6(s0)
    338a:	7872                	.2byte	0x7872
    338c:	2e2e                	lhu	a1,26(a2)
    338e:	252e                	lhu	a1,10(a0)
    3390:	0a64                	addi	s1,sp,284
	...

00003394 <VER_RF_LIB>:
    3394:	4843 3735 5f78 4652 425f 5341 4349 4c5f     CH57x_RF_BASIC_L
    33a4:	4249 565f 2e31 2e30 0030 0000               IB_V1.0.0...

000033b0 <__sf_fake_stderr>:
	...

000033d0 <__sf_fake_stdout>:
	...

000033f0 <__sf_fake_stdin>:
	...
    3410:	2d23 2b30 0020 0000 6c68 004c 6665 4567     #-0+ ...hlL.efgE
    3420:	4746 0000 3130 3332 3534 3736 3938 4241     FG..0123456789AB
    3430:	4443 4645 0000 0000 3130 3332 3534 3736     CDEF....01234567
    3440:	3938 6261 6463 6665 0000 0000 fc64 ffff     89abcdef....d...
    3450:	fc7a ffff fc3a ffff fc3a ffff fc3a ffff     z...:...:...:...
    3460:	fc3a ffff fc7a ffff fc3a ffff fc3a ffff     :...z...:...:...
    3470:	fc3a ffff fc3a ffff fdd6 ffff fcde ffff     :...:...........
    3480:	fd70 ffff fc3a ffff fc3a ffff fe04 ffff     p...:...:.......
    3490:	fc3a ffff fcde ffff fc3a ffff fc3a ffff     :.......:...:...
    34a0:	fd78 ffff                                   x...

Disassembly of section .vector_handler:

000034a4 <Break_Point_Handler>:
ENDOCE_IRQHandler():
F:/private/nanoCH57x-private/doc/CH572EVT/EVT/EXAM/SRC/Startup/startup_CH572.S:111
	j 1b
    34a4:	a001                	j	34a4 <Break_Point_Handler>
